(dp1
S'output'
p2
S'The "end" tag is unmatched, please check if you have a starting "block" tag'
p3
sS'layer'
p4
S"'layout.html'"
p5
sS'code'
p6
S'<!DOCTYPE html>\n<html lang="{{=T.accepted_language or \'en\'}}" class="no-js"><!-- no-js need it for modernzr -->\n  <head>\n    \n    <meta charset="utf-8" />        \n    <!-- www.phpied.com/conditional-comments-block-downloads/ -->\n    <!--[if IE]>\n      <!-- Always force latest IE rendering engine \n       (even in intranet) & Chrome Frame \n       Remove this if you use the .htaccess -->\n      <meta http-equiv="X-UA-Compatible" content="IE=edge,chrome=1">\n    <![endif]-->    \n\n    <title>{{=response.title or request.application}}</title>\n    \n    <!-- http://dev.w3.org/html5/markup/meta.name.html -->\n    <meta name="application-name" content="{{=request.application}}" /> \n    \n    <!-- Speaking of Google, don\'t forget to set your site up: \n     http://google.com/webmasters -->\n    <meta name="google-site-verification" content="" />\n    \n    <!--  Mobile Viewport Fix\n      j.mp/mobileviewport & davidbcalhoun.com/2010/viewport-metatag \n      device-width: Occupy full width of the screen in its current orientation\n      initial-scale = 1.0 retains dimensions instead of zooming out if page height > device height\n      maximum-scale = 1.0 retains dimensions instead of zooming in if page width < device width\n      -->\n    <meta name="viewport" content="width=device-width, initial-scale=1.0, maximum-scale=1.0">\n    \n    <!-- Place favicon.ico and apple-touch-icon.png in the root of your domain and delete these references -->\n    <link rel="shortcut icon" href="{{=URL(\'static\',\'favicon.ico\')}}" type="image/x-icon">\n    <link rel="apple-touch-icon" href="{{=URL(\'static\',\'favicon.png\')}}">\n\n    <!-- For the less-enabled mobile browsers like Opera Mini -->\n    <link rel="stylesheet" media="handheld" href="{{=URL(\'static\',\'css/handheld.css\')}}">\n    \n    <!-- All JavaScript at the bottom, except for Modernizr which enables HTML5 elements & feature detects -->\n    <script src="{{=URL(\'static\',\'js/modernizr-1.7.min.js\')}}"></script>\n    \n    {{#------  require CSS and JS files for this page (read info in base.css) ------}}\n    {{response.files.append(URL(\'static\',\'css/base.css\'))}}\n    {{response.files.append(URL(\'static\',\'css/superfish.css\'))}}\n    {{response.files.append(URL(\'static\',\'js/superfish.js\'))}}\n    {{#------ include web2py specific js code (jquery, calendar, form stuff) ------}}\n    {{include \'web2py_ajax.html\'}}\n\n    {{\n    #using sidebars need to know what sidebar you want to use\n    #prior of using it, because of static width size of content, you can use\n    #left_sidebar, right_sidebar, both or none (False left and right)    \n    left_sidebar_enabled = globals().get(\'left_sidebar_enabled\',False)\n    right_sidebar_enabled = globals().get(\'right_sidebar_enabled\',False)\n    if left_sidebar_enabled and right_sidebar_enabled: width_content=\'63%\'\n    elif left_sidebar_enabled != right_sidebar_enabled: width_content=\'740px\'\n    else: width_content=\'100%\'\n    if left_sidebar_enabled: left_sidebar_style = \'style="display: block;"\'\n    else: left_sidebar_style = \'style="display: none;"\'\n    if right_sidebar_enabled: right_sidebar_style = \'style="display: block;"\'\n    else: right_sidebar_style = \'style="display: none;"\'\n    style_content = \'style="width: %s"\' % width_content\n    }}\n    \n    <!-- uncomment here to load jquery-ui -->\n    \n    <link rel="stylesheet" href="http://ajax.googleapis.com/ajax/libs/jqueryui/1.8.16/themes/base/jquery-ui.css" type="text/css" media="all" />\n    <script src="http://ajax.googleapis.com/ajax/libs/jqueryui/1.8.16/jquery-ui.min.js" type="text/javascript"></script>\n    \n   <!-- uncomment to load jquery-ui -->\n    \n    \n  </head>\n  \n  <!-- paulirish.com/2008/conditional-stylesheets-vs-css-hacks-answer-neither/ -->  \n  <!--[if lt IE 7 ]> <body class="ie6"> <![endif]-->\n  <!--[if IE 7 ]>    <body class="ie7"> <![endif]-->\n  <!--[if IE 8 ]>    <body class="ie8"> <![endif]-->\n  <!--[if IE 9 ]>    <body class="ie9"> <![endif]-->\n  <!--[if (gt IE 9)|!(IE)]><!--> <body> <!--<![endif]-->\n    \n    <div class="flash">{{=response.flash or \'\'}}</div> <!-- notification div -->\n\n        \n\n    <div id="container">                        \n      \n      <div id="wrapper">        \n      {{try:}}{{=auth.navbar(action=URL(\'default\',\'user\'))}}{{except:pass}}\n    \n    <div id="header"> <!-- header and login nav -->\n      {{block header}} <!-- this is default header -->\n      \n      <h1>\n        <span id="appname">{{=request.application.capitalize()}}</span>App\n      </h1>\n      <div style="clear: both;"></div><!-- Clear the divs -->\n      {{end}}\n    </div><!-- header  -->\n    \n    <div id="statusbar"><!-- statusbar is menu zone -->\n      <script type="text/javascript">\n        jQuery(document).ready(function(){\n        jQuery(\'ul.sf-menu\').superfish();});\n      </script>\n\n      <!-- AddToAny BEGIN -->\n      <div style="padding: 7px; float:right;" class="a2a_kit a2a_default_style"><a class="a2a_dd" href="http://www.addtoany.com/share_save">Share</a></div><script type="text/javascript" src="http://static.addtoany.com/menu/page.js"></script>\n      <!-- AddToAny END -->\n\n      <div style="clear: both;"></div><!-- Clear the divs -->   \n      {{end}}               \n    </div><!-- statusbar -->\n    \n    <div id="page"> <!-- Here my central body -->     \n\n      {{if left_sidebar_enabled:}}\n          <div id="left_sidebar" {{=XML(left_sidebar_style)}} >\n            <div style="padding: 4px;">\n          {{block left_sidebar}}Content Left Sidebar{{end}}       \n            </div>\n          </div><!-- left_sidebar -->\n      {{pass}}\n\n      <!-- content -->\n      <div id="content" {{=XML(style_content)}} >\n        {{include}} \n      </div>\n      <!-- content -->\n\n      {{if right_sidebar_enabled:}}\n          <div id="right_sidebar" {{=XML(right_sidebar_style)}} >\n            <div style="padding: 4px;">\n              {{block right_sidebar}}Content Right Sidebar{{end}}\n            </div>\n      </div><!-- right_sidebar -->\n          {{pass}}\n\n\n      <div style="clear: both;"></div><!-- Clear the divs -->\n      \n    </div><!-- page -->                         \n    \n    <div id="footer">\n      {{block footer}} <!-- this is default footer -->\n      <div style="clear: both;"></div><!-- Clear the divs -->\n      {{end}}\n\n    </div><!-- footer -->           \n      </div><!-- wrapper -->\n    </div><!-- container -->        \n    \n    <!--[if lt IE 7 ]>\n    <script src="{{=URL(\'static\',\'js/dd_belatedpng.js\')}}"></script>\n    <script> DD_belatedPNG.fix(\'img, .png_bg\'); //fix any <img> or .png_bg background-images </script>\n    <![endif]-->\n    {{if response.google_analytics_id:}}<script>/* http://mathiasbynens.be/notes/async-analytics-snippet */ var _gaq=[[\'_setAccount\',\'{{=response.google_analyitics_id}}\'],[\'_trackPageview\']];(function(d,t){var g=d.createElement(t),s=d.getElementsByTagName(t)[0];g.src=\'//www.google-analytics.com/ga.js\';s.parentNode.insertBefore(g,s)}(document,\'script\')) </script>{{pass}}\n  </body>\n</html>\n'
p7
sS'snapshot'
p8
(dp9
S'exception'
p10
(dp11
S'__hash__'
p12
S"<method-wrapper '__hash__' of SocketTimeout object at 0x03568BC0>"
p13
sS'__module__'
p14
S"'gluon.rocket'"
p15
sS'__reduce_ex__'
p16
S'<built-in method __reduce_ex__ of SocketTimeout object at 0x03568BC0>'
p17
sS'__getslice__'
p18
S"<method-wrapper '__getslice__' of SocketTimeout object at 0x03568BC0>"
p19
sS'__getitem__'
p20
S"<method-wrapper '__getitem__' of SocketTimeout object at 0x03568BC0>"
p21
sS'__setstate__'
p22
S'<built-in method __setstate__ of SocketTimeout object at 0x03568BC0>'
p23
sS'__reduce__'
p24
S'<built-in method __reduce__ of SocketTimeout object at 0x03568BC0>'
p25
sS'__str__'
p26
S"<method-wrapper '__str__' of SocketTimeout object at 0x03568BC0>"
p27
sS'args'
p28
S"('Socket timed out before request.',)"
p29
sS'__getattribute__'
p30
S"<method-wrapper '__getattribute__' of SocketTimeout object at 0x03568BC0>"
p31
sS'__class__'
p32
S"<class 'gluon.rocket.SocketTimeout'>"
p33
sS'__delattr__'
p34
S"<method-wrapper '__delattr__' of SocketTimeout object at 0x03568BC0>"
p35
sS'__repr__'
p36
S"<method-wrapper '__repr__' of SocketTimeout object at 0x03568BC0>"
p37
sS'__setattr__'
p38
S"<method-wrapper '__setattr__' of SocketTimeout object at 0x03568BC0>"
p39
sS'__dict__'
p40
S'{}'
p41
sS'__weakref__'
p42
S'None'
p43
sS'__doc__'
p44
S"'Exception for when a socket times out between requests.'"
p45
sS'__init__'
p46
S"<method-wrapper '__init__' of SocketTimeout object at 0x03568BC0>"
p47
sS'__new__'
p48
S'<built-in method __new__ of type object at 0x1E1CCBE8>'
p49
ssS'evalue'
p50
S'Socket timed out before request.'
p51
sS'frames'
p52
(lp53
(dp54
S'file'
p55
S'D:\\Dropbox\\Eclipse\\JRMSiteApp\\web2py\\gluon\\rocket.py'
p56
sS'dump'
p57
(dp58
S'self'
p59
S'<WSGIWorker(Thread-13, started daemon)>'
p60
sS'conn'
p61
S'<gluon.rocket.Connection object at 0x0358D0E0>'
p62
sS'self.run_app'
p63
S'<bound method WSGIWorker.run_app of <WSGIWorker(Thread-13, started daemon)>>'
p64
ssS'lnum'
p65
I1302
sS'lines'
p66
(dp67
I1297
S'            # Enter connection serve loop'
p68
sI1298
S'            while True:'
p69
sI1299
S'                if __debug__:'
p70
sI1300
S"                    self.err_log.debug('Serving a request')"
p71
sI1301
S'                try:'
p72
sI1302
S'                    self.run_app(conn)'
p73
sI1303
S'                    log_info = dict(client_ip = conn.client_addr,'
p74
sI1304
S"                                    time = datetime.now().strftime('%c'),"
p75
sI1305
S"                                    status = self.status.split(' ')[0],"
p76
sI1306
S'                                    size = self.size,'
p77
ssS'call'
p78
S'(self=<WSGIWorker(Thread-13, started daemon)>)'
p79
sS'func'
p80
S'run'
p81
sa(dp82
g55
S'D:\\Dropbox\\Eclipse\\JRMSiteApp\\web2py\\gluon\\rocket.py'
p83
sg57
(dp84
S'self'
p85
S'<WSGIWorker(Thread-13, started daemon)>'
p86
sS'self.environ'
p87
S"{'HTTP_ACCEPT': 'text/html,application/xhtml+xml,application/xml;q=0.9,*/*;q=0.8', 'HTTP_ACCEPT_CHARSET': 'ISO-8859-1,utf-8;q=0.7,*;q=0.3', 'HTTP_ACCEPT_ENCODING': 'gzip,deflate,sdch', 'HTTP_ACCEPT_LANGUAGE': 'en-US,en;q=0.8', 'HTTP_CACHE_CONTROL': 'max-age=0', 'HTTP_CONNECTION': 'keep-alive', 'HTTP_COOKIE': 'session_id_admin=127.0.0.1-9ea0b57a-cbdd-4f07-b2...te=127.0.0.1-4fc01785-ba2d-41e9-9a4c-e5d34e0eb5e0', 'HTTP_HOST': '127.0.0.1:8000', 'HTTP_USER_AGENT': 'Mozilla/5.0 (Windows NT 6.1; WOW64) AppleWebKit/...HTML, like Gecko) Chrome/16.0.912.77 Safari/535.7', 'PATH_INFO': '/', ...}"
p88
sS'sock_file'
p89
S'<socket._fileobject object at 0x037D5EF0>'
p90
sS'environ'
p91
S'undefined'
p92
sS'self.build_environ'
p93
S'<bound method WSGIWorker.build_environ of <WSGIWorker(Thread-13, started daemon)>>'
p94
sS'conn'
p95
S'<gluon.rocket.Connection object at 0x037C9C90>'
p96
ssg65
I1986
sg66
(dp97
I1984
S'        try:'
p98
sI1985
S'            # Read the headers and build our WSGI environment'
p99
sI1986
S'            self.environ = environ = self.build_environ(sock_file, conn)'
p100
sI1987
S''
sI1988
S'            # Handle 100 Continue'
p101
sI1989
S"            if environ.get('HTTP_EXPECT', '') == '100-continue':"
p102
sI1990
S"                res = environ['SERVER_PROTOCOL'] + ' 100 Continue\\r\\n\\r\\n'"
p103
sI1981
S'        else:'
p104
sI1982
S'            sock_file = conn.makefile(BUF_SIZE)'
p105
sI1983
S''
ssg78
S'(self=<WSGIWorker(Thread-13, started daemon)>, conn=<gluon.rocket.Connection object at 0x037C9C90>)'
p106
sg80
S'run_app'
p107
sa(dp108
g55
S'D:\\Dropbox\\Eclipse\\JRMSiteApp\\web2py\\gluon\\rocket.py'
p109
sg57
(dp110
S'sock_file'
p111
S'<socket._fileobject object at 0x037D5EF0>'
p112
sS'self.read_request_line'
p113
S'<bound method WSGIWorker.read_request_line of <WSGIWorker(Thread-13, started daemon)>>'
p114
sS'self'
p115
S'<WSGIWorker(Thread-13, started daemon)>'
p116
sS'request'
p117
g92
ssg65
I1807
sg66
(dp118
I1802
S'                                      "wsgiorg.futures": executor.futures})'
p119
sI1803
S''
sI1804
S'    def build_environ(self, sock_file, conn):'
p120
sI1805
S'        """ Build the execution environment. """'
p121
sI1806
S'        # Grab the request line'
p122
sI1807
S'        request = self.read_request_line(sock_file)'
p123
sI1808
S''
sI1809
S'        # Copy the Base Environment'
p124
sI1810
S'        environ = self.base_environ.copy()'
p125
sI1811
S''
ssg78
S'(self=<WSGIWorker(Thread-13, started daemon)>, sock_file=<socket._fileobject object at 0x037D5EF0>, conn=<gluon.rocket.Connection object at 0x037C9C90>)'
p126
sg80
S'build_environ'
p127
sa(dp128
g55
S'D:\\Dropbox\\Eclipse\\JRMSiteApp\\web2py\\gluon\\rocket.py'
p129
sg57
(dp130
S'global SocketTimeout'
p131
S"<class 'gluon.rocket.SocketTimeout'>"
p132
ssg65
I1376
sg66
(dp133
I1376
S'            raise SocketTimeout("Socket timed out before request.")'
p134
sI1377
S''
sI1378
S'        d = d.strip()'
p135
sI1379
S''
sI1380
S'        if not d:'
p136
sI1371
S''
sI1372
S'                d = sock_file.readline()'
p137
sI1373
S'                if PY3K:'
p138
sI1374
S"                    d = d.decode('ISO-8859-1')"
p139
sI1375
S'        except socket.timeout:'
p140
ssg78
S'(self=<WSGIWorker(Thread-13, started daemon)>, sock_file=<socket._fileobject object at 0x037D5EF0>)'
p141
sg80
S'read_request_line'
p142
sasS'pyver'
p143
S'Python 2.5.4: C:\\python25\\python.exe'
p144
sS'etype'
p145
S"<class 'gluon.rocket.SocketTimeout'>"
p146
sS'date'
p147
S'Fri Jan 27 08:17:52 2012'
p148
sS'locals'
p149
(dp150
S'sock_file'
p151
S'<socket._fileobject object at 0x037D5EF0>'
p152
sS'self'
p153
S'<WSGIWorker(Thread-13, started daemon)>'
p154
sssS'traceback'
p155
S'Traceback (most recent call last):\n  File "D:\\Dropbox\\Eclipse\\JRMSiteApp\\web2py\\gluon\\rocket.py", line 1302, in run\n    self.run_app(conn)\n  File "D:\\Dropbox\\Eclipse\\JRMSiteApp\\web2py\\gluon\\rocket.py", line 1986, in run_app\n    self.environ = environ = self.build_environ(sock_file, conn)\n  File "D:\\Dropbox\\Eclipse\\JRMSiteApp\\web2py\\gluon\\rocket.py", line 1807, in build_environ\n    request = self.read_request_line(sock_file)\n  File "D:\\Dropbox\\Eclipse\\JRMSiteApp\\web2py\\gluon\\rocket.py", line 1376, in read_request_line\n    raise SocketTimeout("Socket timed out before request.")\nSocketTimeout: Socket timed out before request.\n'
p156
s.