(dp1
S'output'
p2
S'The "end" tag is unmatched, please check if you have a starting "block" tag'
p3
sS'layer'
p4
S"'layout.html'"
p5
sS'code'
p6
S'<!DOCTYPE html>\n<html lang="{{=T.accepted_language or \'en\'}}" class="no-js"><!-- no-js need it for modernzr -->\n  <head>\n    \n    <meta charset="utf-8" />        \n    <!-- www.phpied.com/conditional-comments-block-downloads/ -->\n    <!--[if IE]>\n      <!-- Always force latest IE rendering engine \n       (even in intranet) & Chrome Frame \n       Remove this if you use the .htaccess -->\n      <meta http-equiv="X-UA-Compatible" content="IE=edge,chrome=1">\n    <![endif]-->    \n\n    <title>{{=response.title or request.application}}</title>\n    \n    <!-- http://dev.w3.org/html5/markup/meta.name.html -->\n    <meta name="application-name" content="{{=request.application}}" /> \n    \n    <!-- Speaking of Google, don\'t forget to set your site up: \n     http://google.com/webmasters -->\n    <meta name="google-site-verification" content="" />\n    \n    <!--  Mobile Viewport Fix\n      j.mp/mobileviewport & davidbcalhoun.com/2010/viewport-metatag \n      device-width: Occupy full width of the screen in its current orientation\n      initial-scale = 1.0 retains dimensions instead of zooming out if page height > device height\n      maximum-scale = 1.0 retains dimensions instead of zooming in if page width < device width\n      -->\n    <meta name="viewport" content="width=device-width, initial-scale=1.0, maximum-scale=1.0">\n    \n    <!-- Place favicon.ico and apple-touch-icon.png in the root of your domain and delete these references -->\n    <link rel="shortcut icon" href="{{=URL(\'static\',\'favicon.ico\')}}" type="image/x-icon">\n    <link rel="apple-touch-icon" href="{{=URL(\'static\',\'favicon.png\')}}">\n\n    <!-- For the less-enabled mobile browsers like Opera Mini -->\n    <link rel="stylesheet" media="handheld" href="{{=URL(\'static\',\'css/handheld.css\')}}">\n    \n    <!-- All JavaScript at the bottom, except for Modernizr which enables HTML5 elements & feature detects -->\n    <script src="{{=URL(\'static\',\'js/modernizr-1.7.min.js\')}}"></script>\n    \n    {{#------  require CSS and JS files for this page (read info in base.css) ------}}\n    {{response.files.append(URL(\'static\',\'css/base.css\'))}}\n    {{response.files.append(URL(\'static\',\'css/superfish.css\'))}}\n    {{response.files.append(URL(\'static\',\'js/superfish.js\'))}}\n    {{#------ include web2py specific js code (jquery, calendar, form stuff) ------}}\n    {{include \'web2py_ajax.html\'}}\n\n    {{\n    #using sidebars need to know what sidebar you want to use\n    #prior of using it, because of static width size of content, you can use\n    #left_sidebar, right_sidebar, both or none (False left and right)    \n    left_sidebar_enabled = globals().get(\'left_sidebar_enabled\',False)\n    right_sidebar_enabled = globals().get(\'right_sidebar_enabled\',False)\n    if left_sidebar_enabled and right_sidebar_enabled: width_content=\'63%\'\n    elif left_sidebar_enabled != right_sidebar_enabled: width_content=\'740px\'\n    else: width_content=\'100%\'\n    if left_sidebar_enabled: left_sidebar_style = \'style="display: block;"\'\n    else: left_sidebar_style = \'style="display: none;"\'\n    if right_sidebar_enabled: right_sidebar_style = \'style="display: block;"\'\n    else: right_sidebar_style = \'style="display: none;"\'\n    style_content = \'style="width: %s"\' % width_content\n    }}\n    \n    <!-- uncomment here to load jquery-ui -->\n    \n    <link rel="stylesheet" href="http://ajax.googleapis.com/ajax/libs/jqueryui/1.8.16/themes/base/jquery-ui.css" type="text/css" media="all" />\n    <script src="http://ajax.googleapis.com/ajax/libs/jqueryui/1.8.16/jquery-ui.min.js" type="text/javascript"></script>\n    \n   <!-- uncomment to load jquery-ui -->\n    \n    \n  </head>\n  \n  <!-- paulirish.com/2008/conditional-stylesheets-vs-css-hacks-answer-neither/ -->  \n  <!--[if lt IE 7 ]> <body class="ie6"> <![endif]-->\n  <!--[if IE 7 ]>    <body class="ie7"> <![endif]-->\n  <!--[if IE 8 ]>    <body class="ie8"> <![endif]-->\n  <!--[if IE 9 ]>    <body class="ie9"> <![endif]-->\n  <!--[if (gt IE 9)|!(IE)]><!--> <body> <!--<![endif]-->\n    \n    <div class="flash">{{=response.flash or \'\'}}</div> <!-- notification div -->\n\n        \n\n    <div id="container">                        \n      \n      <div id="wrapper">        \n      {{try:}}{{=auth.navbar(action=URL(\'default\',\'user\'))}}{{except:pass}}\n    \n    <div id="header"> <!-- header and login nav -->\n      {{block header}} <!-- this is default header -->\n      \n      <h1>\n        <span id="appname">{{=request.application.capitalize()}}</span>App\n      </h1>\n      <div style="clear: both;"></div><!-- Clear the divs -->\n      {{end}}\n    </div><!-- header  -->\n    \n    <div id="statusbar"><!-- statusbar is menu zone -->\n      {{block statusbar}} <!-- this is default statusbar -->\n      {{#------ superfish menu ------}}\n      {{=MENU(response.menu,_class=\'sf-menu\')}}\n      <script type="text/javascript">\n        jQuery(document).ready(function(){\n        jQuery(\'ul.sf-menu\').superfish();});\n      </script>\n\n      <!-- AddToAny BEGIN -->\n      <div style="padding: 7px; float:right;" class="a2a_kit a2a_default_style"><a class="a2a_dd" href="http://www.addtoany.com/share_save">Share</a></div><script type="text/javascript" src="http://static.addtoany.com/menu/page.js"></script>\n      <!-- AddToAny END -->\n\n      <div style="clear: both;"></div><!-- Clear the divs -->   \n      {{end}}               \n    </div><!-- statusbar -->\n    \n    <div id="page"> <!-- Here my central body -->     \n\n      {{if left_sidebar_enabled:}}\n          <div id="left_sidebar" {{=XML(left_sidebar_style)}} >\n            <div style="padding: 4px;">\n          {{block left_sidebar}}Content Left Sidebar{{end}}       \n            </div>\n          </div><!-- left_sidebar -->\n      {{pass}}\n\n      <!-- content -->\n      <div id="content" {{=XML(style_content)}} >\n        {{include}} \n      </div>\n      <!-- content -->\n\n      {{if right_sidebar_enabled:}}\n          <div id="right_sidebar" {{=XML(right_sidebar_style)}} >\n            <div style="padding: 4px;">\n              {{block right_sidebar}}Content Right Sidebar{{end}}\n            </div>\n      </div><!-- right_sidebar -->\n          {{pass}}\n\n\n      <div style="clear: both;"></div><!-- Clear the divs -->\n      \n    </div><!-- page -->                         \n    \n    <div id="footer">\n      {{=T(\'Copyright\')}} &#169; 2011               \n      <div style="clear: both;"></div><!-- Clear the divs -->\n      {{end}}\n\n    </div><!-- footer -->           \n      </div><!-- wrapper -->\n    </div><!-- container -->        \n    \n    <!--[if lt IE 7 ]>\n    <script src="{{=URL(\'static\',\'js/dd_belatedpng.js\')}}"></script>\n    <script> DD_belatedPNG.fix(\'img, .png_bg\'); //fix any <img> or .png_bg background-images </script>\n    <![endif]-->\n    {{if response.google_analytics_id:}}<script>/* http://mathiasbynens.be/notes/async-analytics-snippet */ var _gaq=[[\'_setAccount\',\'{{=response.google_analyitics_id}}\'],[\'_trackPageview\']];(function(d,t){var g=d.createElement(t),s=d.getElementsByTagName(t)[0];g.src=\'//www.google-analytics.com/ga.js\';s.parentNode.insertBefore(g,s)}(document,\'script\')) </script>{{pass}}\n  </body>\n</html>\n'
p7
sS'snapshot'
p8
(dp9
sS'traceback'
p10
S'None\n'
p11
s.