(dp1
S'output'
p2
S''
sS'layer'
p3
S'D:\\Dropbox\\Eclipse\\OJDevSourceProject\\project\\web2py\\applications\\admin\\controllers/default.py'
p4
sS'code'
p5
S'# coding: utf8\n\nfrom gluon.admin import *\nfrom gluon.fileutils import abspath, read_file, write_file\nfrom glob import glob\nimport shutil\nimport platform\n\nif DEMO_MODE and request.function in [\'change_password\',\'pack\',\'pack_plugin\',\'upgrade_web2py\',\'uninstall\',\'cleanup\',\'compile_app\',\'remove_compiled_app\',\'delete\',\'delete_plugin\',\'create_file\',\'upload_file\',\'update_languages\',\'reload_routes\']:\n    session.flash = T(\'disabled in demo mode\')\n    redirect(URL(\'site\'))\n\nif not is_manager() and request.function in [\'change_password\',\'upgrade_web2py\']:\n    session.flash = T(\'disabled in multi user mode\')\n    redirect(URL(\'site\'))\n\nif FILTER_APPS and request.args(0) and not request.args(0) in FILTER_APPS:\n    session.flash = T(\'disabled in demo mode\')\n    redirect(URL(\'site\'))\n\ndef safe_open(a,b):\n    if DEMO_MODE and \'w\' in b:\n        class tmp:\n            def write(self,data): pass\n        return tmp()\n    return open(a,b)\n\ndef safe_read(a, b=\'r\'):\n    safe_file = safe_open(a, b)\n    try:\n        return safe_file.read()\n    finally:\n        safe_file.close()\n\ndef safe_write(a, value, b=\'w\'):\n    safe_file = safe_open(a, b)\n    try:\n        safe_file.write(value)\n    finally:\n        safe_file.close()\n\ndef get_app(name=None):\n    app = name or request.args(0)\n    if app and (not MULTI_USER_MODE or db(db.app.name==app)(db.app.owner==auth.user.id).count()):\n        return app\n    session.flash = \'App does not exist or your are not authorized\'\n    redirect(URL(\'site\'))\n\ndef index():\n    """ Index handler """\n\n    send = request.vars.send\n    if DEMO_MODE:\n        session.authorized = True\n        session.last_time = t0\n    if not send:\n        send = URL(\'site\')\n    if session.authorized:\n        redirect(send)\n    elif request.vars.password:\n        if verify_password(request.vars.password):\n            session.authorized = True\n            login_record(True)\n\n            if CHECK_VERSION:\n                session.check_version = True\n            else:\n                session.check_version = False\n\n            session.last_time = t0\n            if isinstance(send, list):  # ## why does this happen?\n                send = str(send[0])\n\n            redirect(send)\n        else:\n            times_denied = login_record(False)\n            if times_denied >= allowed_number_of_attempts:\n                response.flash = \\\n                    T(\'admin disabled because too many invalid login attempts\')\n            elif times_denied == allowed_number_of_attempts - 1:\n                response.flash = \\\n                    T(\'You have one more login attempt before you are locked out\')\n            else:\n                response.flash = T(\'invalid password.\')\n    return dict(send=send)\n\n\ndef check_version():\n    """ Checks if web2py is up to date """\n\n    session.forget()\n    session._unlock(response)\n\n    new_version, version_number = check_new_version(request.env.web2py_version,\n                                    WEB2PY_VERSION_URL)\n\n    if new_version == -1:\n        return A(T(\'Unable to check for upgrades\'), _href=WEB2PY_URL)\n    elif new_version != True:\n        return A(T(\'web2py is up to date\'), _href=WEB2PY_URL)\n    elif platform.system().lower() in (\'windows\',\'win32\',\'win64\') and os.path.exists("web2py.exe"):\n        return SPAN(\'You should upgrade to version %s\' % version_number)\n    else:\n        return sp_button(URL(\'upgrade_web2py\'), T(\'upgrade now\')) \\\n          + XML(\' <strong class="upgrade_version">%s</strong>\' % version_number)\n\n\ndef logout():\n    """ Logout handler """\n    session.authorized = None\n    if MULTI_USER_MODE:\n        redirect(URL(\'user/logout\'))\n    redirect(URL(\'index\'))\n\n\ndef change_password():\n\n    if session.pam_user:\n        session.flash = T(\'PAM authenticated user, cannot change password here\')\n        redirect(URL(\'site\'))\n    form=SQLFORM.factory(Field(\'current_admin_password\',\'password\'),\n                         Field(\'new_admin_password\',\'password\',requires=IS_STRONG()),\n                         Field(\'new_admin_password_again\',\'password\'))\n    if form.accepts(request.vars):\n        if not verify_password(request.vars.current_admin_password):\n            form.errors.current_admin_password = T(\'invalid password\')\n        elif form.vars.new_admin_password != form.vars.new_admin_password_again:\n            form.errors.new_admin_password_again = T(\'no match\')\n        else:\n            path = abspath(\'parameters_%s.py\' % request.env.server_port)\n            safe_write(path, \'password="%s"\' % CRYPT()(request.vars.new_admin_password)[0])\n            session.flash = T(\'password changed\')\n            redirect(URL(\'site\'))\n    return dict(form=form)\n\ndef site():\n    """ Site handler """\n\n    myversion = request.env.web2py_version\n\n    # Shortcut to make the elif statements more legible\n    file_or_appurl = \'file\' in request.vars or \'appurl\' in request.vars\n\n    if DEMO_MODE:\n        pass\n\n    elif request.vars.filename and not \'file\' in request.vars:\n        # create a new application\n        appname = cleanpath(request.vars.filename).replace(\'.\', \'_\')\n        if app_create(appname, request):\n            if MULTI_USER_MODE:\n                db.app.insert(name=appname,owner=auth.user.id)\n            session.flash = T(\'new application "%s" created\', appname)\n            redirect(URL(\'design\',args=appname))\n        else:\n            session.flash = \\\n                T(\'unable to create application "%s" (it may exist already)\', request.vars.filename)\n        redirect(URL(r=request))\n\n    elif file_or_appurl and not request.vars.filename:\n        # can\'t do anything without an app name\n        msg = \'you must specify a name for the uploaded application\'\n        response.flash = T(msg)\n\n    elif file_or_appurl and request.vars.filename:\n        # fetch an application via URL or file upload\n        f = None\n        if request.vars.appurl is not \'\':\n            try:\n                f = urllib.urlopen(request.vars.appurl)\n            except Exception, e:\n                session.flash = DIV(T(\'Unable to download app because:\'),PRE(str(e)))\n                redirect(URL(r=request))\n            fname = request.vars.appurl\n        elif request.vars.file is not \'\':\n            f = request.vars.file.file\n            fname = request.vars.file.filename\n\n        if f:\n            appname = cleanpath(request.vars.filename).replace(\'.\', \'_\')\n            installed = app_install(appname, f, request, fname,\n                                    overwrite=request.vars.overwrite_check)\n        if f and installed:\n            msg = \'application %(appname)s installed with md5sum: %(digest)s\'\n            session.flash = T(msg, dict(appname=appname,\n                                        digest=md5_hash(installed)))\n        elif f and request.vars.overwrite_check:\n            msg = \'unable to install application "%(appname)s"\'\n            session.flash = T(msg, dict(appname=request.vars.filename))\n\n        else:\n            msg = \'unable to install application "%(appname)s"\'\n            session.flash = T(msg, dict(appname=request.vars.filename))\n\n        redirect(URL(r=request))\n\n    regex = re.compile(\'^\\w+$\')\n\n    if is_manager():\n        apps = [f for f in os.listdir(apath(r=request)) if regex.match(f)]\n    else:\n        apps = [f.name for f in db(db.app.owner==auth.user_id).select()]\n\n    if FILTER_APPS:\n        apps = [f for f in apps if f in FILTER_APPS]\n\n    apps = sorted(apps,lambda a,b:cmp(a.upper(),b.upper()))\n\n    return dict(app=None, apps=apps, myversion=myversion)\n\n\ndef pack():\n    app = get_app()\n\n    if len(request.args) == 1:\n        fname = \'web2py.app.%s.w2p\' % app\n        filename = app_pack(app, request)\n    else:\n        fname = \'web2py.app.%s.compiled.w2p\' % app\n        filename = app_pack_compiled(app, request)\n\n    if filename:\n        response.headers[\'Content-Type\'] = \'application/w2p\'\n        disposition = \'attachment; filename=%s\' % fname\n        response.headers[\'Content-Disposition\'] = disposition\n        return safe_read(filename, \'rb\')\n    else:\n        session.flash = T(\'internal error\')\n        redirect(URL(\'site\'))\n\ndef pack_plugin():\n    app = get_app()\n    if len(request.args) == 2:\n        fname = \'web2py.plugin.%s.w2p\' % request.args[1]\n        filename = plugin_pack(app, request.args[1], request)\n    if filename:\n        response.headers[\'Content-Type\'] = \'application/w2p\'\n        disposition = \'attachment; filename=%s\' % fname\n        response.headers[\'Content-Disposition\'] = disposition\n        return safe_read(filename, \'rb\')\n    else:\n        session.flash = T(\'internal error\')\n        redirect(URL(\'plugin\',args=request.args))\n\ndef upgrade_web2py():\n    if \'upgrade\' in request.vars:\n        (success, error) = upgrade(request)\n        if success:\n            session.flash = T(\'web2py upgraded; please restart it\')\n        else:\n            session.flash = T(\'unable to upgrade because "%s"\', error)\n        redirect(URL(\'site\'))\n    elif \'noupgrade\' in request.vars:\n        redirect(URL(\'site\'))\n    return dict()\n\ndef uninstall():\n    app = get_app()\n    if \'delete\' in request.vars:\n        if MULTI_USER_MODE:\n            if is_manager() and db(db.app.name==app).delete():\n                pass\n            elif db(db.app.name==app)(db.app.owner==auth.user.id).delete():\n                pass\n            else:\n                session.flash = T(\'no permission to uninstall "%s"\', app)\n                redirect(URL(\'site\'))\n        if app_uninstall(app, request):            \n            session.flash = T(\'application "%s" uninstalled\', app)\n        else:\n            session.flash = T(\'unable to uninstall "%s"\', app)\n        redirect(URL(\'site\'))\n    elif \'nodelete\' in request.vars:\n        redirect(URL(\'site\'))\n    return dict(app=app)\n\n\ndef cleanup():\n    app = get_app()\n    clean = app_cleanup(app, request)\n    if not clean:\n        session.flash = T("some files could not be removed")\n    else:\n        session.flash = T(\'cache, errors and sessions cleaned\')\n\n    redirect(URL(\'site\'))\n\n\ndef compile_app():\n    app = get_app()\n    c = app_compile(app, request)\n    if not c:\n        session.flash = T(\'application compiled\')\n    else:\n        session.flash = DIV(T(\'Cannot compile: there are errors in your app:\'),\n                              CODE(c))\n    redirect(URL(\'site\'))\n\n\ndef remove_compiled_app():\n    """ Remove the compiled application """\n    app = get_app()\n    remove_compiled_application(apath(app, r=request))\n    session.flash = T(\'compiled application removed\')\n    redirect(URL(\'site\'))\n\ndef delete():\n    """ Object delete handler """\n    app = get_app()\n    filename = \'/\'.join(request.args)\n    sender = request.vars.sender\n\n    if isinstance(sender, list):  # ## fix a problem with Vista\n        sender = sender[0]\n\n    if \'nodelete\' in request.vars:\n        redirect(URL(sender))\n    elif \'delete\' in request.vars:\n        try:\n            os.unlink(apath(filename, r=request))\n            session.flash = T(\'file "%(filename)s" deleted\',\n                              dict(filename=filename))\n        except Exception:\n            session.flash = T(\'unable to delete file "%(filename)s"\',\n                              dict(filename=filename))\n        redirect(URL(sender))\n    return dict(filename=filename, sender=sender)\n\ndef peek():\n    """ Visualize object code """\n    app = get_app()\n    filename = \'/\'.join(request.args)\n    try:\n        data = safe_read(apath(filename, r=request)).replace(\'\\r\',\'\')\n    except IOError:\n        session.flash = T(\'file does not exist\')\n        redirect(URL(\'site\'))\n\n    extension = filename[filename.rfind(\'.\') + 1:].lower()\n\n    return dict(app=request.args[0],\n                filename=filename,\n                data=data,\n                extension=extension)\n\n\ndef test():\n    """ Execute controller tests """\n    app = get_app()\n    if len(request.args) > 1:\n        file = request.args[1]\n    else:\n        file = \'.*\\.py\'\n\n    controllers = listdir(apath(\'%s/controllers/\' % app, r=request), file + \'$\')\n\n    return dict(app=app, controllers=controllers)\n\ndef keepalive():\n    return \'\'\n\ndef search():\n    keywords=request.vars.keywords or \'\'\n    app = get_app()\n    def match(filename,keywords):\n        filename=os.path.join(apath(app, r=request),filename)\n        if keywords in read_file(filename,\'rb\'):\n            return True\n        return False\n    path = apath(request.args[0], r=request)\n    files1 = glob(os.path.join(path,\'*/*.py\'))\n    files2 = glob(os.path.join(path,\'*/*.html\'))\n    files3 = glob(os.path.join(path,\'*/*/*.html\'))\n    files=[x[len(path)+1:].replace(\'\\\\\',\'/\') for x in files1+files2+files3 if match(x,keywords)]\n    return response.json({\'files\':files})\n\ndef edit():\n    """ File edit handler """\n    # Load json only if it is ajax edited...\n    app = get_app()\n    filename = \'/\'.join(request.args)\n    # Try to discover the file type\n    if filename[-3:] == \'.py\':\n        filetype = \'python\'\n    elif filename[-5:] == \'.html\':\n        filetype = \'html\'\n    elif filename[-5:] == \'.load\':\n        filetype = \'html\'\n    elif filename[-4:] == \'.css\':\n        filetype = \'css\'\n    elif filename[-3:] == \'.js\':\n        filetype = \'js\'\n    else:\n        filetype = \'html\'\n\n    # ## check if file is not there\n\n    path = apath(filename, r=request)\n\n    if request.vars.revert and os.path.exists(path + \'.bak\'):\n        try:\n            data = safe_read(path + \'.bak\')\n            data1 = safe_read(path)\n        except IOError:\n            session.flash = T(\'Invalid action\')\n            if \'from_ajax\' in request.vars:\n                 return response.json({\'error\': str(T(\'Invalid action\'))})\n            else:\n                redirect(URL(\'site\'))\n\n        safe_write(path, data)\n        file_hash = md5_hash(data)\n        saved_on = time.ctime(os.stat(path)[stat.ST_MTIME])\n        safe_write(path + \'.bak\', data1)\n        response.flash = T(\'file "%s" of %s restored\', (filename, saved_on))\n    else:\n        try:\n            data = safe_read(path)\n        except IOError:\n            session.flash = T(\'Invalid action\')\n            if \'from_ajax\' in request.vars:\n                return response.json({\'error\': str(T(\'Invalid action\'))})\n            else:\n                redirect(URL(\'site\'))\n\n        file_hash = md5_hash(data)\n        saved_on = time.ctime(os.stat(path)[stat.ST_MTIME])\n\n        if request.vars.file_hash and request.vars.file_hash != file_hash:\n            session.flash = T(\'file changed on disk\')\n            data = request.vars.data.replace(\'\\r\\n\', \'\\n\').strip() + \'\\n\'\n            safe_write(path + \'.1\', data)\n            if \'from_ajax\' in request.vars:\n                return response.json({\'error\': str(T(\'file changed on disk\')),\n                                      \'redirect\': URL(\'resolve\',\n                                                      args=request.args)})\n            else:\n                redirect(URL(\'resolve\', args=request.args))\n        elif request.vars.data:\n            safe_write(path + \'.bak\', data)\n            data = request.vars.data.replace(\'\\r\\n\', \'\\n\').strip() + \'\\n\'\n            safe_write(path, data)\n            file_hash = md5_hash(data)\n            saved_on = time.ctime(os.stat(path)[stat.ST_MTIME])\n            response.flash = T(\'file saved on %s\', saved_on)\n\n    data_or_revert = (request.vars.data or request.vars.revert)\n\n    # Check compile errors\n    highlight = None\n    if filetype == \'python\' and request.vars.data:\n        import _ast\n        try:\n            code = request.vars.data.rstrip().replace(\'\\r\\n\',\'\\n\')+\'\\n\'\n            compile(code, path, "exec", _ast.PyCF_ONLY_AST)\n        except Exception, e:\n            start = sum([len(line)+1 for l, line\n                            in enumerate(request.vars.data.split("\\n"))\n                            if l < e.lineno-1])\n            if e.text and e.offset:\n                offset = e.offset - (len(e.text) - len(e.text.splitlines()[-1]))\n            else:\n                offset = 0\n            highlight = {\'start\': start, \'end\': start + offset + 1}\n            try:\n                ex_name = e.__class__.__name__\n            except:\n                ex_name = \'unknown exception!\'\n            response.flash = DIV(T(\'failed to compile file because:\'), BR(),\n                                 B(ex_name), T(\' at line %s\') % e.lineno,\n                                 offset and T(\' at char %s\') % offset or \'\',\n                                 PRE(str(e)))\n\n    if data_or_revert and request.args[1] == \'modules\':\n        # Lets try to reload the modules\n        try:\n            mopath = \'.\'.join(request.args[2:])[:-3]\n            exec \'import applications.%s.modules.%s\' % (request.args[0], mopath)\n            reload(sys.modules[\'applications.%s.modules.%s\'\n                    % (request.args[0], mopath)])\n        except Exception, e:\n            response.flash = DIV(T(\'failed to reload module because:\'),PRE(str(e)))\n\n    edit_controller = None\n    editviewlinks = None\n    view_link = None\n    if filetype == \'html\' and len(request.args) >= 3:\n        cfilename = os.path.join(request.args[0], \'controllers\',\n                                 request.args[2] + \'.py\')\n        if os.path.exists(apath(cfilename, r=request)):\n            edit_controller = URL(\'edit\', args=[cfilename])\n            view = request.args[3].replace(\'.html\',\'\')\n            view_link = URL(request.args[0],request.args[2],view)\n    elif filetype == \'python\' and request.args[1] == \'controllers\':\n        ## it\'s a controller file.\n        ## Create links to all of the associated view files.\n        app = get_app()\n        viewname = os.path.splitext(request.args[2])[0]\n        viewpath = os.path.join(app,\'views\',viewname)\n        aviewpath = apath(viewpath, r=request)\n        viewlist = []\n        if os.path.exists(aviewpath):\n            if os.path.isdir(aviewpath):\n                viewlist = glob(os.path.join(aviewpath,\'*.html\'))\n        elif os.path.exists(aviewpath+\'.html\'):\n            viewlist.append(aviewpath+\'.html\')\n        if len(viewlist):\n            editviewlinks = []\n            for v in viewlist:\n                vf = os.path.split(v)[-1]\n                vargs = "/".join([viewpath.replace(os.sep,"/"),vf])\n                editviewlinks.append(A(T(vf.split(".")[0]),\\\n                    _href=URL(\'edit\',args=[vargs])))\n\n    if len(request.args) > 2 and request.args[1] == \'controllers\':\n        controller = (request.args[2])[:-3]\n        functions = regex_expose.findall(data)\n    else:\n        (controller, functions) = (None, None)\n\n    if \'from_ajax\' in request.vars:\n        return response.json({\'file_hash\': file_hash, \'saved_on\': saved_on, \'functions\':functions, \'controller\': controller, \'application\': request.args[0], \'highlight\': highlight })\n    else:\n\n        editarea_preferences = {}\n        editarea_preferences[\'FONT_SIZE\'] = \'10\'\n        editarea_preferences[\'FULL_SCREEN\'] = \'false\'\n        editarea_preferences[\'ALLOW_TOGGLE\'] = \'true\'\n        editarea_preferences[\'REPLACE_TAB_BY_SPACES\'] = \'4\'\n        editarea_preferences[\'DISPLAY\'] = \'onload\'\n        for key in editarea_preferences:\n            if globals().has_key(key):\n                editarea_preferences[key]=globals()[key]\n        return dict(app=request.args[0],\n                    filename=filename,\n                    filetype=filetype,\n                    data=data,\n                    edit_controller=edit_controller,\n                    file_hash=file_hash,\n                    saved_on=saved_on,\n                    controller=controller,\n                    functions=functions,\n                    view_link=view_link,\n                    editarea_preferences=editarea_preferences,\n                    editviewlinks=editviewlinks)\n\ndef resolve():\n    """\n    """\n\n    filename = \'/\'.join(request.args)\n    # ## check if file is not there\n    path = apath(filename, r=request)\n    a = safe_read(path).split(\'\\n\')\n    try:\n        b = safe_read(path + \'.1\').split(\'\\n\')\n    except IOError:\n        session.flash = \'Other file, no longer there\'\n        redirect(URL(\'edit\', args=request.args))\n\n    d = difflib.ndiff(a, b)\n\n    def leading(line):\n        """  """\n\n        # TODO: we really need to comment this\n        z = \'\'\n        for (k, c) in enumerate(line):\n            if c == \' \':\n                z += \'&nbsp;\'\n            elif c == \' \\t\':\n                z += \'&nbsp;\'\n            elif k == 0 and c == \'?\':\n                pass\n            else:\n                break\n\n        return XML(z)\n\n    def getclass(item):\n        """ Determine item class """\n\n        if item[0] == \' \':\n            return \'normal\'\n        if item[0] == \'+\':\n            return \'plus\'\n        if item[0] == \'-\':\n            return \'minus\'\n\n    if request.vars:\n        c = \'\\n\'.join([item[2:].rstrip() for (i, item) in enumerate(d) if item[0] \\\n                           == \' \' or \'line%i\' % i in request.vars])\n        safe_write(path, c)\n        session.flash = \'files merged\'\n        redirect(URL(\'edit\', args=request.args))\n    else:\n        # Making the short circuit compatible with <= python2.4\n        gen_data = lambda index,item: not item[:1] in [\'+\',\'-\'] and "" \\\n                   or INPUT(_type=\'checkbox\',\n                            _name=\'line%i\' % index,\n                            value=item[0] == \'+\')\n\n        diff = TABLE(*[TR(TD(gen_data(i,item)),\n                          TD(item[0]),\n                          TD(leading(item[2:]),\n                          TT(item[2:].rstrip())), _class=getclass(item))\n                       for (i, item) in enumerate(d) if item[0] != \'?\'])\n\n    return dict(diff=diff, filename=filename)\n\n\ndef edit_language():\n    """ Edit language file """\n    app = get_app()\n    filename = \'/\'.join(request.args)\n    from gluon.languages import read_dict, write_dict\n    strings = read_dict(apath(filename, r=request))\n    keys = sorted(strings.keys(),lambda x,y: cmp(x.lower(), y.lower()))\n    rows = []\n    rows.append(H2(T(\'Original/Translation\')))\n\n    for key in keys:\n        name = md5_hash(key)\n        if key==strings[key]:\n            _class=\'untranslated\'\n        else:\n            _class=\'translated\'\n        if len(key) <= 40:\n            elem = INPUT(_type=\'text\', _name=name,value=strings[key],\n                         _size=70,_class=_class)\n        else:\n            elem = TEXTAREA(_name=name, value=strings[key], _cols=70,\n                            _rows=5, _class=_class)\n\n        # Making the short circuit compatible with <= python2.4\n        k = (strings[key] != key) and key or B(key)\n\n        rows.append(P(k, BR(), elem, TAG.BUTTON(T(\'delete\'),\n                            _onclick=\'return delkey("%s")\' % name), _id=name))\n\n    rows.append(INPUT(_type=\'submit\', _value=T(\'update\')))\n    form = FORM(*rows)\n    if form.accepts(request.vars, keepvalues=True):\n        strs = dict()\n        for key in keys:\n            name = md5_hash(key)\n            if form.vars[name]==chr(127): continue\n            strs[key] = form.vars[name]\n        write_dict(apath(filename, r=request), strs)\n        session.flash = T(\'file saved on %(time)s\', dict(time=time.ctime()))\n        redirect(URL(r=request,args=request.args))\n    return dict(app=request.args[0], filename=filename, form=form)\n\n\ndef about():\n    """ Read about info """\n    app = get_app()\n    # ## check if file is not there\n    about = safe_read(apath(\'%s/ABOUT\' % app, r=request))\n    license = safe_read(apath(\'%s/LICENSE\' % app, r=request))\n    return dict(app=app, about=MARKMIN(about), license=MARKMIN(license))\n\n\ndef design():\n    """ Application design handler """\n    app = get_app()\n\n    if not response.flash and app == request.application:\n        msg = T(\'ATTENTION: you cannot edit the running application!\')\n        response.flash = msg\n\n    if request.vars.pluginfile!=None and not isinstance(request.vars.pluginfile,str):\n        filename=os.path.basename(request.vars.pluginfile.filename)\n        if plugin_install(app, request.vars.pluginfile.file,\n                          request, filename):\n            session.flash = T(\'new plugin installed\')\n            redirect(URL(\'design\',args=app))\n        else:\n            session.flash = \\\n                T(\'unable to create application "%s"\', request.vars.filename)\n        redirect(URL(r=request))\n    elif isinstance(request.vars.pluginfile,str):\n        session.flash = T(\'plugin not specified\')\n        redirect(URL(r=request))\n\n\n    # If we have only pyc files it means that\n    # we cannot design\n    if os.path.exists(apath(\'%s/compiled\' % app, r=request)):\n        session.flash = \\\n            T(\'application is compiled and cannot be designed\')\n        redirect(URL(\'site\'))\n\n    # Get all models\n    models = listdir(apath(\'%s/models/\' % app, r=request), \'.*\\.py$\')\n    models=[x.replace(\'\\\\\',\'/\') for x in models]\n    defines = {}\n    for m in models:\n        data = safe_read(apath(\'%s/models/%s\' % (app, m), r=request))\n        defines[m] = regex_tables.findall(data)\n        defines[m].sort()\n\n    # Get all controllers\n    controllers = sorted(listdir(apath(\'%s/controllers/\' % app, r=request), \'.*\\.py$\'))\n    controllers = [x.replace(\'\\\\\',\'/\') for x in controllers]\n    functions = {}\n    for c in controllers:\n        data = safe_read(apath(\'%s/controllers/%s\' % (app, c), r=request))\n        items = regex_expose.findall(data)\n        functions[c] = items\n\n    # Get all views\n    views = sorted(listdir(apath(\'%s/views/\' % app, r=request), \'[\\w/\\-]+(\\.\\w+)+$\'))\n    views = [x.replace(\'\\\\\',\'/\') for x in views if not x.endswith(\'.bak\')]\n    extend = {}\n    include = {}\n    for c in views:\n        data = safe_read(apath(\'%s/views/%s\' % (app, c), r=request))\n        items = regex_extend.findall(data)\n\n        if items:\n            extend[c] = items[0][1]\n\n        items = regex_include.findall(data)\n        include[c] = [i[1] for i in items]\n\n    # Get all modules\n    modules = listdir(apath(\'%s/modules/\' % app, r=request), \'.*\\.py$\')\n    modules = modules=[x.replace(\'\\\\\',\'/\') for x in modules]\n    modules.sort()\n\n    # Get all static files\n    statics = listdir(apath(\'%s/static/\' % app, r=request), \'[^\\.#].*\')\n    statics = [x.replace(\'\\\\\',\'/\') for x in statics]\n    statics.sort()\n\n    # Get all languages\n    languages = listdir(apath(\'%s/languages/\' % app, r=request), \'[\\w-]*\\.py\')\n\n    #Get crontab\n    cronfolder = apath(\'%s/cron\' % app, r=request)\n    if not os.path.exists(cronfolder): os.mkdir(cronfolder)\n    crontab = apath(\'%s/cron/crontab\' % app, r=request)\n    if not os.path.exists(crontab):\n        safe_write(crontab, \'#crontab\')\n\n    plugins=[]\n    def filter_plugins(items,plugins):\n        plugins+=[item[7:].split(\'/\')[0].split(\'.\')[0] for item in items if item.startswith(\'plugin_\')]\n        plugins[:]=list(set(plugins))\n        plugins.sort()\n        return [item for item in items if not item.startswith(\'plugin_\')]\n\n    return dict(app=app,\n                models=filter_plugins(models,plugins),\n                defines=defines,\n                controllers=filter_plugins(controllers,plugins),\n                functions=functions,\n                views=filter_plugins(views,plugins),\n                modules=filter_plugins(modules,plugins),\n                extend=extend,\n                include=include,\n                statics=filter_plugins(statics,plugins),\n                languages=languages,\n                crontab=crontab,\n                plugins=plugins)\n\ndef delete_plugin():\n    """ Object delete handler """\n    app=request.args(0)\n    plugin = request.args(1)\n    plugin_name=\'plugin_\'+plugin\n    if \'nodelete\' in request.vars:\n        redirect(URL(\'design\',args=app))\n    elif \'delete\' in request.vars:\n        try:\n            for folder in [\'models\',\'views\',\'controllers\',\'static\',\'modules\']:\n                path=os.path.join(apath(app,r=request),folder)\n                for item in os.listdir(path):\n                    if item.startswith(plugin_name):\n                        filename=os.path.join(path,item)\n                        if os.path.isdir(filename):\n                            shutil.rmtree(filename)\n                        else:\n                            os.unlink(filename)\n            session.flash = T(\'plugin "%(plugin)s" deleted\',\n                              dict(plugin=plugin))\n        except Exception:\n            session.flash = T(\'unable to delete file plugin "%(plugin)s"\',\n                              dict(plugin=plugin))\n        redirect(URL(\'design\',args=request.args(0)))\n    return dict(plugin=plugin)\n\ndef plugin():\n    """ Application design handler """\n    app = get_app()\n    plugin = request.args(1)\n\n    if not response.flash and app == request.application:\n        msg = T(\'ATTENTION: you cannot edit the running application!\')\n        response.flash = msg\n\n    # If we have only pyc files it means that\n    # we cannot design\n    if os.path.exists(apath(\'%s/compiled\' % app, r=request)):\n        session.flash = \\\n            T(\'application is compiled and cannot be designed\')\n        redirect(URL(\'site\'))\n\n    # Get all models\n    models = listdir(apath(\'%s/models/\' % app, r=request), \'.*\\.py$\')\n    models=[x.replace(\'\\\\\',\'/\') for x in models]\n    defines = {}\n    for m in models:\n        data = safe_read(apath(\'%s/models/%s\' % (app, m), r=request))\n        defines[m] = regex_tables.findall(data)\n        defines[m].sort()\n\n    # Get all controllers\n    controllers = sorted(listdir(apath(\'%s/controllers/\' % app, r=request), \'.*\\.py$\'))\n    controllers = [x.replace(\'\\\\\',\'/\') for x in controllers]\n    functions = {}\n    for c in controllers:\n        data = safe_read(apath(\'%s/controllers/%s\' % (app, c), r=request))\n        items = regex_expose.findall(data)\n        functions[c] = items\n\n    # Get all views\n    views = sorted(listdir(apath(\'%s/views/\' % app, r=request), \'[\\w/\\-]+\\.\\w+$\'))\n    views = [x.replace(\'\\\\\',\'/\') for x in views]\n    extend = {}\n    include = {}\n    for c in views:\n        data = safe_read(apath(\'%s/views/%s\' % (app, c), r=request))\n        items = regex_extend.findall(data)\n        if items:\n            extend[c] = items[0][1]\n\n        items = regex_include.findall(data)\n        include[c] = [i[1] for i in items]\n\n    # Get all modules\n    modules = listdir(apath(\'%s/modules/\' % app, r=request), \'.*\\.py$\')\n    modules = modules=[x.replace(\'\\\\\',\'/\') for x in modules]\n    modules.sort()\n\n    # Get all static files\n    statics = listdir(apath(\'%s/static/\' % app, r=request), \'[^\\.#].*\')\n    statics = [x.replace(\'\\\\\',\'/\') for x in statics]\n    statics.sort()\n\n    # Get all languages\n    languages = listdir(apath(\'%s/languages/\' % app, r=request), \'[\\w-]*\\.py\')\n\n    #Get crontab\n    crontab = apath(\'%s/cron/crontab\' % app, r=request)\n    if not os.path.exists(crontab):\n        safe_write(crontab, \'#crontab\')\n\n    def filter_plugins(items):\n        regex=re.compile(\'^plugin_\'+plugin+\'(/.*|\\..*)?$\')\n        return [item for item in items if regex.match(item)]\n\n    return dict(app=app,\n                models=filter_plugins(models),\n                defines=defines,\n                controllers=filter_plugins(controllers),\n                functions=functions,\n                views=filter_plugins(views),\n                modules=filter_plugins(modules),\n                extend=extend,\n                include=include,\n                statics=filter_plugins(statics),\n                languages=languages,\n                crontab=crontab)\n\n\ndef create_file():\n    """ Create files handler """\n    try:\n        app = get_app(name=request.vars.location.split(\'/\')[0])\n        path = apath(request.vars.location, r=request)\n        filename = re.sub(\'[^\\w./-]+\', \'_\', request.vars.filename)\n\n        if path[-11:] == \'/languages/\':\n            # Handle language files\n            if len(filename) == 0:\n                raise SyntaxError\n            if not filename[-3:] == \'.py\':\n                filename += \'.py\'\n            app = path.split(\'/\')[-3]\n            path=os.path.join(apath(app, r=request),\'languages\',filename)\n            if not os.path.exists(path):\n                safe_write(path, \'\')\n            findT(apath(app, r=request), filename[:-3])\n            session.flash = T(\'language file "%(filename)s" created/updated\',\n                              dict(filename=filename))\n            redirect(request.vars.sender)\n\n        elif path[-8:] == \'/models/\':\n            # Handle python models\n            if not filename[-3:] == \'.py\':\n                filename += \'.py\'\n\n            if len(filename) == 3:\n                raise SyntaxError\n\n            text = \'# coding: utf8\\n\'\n\n        elif path[-13:] == \'/controllers/\':\n            # Handle python controllers\n            if not filename[-3:] == \'.py\':\n                filename += \'.py\'\n\n            if len(filename) == 3:\n                raise SyntaxError\n\n            text = \'# coding: utf8\\n# %s\\ndef index(): return dict(message="hello from %s")\'\n            text = text % (T(\'try something like\'), filename)\n\n        elif path[-7:] == \'/views/\':\n            if request.vars.plugin and not filename.startswith(\'plugin_%s/\' % request.vars.plugin):\n                filename = \'plugin_%s/%s\' % (request.vars.plugin, filename)\n            # Handle template (html) views\n            if filename.find(\'.\')<0:\n                filename += \'.html\'\n            extension = filename.split(\'.\')[-1].lower()\n\n            if len(filename) == 5:\n                raise SyntaxError\n\n            msg = T(\'This is the %(filename)s template\',\n                    dict(filename=filename))            \n            if extension == \'html\':\n                text = dedent("""\n                   {{extend \'layout.html\'}}\n                   <h1>%s</h1>\n                   {{=BEAUTIFY(response._vars)}}""" % msg)\n            else:\n                generic = os.path.join(path,\'generic.\'+extension)\n                if os.path.exists(generic):\n                    text = read_file(generic)\n                else:\n                    text = \'\'\n                \n        elif path[-9:] == \'/modules/\':\n            if request.vars.plugin and not filename.startswith(\'plugin_%s/\' % request.vars.plugin):\n                filename = \'plugin_%s/%s\' % (request.vars.plugin, filename)\n            # Handle python module files\n            if not filename[-3:] == \'.py\':\n                filename += \'.py\'\n\n            if len(filename) == 3:\n                raise SyntaxError\n\n            text = dedent("""\n                   #!/usr/bin/env python\n                   # coding: utf8\n                   from gluon import *\\n""")\n\n        elif path[-8:] == \'/static/\':\n            if request.vars.plugin and not filename.startswith(\'plugin_%s/\' % request.vars.plugin):\n                filename = \'plugin_%s/%s\' % (request.vars.plugin, filename)\n            text = \'\'\n        else:\n            redirect(request.vars.sender)\n\n        full_filename = os.path.join(path, filename)\n        dirpath = os.path.dirname(full_filename)\n\n        if not os.path.exists(dirpath):\n            os.makedirs(dirpath)\n\n        if os.path.exists(full_filename):\n            raise SyntaxError\n\n        safe_write(full_filename, text)\n        session.flash = T(\'file "%(filename)s" created\',\n                          dict(filename=full_filename[len(path):]))\n        redirect(URL(\'edit\',\n                 args=[os.path.join(request.vars.location, filename)]))\n    except Exception, e:\n        if not isinstance(e,HTTP):\n            session.flash = T(\'cannot create file\')\n\n    redirect(request.vars.sender)\n\n\ndef upload_file():\n    """ File uploading handler """\n\n    try:\n        filename = None\n        app = get_app(name=request.vars.location.split(\'/\')[0])\n        path = apath(request.vars.location, r=request)\n\n        if request.vars.filename:\n            filename = re.sub(\'[^\\w\\./]+\', \'_\', request.vars.filename)\n        else:\n            filename = os.path.split(request.vars.file.filename)[-1]\n\n        if path[-8:] == \'/models/\' and not filename[-3:] == \'.py\':\n            filename += \'.py\'\n\n        if path[-9:] == \'/modules/\' and not filename[-3:] == \'.py\':\n            filename += \'.py\'\n\n        if path[-13:] == \'/controllers/\' and not filename[-3:] == \'.py\':\n            filename += \'.py\'\n\n        if path[-7:] == \'/views/\' and not filename[-5:] == \'.html\':\n            filename += \'.html\'\n\n        if path[-11:] == \'/languages/\' and not filename[-3:] == \'.py\':\n            filename += \'.py\'\n\n        filename = os.path.join(path, filename)\n        dirpath = os.path.dirname(filename)\n\n        if not os.path.exists(dirpath):\n            os.makedirs(dirpath)\n\n        safe_write(filename, request.vars.file.file.read(), \'wb\')\n        session.flash = T(\'file "%(filename)s" uploaded\',\n                          dict(filename=filename[len(path):]))\n    except Exception:\n        if filename:\n            d = dict(filename = filename[len(path):])\n        else:\n            d = dict(filename = \'unkown\')\n        session.flash = T(\'cannot upload file "%(filename)s"\', d)\n\n    redirect(request.vars.sender)\n\n\ndef errors():\n    """ Error handler """\n    import operator\n    import os\n    import pickle\n    import hashlib\n\n    app = get_app()\n\n    method = request.args(1) or \'new\'\n\n\n    if method == \'new\':\n        errors_path = apath(\'%s/errors\' % app, r=request)\n\n        delete_hashes = []\n        for item in request.vars:\n            if item[:7] == \'delete_\':\n                delete_hashes.append(item[7:])\n\n        hash2error = dict()\n\n        for fn in listdir(errors_path, \'^\\w.*\'):\n            fullpath = os.path.join(errors_path, fn)\n            if not os.path.isfile(fullpath): continue\n            try:\n                fullpath_file = open(fullpath, \'r\')\n                try:\n                    error = pickle.load(fullpath_file)\n                finally:\n                    fullpath_file.close()\n            except IOError:\n                continue\n\n            hash = hashlib.md5(error[\'traceback\']).hexdigest()\n\n            if hash in delete_hashes:\n                os.unlink(fullpath)\n            else:\n                try:\n                    hash2error[hash][\'count\'] += 1\n                except KeyError:\n                    error_lines = error[\'traceback\'].split("\\n")\n                    last_line = error_lines[-2]\n                    error_causer = os.path.split(error[\'layer\'])[1]\n                    hash2error[hash] = dict(count=1, pickel=error,\n                                            causer=error_causer,\n                                            last_line=last_line,\n                                            hash=hash,ticket=fn)\n\n        decorated = [(x[\'count\'], x) for x in hash2error.values()]\n        decorated.sort(key=operator.itemgetter(0), reverse=True)\n\n        return dict(errors = [x[1] for x in decorated], app=app, method=method)\n    else:\n        for item in request.vars:\n            if item[:7] == \'delete_\':\n                os.unlink(apath(\'%s/errors/%s\' % (app, item[7:]), r=request))\n        func = lambda p: os.stat(apath(\'%s/errors/%s\' % \\\n                                           (app, p), r=request)).st_mtime\n        tickets = sorted(listdir(apath(\'%s/errors/\' % app, r=request), \'^\\w.*\'),\n                         key=func,\n                         reverse=True)\n\n        return dict(app=app, tickets=tickets, method=method)\n\n\ndef make_link(path):\n    """ Create a link from a path """\n    tryFile = path.replace(\'\\\\\', \'/\')\n\n    if os.path.isabs(tryFile) and os.path.isfile(tryFile):\n        (folder, filename) = os.path.split(tryFile)\n        (base, ext) = os.path.splitext(filename)\n        app = get_app()\n\n        editable = {\'controllers\': \'.py\', \'models\': \'.py\', \'views\': \'.html\'}\n        for key in editable.keys():\n            check_extension = folder.endswith("%s/%s" % (app,key))\n            if ext.lower() == editable[key] and check_extension:\n                return A(\'"\' + tryFile + \'"\',\n                         _href=URL(r=request,\n                         f=\'edit/%s/%s/%s\' % (app, key, filename))).xml()\n    return \'\'\n\n\ndef make_links(traceback):\n    """ Make links using the given traceback """\n\n    lwords = traceback.split(\'"\')\n\n    # Making the short circuit compatible with <= python2.4\n    result = (len(lwords) != 0) and lwords[0] or \'\'\n\n    i = 1\n\n    while i < len(lwords):\n        link = make_link(lwords[i])\n\n        if link == \'\':\n            result += \'"\' + lwords[i]\n        else:\n            result += link\n\n            if i + 1 < len(lwords):\n                result += lwords[i + 1]\n                i = i + 1\n\n        i = i + 1\n\n    return result\n\n\nclass TRACEBACK(object):\n    """ Generate the traceback """\n\n    def __init__(self, text):\n        """ TRACEBACK constructor """\n\n        self.s = make_links(CODE(text).xml())\n\n    def xml(self):\n        """ Returns the xml """\n\n        return self.s\n\n\ndef ticket():\n    """ Ticket handler """\n\n    if len(request.args) != 2:\n        session.flash = T(\'invalid ticket\')\n        redirect(URL(\'site\'))\n\n    app = get_app()\n    myversion = request.env.web2py_version\n    ticket = request.args[1]\n    e = RestrictedError()\n    e.load(request, app, ticket)\n\n    return dict(app=app,\n                ticket=ticket,\n                output=e.output,\n                traceback=(e.traceback and TRACEBACK(e.traceback)),\n                snapshot=e.snapshot,\n                code=e.code,\n                layer=e.layer,\n                myversion=myversion)\n\ndef error():\n    """ Generate a ticket (for testing) """\n    raise RuntimeError(\'admin ticket generator at your service\')\n\ndef update_languages():\n    """ Update available languages """\n\n    app = get_app()\n    update_all_languages(apath(app, r=request))\n    session.flash = T(\'Language files (static strings) updated\')\n    redirect(URL(\'design\',args=app,anchor=\'languages\'))\n\ndef twitter():\n    session.forget()\n    session._unlock(response)\n    import gluon.tools\n    import gluon.contrib.simplejson as sj\n    try:\n        if TWITTER_HASH:\n            page = gluon.tools.fetch(\'http://twitter.com/%s?format=json\'%TWITTER_HASH)\n            return sj.loads(page)[\'#timeline\']\n        else:\n            return \'disabled\'\n    except Exception, e:\n        return DIV(T(\'Unable to download because:\'),BR(),str(e))\n\ndef user():\n    if MULTI_USER_MODE:\n        if not db(db.auth_user).count():\n            auth.settings.registration_requires_approval = False            \n        return dict(form=auth())\n    else:\n        return dict(form=T("Disabled"))\n\ndef reload_routes():\n    """ Reload routes.py """\n    import gluon.rewrite\n    gluon.rewrite.load()\n    redirect(URL(\'site\'))\n\nresponse._vars=response._caller(check_version)\n'
p6
sS'snapshot'
p7
(dp8
S'exception'
p9
(dp10
S'__hash__'
p11
S"<method-wrapper '__hash__' of exceptions.TypeError object at 0x096CBEE0>"
p12
sS'__setattr__'
p13
S"<method-wrapper '__setattr__' of exceptions.TypeError object at 0x096CBEE0>"
p14
sS'__reduce_ex__'
p15
S'<built-in method __reduce_ex__ of exceptions.TypeError object at 0x096CBEE0>'
p16
sS'__getslice__'
p17
S"<method-wrapper '__getslice__' of exceptions.TypeError object at 0x096CBEE0>"
p18
sS'__getitem__'
p19
S"<method-wrapper '__getitem__' of exceptions.TypeError object at 0x096CBEE0>"
p20
sS'__setstate__'
p21
S'<built-in method __setstate__ of exceptions.TypeError object at 0x096CBEE0>'
p22
sS'__reduce__'
p23
S'<built-in method __reduce__ of exceptions.TypeError object at 0x096CBEE0>'
p24
sS'__str__'
p25
S"<method-wrapper '__str__' of exceptions.TypeError object at 0x096CBEE0>"
p26
sS'args'
p27
S"('not all arguments converted during string formatting',)"
p28
sS'__getattribute__'
p29
S"<method-wrapper '__getattribute__' of exceptions.TypeError object at 0x096CBEE0>"
p30
sS'__class__'
p31
S"<type 'exceptions.TypeError'>"
p32
sS'__delattr__'
p33
S"<method-wrapper '__delattr__' of exceptions.TypeError object at 0x096CBEE0>"
p34
sS'__repr__'
p35
S"<method-wrapper '__repr__' of exceptions.TypeError object at 0x096CBEE0>"
p36
sS'__dict__'
p37
S'{}'
p38
sS'__doc__'
p39
S"'Inappropriate argument type.'"
p40
sS'__init__'
p41
S"<method-wrapper '__init__' of exceptions.TypeError object at 0x096CBEE0>"
p42
sS'__new__'
p43
S'<built-in method __new__ of type object at 0x1E1CCD78>'
p44
ssS'evalue'
p45
S'not all arguments converted during string formatting'
p46
sS'request'
p47
ccopy_reg
_reconstructor
p48
(cgluon.html
BEAUTIFY
p49
c__builtin__
object
p50
NtRp51
(dp52
S'attributes'
p53
(dp54
sS'components'
p55
(lp56
g48
(cgluon.html
TABLE
p57
g50
NtRp58
(dp59
g53
(dp60
S'level'
p61
I5
ssS'parent'
p62
Nsg55
(lp63
g48
(cgluon.html
TR
p64
g50
NtRp65
(dp66
g53
(dp67
sg62
g58
sg55
(lp68
g48
(cgluon.html
TD
p69
g50
NtRp70
(dp71
g53
(dp72
S'_style'
p73
S'font-weight:bold;'
p74
ssg62
g65
sg55
(lp75
S'ajax'
p76
asbag48
(g69
g50
NtRp77
(dp78
g53
(dp79
S'_valign'
p80
S'top'
p81
ssg62
g65
sg55
(lp82
S':'
asbag48
(g69
g50
NtRp83
(dp84
g53
(dp85
sg62
g65
sg55
(lp86
g48
(g49
g50
NtRp87
(dp88
g53
(dp89
g61
I5
ssg62
g83
sg55
(lp90
S'True'
p91
asbasbasbag48
(g64
g50
NtRp92
(dp93
g53
(dp94
sg62
g58
sg55
(lp95
g48
(g69
g50
NtRp96
(dp97
g53
(dp98
g73
g74
ssg62
g92
sg55
(lp99
S'application'
p100
asbag48
(g69
g50
NtRp101
(dp102
g53
(dp103
g80
g81
ssg62
g92
sg55
(lp104
S':'
asbag48
(g69
g50
NtRp105
(dp106
g53
(dp107
sg62
g92
sg55
(lp108
g48
(g49
g50
NtRp109
(dp110
g53
(dp111
g61
I5
ssg62
g105
sg55
(lp112
S'admin'
p113
asbasbasbag48
(g64
g50
NtRp114
(dp115
g53
(dp116
sg62
g58
sg55
(lp117
g48
(g69
g50
NtRp118
(dp119
g53
(dp120
g73
g74
ssg62
g114
sg55
(lp121
g27
asbag48
(g69
g50
NtRp122
(dp123
g53
(dp124
g80
g81
ssg62
g114
sg55
(lp125
S':'
asbag48
(g69
g50
NtRp126
(dp127
g53
(dp128
sg62
g114
sg55
(lp129
g48
(g49
g50
NtRp130
(dp131
g53
(dp132
g61
I5
ssg62
g126
sg55
(lp133
g48
(g57
g50
NtRp134
(dp135
g53
(dp136
g61
I4
ssg62
Nsg55
(lp137
sbasbasbasbag48
(g64
g50
NtRp138
(dp139
g53
(dp140
sg62
g58
sg55
(lp141
g48
(g69
g50
NtRp142
(dp143
g53
(dp144
g73
g74
ssg62
g138
sg55
(lp145
S'body'
p146
asbag48
(g69
g50
NtRp147
(dp148
g53
(dp149
g80
g81
ssg62
g138
sg55
(lp150
S':'
asbag48
(g69
g50
NtRp151
(dp152
g53
(dp153
sg62
g138
sg55
(lp154
g48
(g49
g50
NtRp155
(dp156
g53
(dp157
g61
I5
ssg62
g151
sg55
(lp158
S"<open file '<fdopen>', mode 'w+b' at 0x096B9848>"
p159
asbasbasbag48
(g64
g50
NtRp160
(dp161
g53
(dp162
sg62
g58
sg55
(lp163
g48
(g69
g50
NtRp164
(dp165
g53
(dp166
g73
g74
ssg62
g160
sg55
(lp167
S'client'
p168
asbag48
(g69
g50
NtRp169
(dp170
g53
(dp171
g80
g81
ssg62
g160
sg55
(lp172
S':'
asbag48
(g69
g50
NtRp173
(dp174
g53
(dp175
sg62
g160
sg55
(lp176
g48
(g49
g50
NtRp177
(dp178
g53
(dp179
g61
I5
ssg62
g173
sg55
(lp180
S'127.0.0.1'
p181
asbasbasbag48
(g64
g50
NtRp182
(dp183
g53
(dp184
sg62
g58
sg55
(lp185
g48
(g69
g50
NtRp186
(dp187
g53
(dp188
g73
g74
ssg62
g182
sg55
(lp189
S'controller'
p190
asbag48
(g69
g50
NtRp191
(dp192
g53
(dp193
g80
g81
ssg62
g182
sg55
(lp194
S':'
asbag48
(g69
g50
NtRp195
(dp196
g53
(dp197
sg62
g182
sg55
(lp198
g48
(g49
g50
NtRp199
(dp200
g53
(dp201
g61
I5
ssg62
g195
sg55
(lp202
S'default'
p203
asbasbasbag48
(g64
g50
NtRp204
(dp205
g53
(dp206
sg62
g58
sg55
(lp207
g48
(g69
g50
NtRp208
(dp209
g53
(dp210
g73
g74
ssg62
g204
sg55
(lp211
S'cookies'
p212
asbag48
(g69
g50
NtRp213
(dp214
g53
(dp215
g80
g81
ssg62
g204
sg55
(lp216
S':'
asbag48
(g69
g50
NtRp217
(dp218
g53
(dp219
sg62
g204
sg55
(lp220
g48
(g49
g50
NtRp221
(dp222
g53
(dp223
g61
I5
ssg62
g217
sg55
(lp224
g48
(g57
g50
NtRp225
(dp226
g53
(dp227
g61
I4
ssg62
Nsg55
(lp228
g48
(g64
g50
NtRp229
(dp230
g53
(dp231
sg62
g225
sg55
(lp232
g48
(g69
g50
NtRp233
(dp234
g53
(dp235
g73
g74
ssg62
g229
sg55
(lp236
S'session_id_admin'
p237
asbag48
(g69
g50
NtRp238
(dp239
g53
(dp240
g80
g81
ssg62
g229
sg55
(lp241
S':'
asbag48
(g69
g50
NtRp242
(dp243
g53
(dp244
sg62
g229
sg55
(lp245
g48
(g49
g50
NtRp246
(dp247
g53
(dp248
g61
I4
ssg62
g242
sg55
(lp249
g48
(g57
g50
NtRp250
(dp251
g53
(dp252
g61
I3
ssg62
Nsg55
(lp253
g48
(g64
g50
NtRp254
(dp255
g53
(dp256
sg62
g250
sg55
(lp257
g48
(g69
g50
NtRp258
(dp259
g53
(dp260
g73
g74
ssg62
g254
sg55
(lp261
S'comment'
p262
asbag48
(g69
g50
NtRp263
(dp264
g53
(dp265
g80
g81
ssg62
g254
sg55
(lp266
S':'
asbag48
(g69
g50
NtRp267
(dp268
g53
(dp269
sg62
g254
sg55
(lp270
g48
(g49
g50
NtRp271
(dp272
g53
(dp273
g61
I3
ssg62
g267
sg55
(lp274
S''
asbasbasbag48
(g64
g50
NtRp275
(dp276
g53
(dp277
sg62
g250
sg55
(lp278
g48
(g69
g50
NtRp279
(dp280
g53
(dp281
g73
g74
ssg62
g275
sg55
(lp282
S'domain'
p283
asbag48
(g69
g50
NtRp284
(dp285
g53
(dp286
g80
g81
ssg62
g275
sg55
(lp287
S':'
asbag48
(g69
g50
NtRp288
(dp289
g53
(dp290
sg62
g275
sg55
(lp291
g48
(g49
g50
NtRp292
(dp293
g53
(dp294
g61
I3
ssg62
g288
sg55
(lp295
S''
asbasbasbag48
(g64
g50
NtRp296
(dp297
g53
(dp298
sg62
g250
sg55
(lp299
g48
(g69
g50
NtRp300
(dp301
g53
(dp302
g73
g74
ssg62
g296
sg55
(lp303
S'expires'
p304
asbag48
(g69
g50
NtRp305
(dp306
g53
(dp307
g80
g81
ssg62
g296
sg55
(lp308
S':'
asbag48
(g69
g50
NtRp309
(dp310
g53
(dp311
sg62
g296
sg55
(lp312
g48
(g49
g50
NtRp313
(dp314
g53
(dp315
g61
I3
ssg62
g309
sg55
(lp316
S''
asbasbasbag48
(g64
g50
NtRp317
(dp318
g53
(dp319
sg62
g250
sg55
(lp320
g48
(g69
g50
NtRp321
(dp322
g53
(dp323
g73
g74
ssg62
g317
sg55
(lp324
S'max-age'
p325
asbag48
(g69
g50
NtRp326
(dp327
g53
(dp328
g80
g81
ssg62
g317
sg55
(lp329
S':'
asbag48
(g69
g50
NtRp330
(dp331
g53
(dp332
sg62
g317
sg55
(lp333
g48
(g49
g50
NtRp334
(dp335
g53
(dp336
g61
I3
ssg62
g330
sg55
(lp337
S''
asbasbasbag48
(g64
g50
NtRp338
(dp339
g53
(dp340
sg62
g250
sg55
(lp341
g48
(g69
g50
NtRp342
(dp343
g53
(dp344
g73
g74
ssg62
g338
sg55
(lp345
S'path'
p346
asbag48
(g69
g50
NtRp347
(dp348
g53
(dp349
g80
g81
ssg62
g338
sg55
(lp350
S':'
asbag48
(g69
g50
NtRp351
(dp352
g53
(dp353
sg62
g338
sg55
(lp354
g48
(g49
g50
NtRp355
(dp356
g53
(dp357
g61
I3
ssg62
g351
sg55
(lp358
S''
asbasbasbag48
(g64
g50
NtRp359
(dp360
g53
(dp361
sg62
g250
sg55
(lp362
g48
(g69
g50
NtRp363
(dp364
g53
(dp365
g73
g74
ssg62
g359
sg55
(lp366
S'secure'
p367
asbag48
(g69
g50
NtRp368
(dp369
g53
(dp370
g80
g81
ssg62
g359
sg55
(lp371
S':'
asbag48
(g69
g50
NtRp372
(dp373
g53
(dp374
sg62
g359
sg55
(lp375
g48
(g49
g50
NtRp376
(dp377
g53
(dp378
g61
I3
ssg62
g372
sg55
(lp379
S''
asbasbasbag48
(g64
g50
NtRp380
(dp381
g53
(dp382
sg62
g250
sg55
(lp383
g48
(g69
g50
NtRp384
(dp385
g53
(dp386
g73
g74
ssg62
g380
sg55
(lp387
S'version'
p388
asbag48
(g69
g50
NtRp389
(dp390
g53
(dp391
g80
g81
ssg62
g380
sg55
(lp392
S':'
asbag48
(g69
g50
NtRp393
(dp394
g53
(dp395
sg62
g380
sg55
(lp396
g48
(g49
g50
NtRp397
(dp398
g53
(dp399
g61
I3
ssg62
g393
sg55
(lp400
S''
asbasbasbasbasbasbasbag48
(g64
g50
NtRp401
(dp402
g53
(dp403
sg62
g225
sg55
(lp404
g48
(g69
g50
NtRp405
(dp406
g53
(dp407
g73
g74
ssg62
g401
sg55
(lp408
S'session_id_gabb'
p409
asbag48
(g69
g50
NtRp410
(dp411
g53
(dp412
g80
g81
ssg62
g401
sg55
(lp413
S':'
asbag48
(g69
g50
NtRp414
(dp415
g53
(dp416
sg62
g401
sg55
(lp417
g48
(g49
g50
NtRp418
(dp419
g53
(dp420
g61
I4
ssg62
g414
sg55
(lp421
g48
(g57
g50
NtRp422
(dp423
g53
(dp424
g61
I3
ssg62
Nsg55
(lp425
g48
(g64
g50
NtRp426
(dp427
g53
(dp428
sg62
g422
sg55
(lp429
g48
(g69
g50
NtRp430
(dp431
g53
(dp432
g73
g74
ssg62
g426
sg55
(lp433
g262
asbag48
(g69
g50
NtRp434
(dp435
g53
(dp436
g80
g81
ssg62
g426
sg55
(lp437
S':'
asbag48
(g69
g50
NtRp438
(dp439
g53
(dp440
sg62
g426
sg55
(lp441
g48
(g49
g50
NtRp442
(dp443
g53
(dp444
g61
I3
ssg62
g438
sg55
(lp445
S''
asbasbasbag48
(g64
g50
NtRp446
(dp447
g53
(dp448
sg62
g422
sg55
(lp449
g48
(g69
g50
NtRp450
(dp451
g53
(dp452
g73
g74
ssg62
g446
sg55
(lp453
g283
asbag48
(g69
g50
NtRp454
(dp455
g53
(dp456
g80
g81
ssg62
g446
sg55
(lp457
S':'
asbag48
(g69
g50
NtRp458
(dp459
g53
(dp460
sg62
g446
sg55
(lp461
g48
(g49
g50
NtRp462
(dp463
g53
(dp464
g61
I3
ssg62
g458
sg55
(lp465
S''
asbasbasbag48
(g64
g50
NtRp466
(dp467
g53
(dp468
sg62
g422
sg55
(lp469
g48
(g69
g50
NtRp470
(dp471
g53
(dp472
g73
g74
ssg62
g466
sg55
(lp473
g304
asbag48
(g69
g50
NtRp474
(dp475
g53
(dp476
g80
g81
ssg62
g466
sg55
(lp477
S':'
asbag48
(g69
g50
NtRp478
(dp479
g53
(dp480
sg62
g466
sg55
(lp481
g48
(g49
g50
NtRp482
(dp483
g53
(dp484
g61
I3
ssg62
g478
sg55
(lp485
S''
asbasbasbag48
(g64
g50
NtRp486
(dp487
g53
(dp488
sg62
g422
sg55
(lp489
g48
(g69
g50
NtRp490
(dp491
g53
(dp492
g73
g74
ssg62
g486
sg55
(lp493
g325
asbag48
(g69
g50
NtRp494
(dp495
g53
(dp496
g80
g81
ssg62
g486
sg55
(lp497
S':'
asbag48
(g69
g50
NtRp498
(dp499
g53
(dp500
sg62
g486
sg55
(lp501
g48
(g49
g50
NtRp502
(dp503
g53
(dp504
g61
I3
ssg62
g498
sg55
(lp505
S''
asbasbasbag48
(g64
g50
NtRp506
(dp507
g53
(dp508
sg62
g422
sg55
(lp509
g48
(g69
g50
NtRp510
(dp511
g53
(dp512
g73
g74
ssg62
g506
sg55
(lp513
g346
asbag48
(g69
g50
NtRp514
(dp515
g53
(dp516
g80
g81
ssg62
g506
sg55
(lp517
S':'
asbag48
(g69
g50
NtRp518
(dp519
g53
(dp520
sg62
g506
sg55
(lp521
g48
(g49
g50
NtRp522
(dp523
g53
(dp524
g61
I3
ssg62
g518
sg55
(lp525
S''
asbasbasbag48
(g64
g50
NtRp526
(dp527
g53
(dp528
sg62
g422
sg55
(lp529
g48
(g69
g50
NtRp530
(dp531
g53
(dp532
g73
g74
ssg62
g526
sg55
(lp533
g367
asbag48
(g69
g50
NtRp534
(dp535
g53
(dp536
g80
g81
ssg62
g526
sg55
(lp537
S':'
asbag48
(g69
g50
NtRp538
(dp539
g53
(dp540
sg62
g526
sg55
(lp541
g48
(g49
g50
NtRp542
(dp543
g53
(dp544
g61
I3
ssg62
g538
sg55
(lp545
S''
asbasbasbag48
(g64
g50
NtRp546
(dp547
g53
(dp548
sg62
g422
sg55
(lp549
g48
(g69
g50
NtRp550
(dp551
g53
(dp552
g73
g74
ssg62
g546
sg55
(lp553
g388
asbag48
(g69
g50
NtRp554
(dp555
g53
(dp556
g80
g81
ssg62
g546
sg55
(lp557
S':'
asbag48
(g69
g50
NtRp558
(dp559
g53
(dp560
sg62
g546
sg55
(lp561
g48
(g49
g50
NtRp562
(dp563
g53
(dp564
g61
I3
ssg62
g558
sg55
(lp565
S''
asbasbasbasbasbasbasbag48
(g64
g50
NtRp566
(dp567
g53
(dp568
sg62
g225
sg55
(lp569
g48
(g69
g50
NtRp570
(dp571
g53
(dp572
g73
g74
ssg62
g566
sg55
(lp573
S'session_id_gabb1'
p574
asbag48
(g69
g50
NtRp575
(dp576
g53
(dp577
g80
g81
ssg62
g566
sg55
(lp578
S':'
asbag48
(g69
g50
NtRp579
(dp580
g53
(dp581
sg62
g566
sg55
(lp582
g48
(g49
g50
NtRp583
(dp584
g53
(dp585
g61
I4
ssg62
g579
sg55
(lp586
g48
(g57
g50
NtRp587
(dp588
g53
(dp589
g61
I3
ssg62
Nsg55
(lp590
g48
(g64
g50
NtRp591
(dp592
g53
(dp593
sg62
g587
sg55
(lp594
g48
(g69
g50
NtRp595
(dp596
g53
(dp597
g73
g74
ssg62
g591
sg55
(lp598
g262
asbag48
(g69
g50
NtRp599
(dp600
g53
(dp601
g80
g81
ssg62
g591
sg55
(lp602
S':'
asbag48
(g69
g50
NtRp603
(dp604
g53
(dp605
sg62
g591
sg55
(lp606
g48
(g49
g50
NtRp607
(dp608
g53
(dp609
g61
I3
ssg62
g603
sg55
(lp610
S''
asbasbasbag48
(g64
g50
NtRp611
(dp612
g53
(dp613
sg62
g587
sg55
(lp614
g48
(g69
g50
NtRp615
(dp616
g53
(dp617
g73
g74
ssg62
g611
sg55
(lp618
g283
asbag48
(g69
g50
NtRp619
(dp620
g53
(dp621
g80
g81
ssg62
g611
sg55
(lp622
S':'
asbag48
(g69
g50
NtRp623
(dp624
g53
(dp625
sg62
g611
sg55
(lp626
g48
(g49
g50
NtRp627
(dp628
g53
(dp629
g61
I3
ssg62
g623
sg55
(lp630
S''
asbasbasbag48
(g64
g50
NtRp631
(dp632
g53
(dp633
sg62
g587
sg55
(lp634
g48
(g69
g50
NtRp635
(dp636
g53
(dp637
g73
g74
ssg62
g631
sg55
(lp638
g304
asbag48
(g69
g50
NtRp639
(dp640
g53
(dp641
g80
g81
ssg62
g631
sg55
(lp642
S':'
asbag48
(g69
g50
NtRp643
(dp644
g53
(dp645
sg62
g631
sg55
(lp646
g48
(g49
g50
NtRp647
(dp648
g53
(dp649
g61
I3
ssg62
g643
sg55
(lp650
S''
asbasbasbag48
(g64
g50
NtRp651
(dp652
g53
(dp653
sg62
g587
sg55
(lp654
g48
(g69
g50
NtRp655
(dp656
g53
(dp657
g73
g74
ssg62
g651
sg55
(lp658
g325
asbag48
(g69
g50
NtRp659
(dp660
g53
(dp661
g80
g81
ssg62
g651
sg55
(lp662
S':'
asbag48
(g69
g50
NtRp663
(dp664
g53
(dp665
sg62
g651
sg55
(lp666
g48
(g49
g50
NtRp667
(dp668
g53
(dp669
g61
I3
ssg62
g663
sg55
(lp670
S''
asbasbasbag48
(g64
g50
NtRp671
(dp672
g53
(dp673
sg62
g587
sg55
(lp674
g48
(g69
g50
NtRp675
(dp676
g53
(dp677
g73
g74
ssg62
g671
sg55
(lp678
g346
asbag48
(g69
g50
NtRp679
(dp680
g53
(dp681
g80
g81
ssg62
g671
sg55
(lp682
S':'
asbag48
(g69
g50
NtRp683
(dp684
g53
(dp685
sg62
g671
sg55
(lp686
g48
(g49
g50
NtRp687
(dp688
g53
(dp689
g61
I3
ssg62
g683
sg55
(lp690
S''
asbasbasbag48
(g64
g50
NtRp691
(dp692
g53
(dp693
sg62
g587
sg55
(lp694
g48
(g69
g50
NtRp695
(dp696
g53
(dp697
g73
g74
ssg62
g691
sg55
(lp698
g367
asbag48
(g69
g50
NtRp699
(dp700
g53
(dp701
g80
g81
ssg62
g691
sg55
(lp702
S':'
asbag48
(g69
g50
NtRp703
(dp704
g53
(dp705
sg62
g691
sg55
(lp706
g48
(g49
g50
NtRp707
(dp708
g53
(dp709
g61
I3
ssg62
g703
sg55
(lp710
S''
asbasbasbag48
(g64
g50
NtRp711
(dp712
g53
(dp713
sg62
g587
sg55
(lp714
g48
(g69
g50
NtRp715
(dp716
g53
(dp717
g73
g74
ssg62
g711
sg55
(lp718
g388
asbag48
(g69
g50
NtRp719
(dp720
g53
(dp721
g80
g81
ssg62
g711
sg55
(lp722
S':'
asbag48
(g69
g50
NtRp723
(dp724
g53
(dp725
sg62
g711
sg55
(lp726
g48
(g49
g50
NtRp727
(dp728
g53
(dp729
g61
I3
ssg62
g723
sg55
(lp730
S''
asbasbasbasbasbasbasbag48
(g64
g50
NtRp731
(dp732
g53
(dp733
sg62
g225
sg55
(lp734
g48
(g69
g50
NtRp735
(dp736
g53
(dp737
g73
g74
ssg62
g731
sg55
(lp738
S'session_id_ojtest'
p739
asbag48
(g69
g50
NtRp740
(dp741
g53
(dp742
g80
g81
ssg62
g731
sg55
(lp743
S':'
asbag48
(g69
g50
NtRp744
(dp745
g53
(dp746
sg62
g731
sg55
(lp747
g48
(g49
g50
NtRp748
(dp749
g53
(dp750
g61
I4
ssg62
g744
sg55
(lp751
g48
(g57
g50
NtRp752
(dp753
g53
(dp754
g61
I3
ssg62
Nsg55
(lp755
g48
(g64
g50
NtRp756
(dp757
g53
(dp758
sg62
g752
sg55
(lp759
g48
(g69
g50
NtRp760
(dp761
g53
(dp762
g73
g74
ssg62
g756
sg55
(lp763
g262
asbag48
(g69
g50
NtRp764
(dp765
g53
(dp766
g80
g81
ssg62
g756
sg55
(lp767
S':'
asbag48
(g69
g50
NtRp768
(dp769
g53
(dp770
sg62
g756
sg55
(lp771
g48
(g49
g50
NtRp772
(dp773
g53
(dp774
g61
I3
ssg62
g768
sg55
(lp775
S''
asbasbasbag48
(g64
g50
NtRp776
(dp777
g53
(dp778
sg62
g752
sg55
(lp779
g48
(g69
g50
NtRp780
(dp781
g53
(dp782
g73
g74
ssg62
g776
sg55
(lp783
g283
asbag48
(g69
g50
NtRp784
(dp785
g53
(dp786
g80
g81
ssg62
g776
sg55
(lp787
S':'
asbag48
(g69
g50
NtRp788
(dp789
g53
(dp790
sg62
g776
sg55
(lp791
g48
(g49
g50
NtRp792
(dp793
g53
(dp794
g61
I3
ssg62
g788
sg55
(lp795
S''
asbasbasbag48
(g64
g50
NtRp796
(dp797
g53
(dp798
sg62
g752
sg55
(lp799
g48
(g69
g50
NtRp800
(dp801
g53
(dp802
g73
g74
ssg62
g796
sg55
(lp803
g304
asbag48
(g69
g50
NtRp804
(dp805
g53
(dp806
g80
g81
ssg62
g796
sg55
(lp807
S':'
asbag48
(g69
g50
NtRp808
(dp809
g53
(dp810
sg62
g796
sg55
(lp811
g48
(g49
g50
NtRp812
(dp813
g53
(dp814
g61
I3
ssg62
g808
sg55
(lp815
S''
asbasbasbag48
(g64
g50
NtRp816
(dp817
g53
(dp818
sg62
g752
sg55
(lp819
g48
(g69
g50
NtRp820
(dp821
g53
(dp822
g73
g74
ssg62
g816
sg55
(lp823
g325
asbag48
(g69
g50
NtRp824
(dp825
g53
(dp826
g80
g81
ssg62
g816
sg55
(lp827
S':'
asbag48
(g69
g50
NtRp828
(dp829
g53
(dp830
sg62
g816
sg55
(lp831
g48
(g49
g50
NtRp832
(dp833
g53
(dp834
g61
I3
ssg62
g828
sg55
(lp835
S''
asbasbasbag48
(g64
g50
NtRp836
(dp837
g53
(dp838
sg62
g752
sg55
(lp839
g48
(g69
g50
NtRp840
(dp841
g53
(dp842
g73
g74
ssg62
g836
sg55
(lp843
g346
asbag48
(g69
g50
NtRp844
(dp845
g53
(dp846
g80
g81
ssg62
g836
sg55
(lp847
S':'
asbag48
(g69
g50
NtRp848
(dp849
g53
(dp850
sg62
g836
sg55
(lp851
g48
(g49
g50
NtRp852
(dp853
g53
(dp854
g61
I3
ssg62
g848
sg55
(lp855
S''
asbasbasbag48
(g64
g50
NtRp856
(dp857
g53
(dp858
sg62
g752
sg55
(lp859
g48
(g69
g50
NtRp860
(dp861
g53
(dp862
g73
g74
ssg62
g856
sg55
(lp863
g367
asbag48
(g69
g50
NtRp864
(dp865
g53
(dp866
g80
g81
ssg62
g856
sg55
(lp867
S':'
asbag48
(g69
g50
NtRp868
(dp869
g53
(dp870
sg62
g856
sg55
(lp871
g48
(g49
g50
NtRp872
(dp873
g53
(dp874
g61
I3
ssg62
g868
sg55
(lp875
S''
asbasbasbag48
(g64
g50
NtRp876
(dp877
g53
(dp878
sg62
g752
sg55
(lp879
g48
(g69
g50
NtRp880
(dp881
g53
(dp882
g73
g74
ssg62
g876
sg55
(lp883
g388
asbag48
(g69
g50
NtRp884
(dp885
g53
(dp886
g80
g81
ssg62
g876
sg55
(lp887
S':'
asbag48
(g69
g50
NtRp888
(dp889
g53
(dp890
sg62
g876
sg55
(lp891
g48
(g49
g50
NtRp892
(dp893
g53
(dp894
g61
I3
ssg62
g888
sg55
(lp895
S''
asbasbasbasbasbasbasbag48
(g64
g50
NtRp896
(dp897
g53
(dp898
sg62
g225
sg55
(lp899
g48
(g69
g50
NtRp900
(dp901
g53
(dp902
g73
g74
ssg62
g896
sg55
(lp903
S'session_id_welcome'
p904
asbag48
(g69
g50
NtRp905
(dp906
g53
(dp907
g80
g81
ssg62
g896
sg55
(lp908
S':'
asbag48
(g69
g50
NtRp909
(dp910
g53
(dp911
sg62
g896
sg55
(lp912
g48
(g49
g50
NtRp913
(dp914
g53
(dp915
g61
I4
ssg62
g909
sg55
(lp916
g48
(g57
g50
NtRp917
(dp918
g53
(dp919
g61
I3
ssg62
Nsg55
(lp920
g48
(g64
g50
NtRp921
(dp922
g53
(dp923
sg62
g917
sg55
(lp924
g48
(g69
g50
NtRp925
(dp926
g53
(dp927
g73
g74
ssg62
g921
sg55
(lp928
g262
asbag48
(g69
g50
NtRp929
(dp930
g53
(dp931
g80
g81
ssg62
g921
sg55
(lp932
S':'
asbag48
(g69
g50
NtRp933
(dp934
g53
(dp935
sg62
g921
sg55
(lp936
g48
(g49
g50
NtRp937
(dp938
g53
(dp939
g61
I3
ssg62
g933
sg55
(lp940
S''
asbasbasbag48
(g64
g50
NtRp941
(dp942
g53
(dp943
sg62
g917
sg55
(lp944
g48
(g69
g50
NtRp945
(dp946
g53
(dp947
g73
g74
ssg62
g941
sg55
(lp948
g283
asbag48
(g69
g50
NtRp949
(dp950
g53
(dp951
g80
g81
ssg62
g941
sg55
(lp952
S':'
asbag48
(g69
g50
NtRp953
(dp954
g53
(dp955
sg62
g941
sg55
(lp956
g48
(g49
g50
NtRp957
(dp958
g53
(dp959
g61
I3
ssg62
g953
sg55
(lp960
S''
asbasbasbag48
(g64
g50
NtRp961
(dp962
g53
(dp963
sg62
g917
sg55
(lp964
g48
(g69
g50
NtRp965
(dp966
g53
(dp967
g73
g74
ssg62
g961
sg55
(lp968
g304
asbag48
(g69
g50
NtRp969
(dp970
g53
(dp971
g80
g81
ssg62
g961
sg55
(lp972
S':'
asbag48
(g69
g50
NtRp973
(dp974
g53
(dp975
sg62
g961
sg55
(lp976
g48
(g49
g50
NtRp977
(dp978
g53
(dp979
g61
I3
ssg62
g973
sg55
(lp980
S''
asbasbasbag48
(g64
g50
NtRp981
(dp982
g53
(dp983
sg62
g917
sg55
(lp984
g48
(g69
g50
NtRp985
(dp986
g53
(dp987
g73
g74
ssg62
g981
sg55
(lp988
g325
asbag48
(g69
g50
NtRp989
(dp990
g53
(dp991
g80
g81
ssg62
g981
sg55
(lp992
S':'
asbag48
(g69
g50
NtRp993
(dp994
g53
(dp995
sg62
g981
sg55
(lp996
g48
(g49
g50
NtRp997
(dp998
g53
(dp999
g61
I3
ssg62
g993
sg55
(lp1000
S''
asbasbasbag48
(g64
g50
NtRp1001
(dp1002
g53
(dp1003
sg62
g917
sg55
(lp1004
g48
(g69
g50
NtRp1005
(dp1006
g53
(dp1007
g73
g74
ssg62
g1001
sg55
(lp1008
g346
asbag48
(g69
g50
NtRp1009
(dp1010
g53
(dp1011
g80
g81
ssg62
g1001
sg55
(lp1012
S':'
asbag48
(g69
g50
NtRp1013
(dp1014
g53
(dp1015
sg62
g1001
sg55
(lp1016
g48
(g49
g50
NtRp1017
(dp1018
g53
(dp1019
g61
I3
ssg62
g1013
sg55
(lp1020
S''
asbasbasbag48
(g64
g50
NtRp1021
(dp1022
g53
(dp1023
sg62
g917
sg55
(lp1024
g48
(g69
g50
NtRp1025
(dp1026
g53
(dp1027
g73
g74
ssg62
g1021
sg55
(lp1028
g367
asbag48
(g69
g50
NtRp1029
(dp1030
g53
(dp1031
g80
g81
ssg62
g1021
sg55
(lp1032
S':'
asbag48
(g69
g50
NtRp1033
(dp1034
g53
(dp1035
sg62
g1021
sg55
(lp1036
g48
(g49
g50
NtRp1037
(dp1038
g53
(dp1039
g61
I3
ssg62
g1033
sg55
(lp1040
S''
asbasbasbag48
(g64
g50
NtRp1041
(dp1042
g53
(dp1043
sg62
g917
sg55
(lp1044
g48
(g69
g50
NtRp1045
(dp1046
g53
(dp1047
g73
g74
ssg62
g1041
sg55
(lp1048
g388
asbag48
(g69
g50
NtRp1049
(dp1050
g53
(dp1051
g80
g81
ssg62
g1041
sg55
(lp1052
S':'
asbag48
(g69
g50
NtRp1053
(dp1054
g53
(dp1055
sg62
g1041
sg55
(lp1056
g48
(g49
g50
NtRp1057
(dp1058
g53
(dp1059
g61
I3
ssg62
g1053
sg55
(lp1060
S''
asbasbasbasbasbasbasbasbasbasbasbag48
(g64
g50
NtRp1061
(dp1062
g53
(dp1063
sg62
g58
sg55
(lp1064
g48
(g69
g50
NtRp1065
(dp1066
g53
(dp1067
g73
g74
ssg62
g1061
sg55
(lp1068
S'env'
p1069
asbag48
(g69
g50
NtRp1070
(dp1071
g53
(dp1072
g80
g81
ssg62
g1061
sg55
(lp1073
S':'
asbag48
(g69
g50
NtRp1074
(dp1075
g53
(dp1076
sg62
g1061
sg55
(lp1077
g48
(g49
g50
NtRp1078
(dp1079
g53
(dp1080
g61
I5
ssg62
g1074
sg55
(lp1081
g48
(g57
g50
NtRp1082
(dp1083
g53
(dp1084
g61
I4
ssg62
Nsg55
(lp1085
g48
(g64
g50
NtRp1086
(dp1087
g53
(dp1088
sg62
g1082
sg55
(lp1089
g48
(g69
g50
NtRp1090
(dp1091
g53
(dp1092
g73
g74
ssg62
g1086
sg55
(lp1093
S'app_folders'
p1094
asbag48
(g69
g50
NtRp1095
(dp1096
g53
(dp1097
g80
g81
ssg62
g1086
sg55
(lp1098
S':'
asbag48
(g69
g50
NtRp1099
(dp1100
g53
(dp1101
sg62
g1086
sg55
(lp1102
g48
(g49
g50
NtRp1103
(dp1104
g53
(dp1105
g61
I4
ssg62
g1099
sg55
(lp1106
S"set(['D:\\\\Dropbox\\\\Eclipse\\\\OJDevSourceProject\\\\project\\\\web2py\\\\applications\\\\admin\\\\', 'D:\\\\Dropbox\\\\Eclipse\\\\OJDevSourceProject\\\\project\\\\web2py\\\\applications\\\\OJTest\\\\', 'D:\\\\Dropbox\\\\Eclipse\\\\OJDevSourceProject\\\\project\\\\web2py\\\\applications\\\\ojtest\\\\'])"
p1107
asbasbasbag48
(g64
g50
NtRp1108
(dp1109
g53
(dp1110
sg62
g1082
sg55
(lp1111
g48
(g69
g50
NtRp1112
(dp1113
g53
(dp1114
g73
g74
ssg62
g1108
sg55
(lp1115
S'applications_parent'
p1116
asbag48
(g69
g50
NtRp1117
(dp1118
g53
(dp1119
g80
g81
ssg62
g1108
sg55
(lp1120
S':'
asbag48
(g69
g50
NtRp1121
(dp1122
g53
(dp1123
sg62
g1108
sg55
(lp1124
g48
(g49
g50
NtRp1125
(dp1126
g53
(dp1127
g61
I4
ssg62
g1121
sg55
(lp1128
S'D:\\Dropbox\\Eclipse\\OJDevSourceProject\\project\\web2py'
p1129
asbasbasbag48
(g64
g50
NtRp1130
(dp1131
g53
(dp1132
sg62
g1082
sg55
(lp1133
g48
(g69
g50
NtRp1134
(dp1135
g53
(dp1136
g73
g74
ssg62
g1130
sg55
(lp1137
S'cmd_args'
p1138
asbag48
(g69
g50
NtRp1139
(dp1140
g53
(dp1141
g80
g81
ssg62
g1130
sg55
(lp1142
S':'
asbag48
(g69
g50
NtRp1143
(dp1144
g53
(dp1145
sg62
g1130
sg55
(lp1146
g48
(g49
g50
NtRp1147
(dp1148
g53
(dp1149
g61
I4
ssg62
g1143
sg55
(lp1150
g48
(g57
g50
NtRp1151
(dp1152
g53
(dp1153
g61
I3
ssg62
Nsg55
(lp1154
sbasbasbasbag48
(g64
g50
NtRp1155
(dp1156
g53
(dp1157
sg62
g1082
sg55
(lp1158
g48
(g69
g50
NtRp1159
(dp1160
g53
(dp1161
g73
g74
ssg62
g1155
sg55
(lp1162
S'cmd_options'
p1163
asbag48
(g69
g50
NtRp1164
(dp1165
g53
(dp1166
g80
g81
ssg62
g1155
sg55
(lp1167
S':'
asbag48
(g69
g50
NtRp1168
(dp1169
g53
(dp1170
sg62
g1155
sg55
(lp1171
g48
(g49
g50
NtRp1172
(dp1173
g53
(dp1174
g61
I4
ssg62
g1168
sg55
(lp1175
S"<Values at 0x31e8788: {'verbose': False, 'ip': '127.0.0.1', 'shutdown_timeout': 5, 'taskbar': False, 'nocron': False, 'pid_filename': 'httpserver.pid', 'maxthreads': None, 'softcron': False, 'server_name': 'John-PC', 'bpython': False, 'nogui': False, 'port': 8000, 'extcron': False, 'debuglevel': 30, 'test': None, 'folder': 'D:\\\\Dropbox\\\\Eclipse\\\\OJDevSourceProject\\\\project\\\\web2py', 'config': '', 'import_models': False, 'winservice': '', 'shell': None, 'run': '', 'log_filename': 'httpserver.log', 'args': [''], 'ssl_ca_certificate': None, 'scheduler': None, 'profiler_filename': None, 'ssl_private_key': '', 'password': '<ask>', 'request_queue_size': 5, 'ssl_certificate': '', 'cronjob': False, 'plain': False, 'quiet': False, 'interfaces': None, 'minthreads': None, 'timeout': 10, 'numthreads': None, 'nobanner': False}>"
p1176
asbasbasbag48
(g64
g50
NtRp1177
(dp1178
g53
(dp1179
sg62
g1082
sg55
(lp1180
g48
(g69
g50
NtRp1181
(dp1182
g53
(dp1183
g73
g74
ssg62
g1177
sg55
(lp1184
S'content_length'
p1185
asbag48
(g69
g50
NtRp1186
(dp1187
g53
(dp1188
g80
g81
ssg62
g1177
sg55
(lp1189
S':'
asbag48
(g69
g50
NtRp1190
(dp1191
g53
(dp1192
sg62
g1177
sg55
(lp1193
g48
(g49
g50
NtRp1194
(dp1195
g53
(dp1196
g61
I4
ssg62
g1190
sg55
(lp1197
S'0'
asbasbasbag48
(g64
g50
NtRp1198
(dp1199
g53
(dp1200
sg62
g1082
sg55
(lp1201
g48
(g69
g50
NtRp1202
(dp1203
g53
(dp1204
g73
g74
ssg62
g1198
sg55
(lp1205
S'db_sessions'
p1206
asbag48
(g69
g50
NtRp1207
(dp1208
g53
(dp1209
g80
g81
ssg62
g1198
sg55
(lp1210
S':'
asbag48
(g69
g50
NtRp1211
(dp1212
g53
(dp1213
sg62
g1198
sg55
(lp1214
g48
(g49
g50
NtRp1215
(dp1216
g53
(dp1217
g61
I4
ssg62
g1211
sg55
(lp1218
S'set([])'
p1219
asbasbasbag48
(g64
g50
NtRp1220
(dp1221
g53
(dp1222
sg62
g1082
sg55
(lp1223
g48
(g69
g50
NtRp1224
(dp1225
g53
(dp1226
g73
g74
ssg62
g1220
sg55
(lp1227
S'debugging'
p1228
asbag48
(g69
g50
NtRp1229
(dp1230
g53
(dp1231
g80
g81
ssg62
g1220
sg55
(lp1232
S':'
asbag48
(g69
g50
NtRp1233
(dp1234
g53
(dp1235
sg62
g1220
sg55
(lp1236
g48
(g49
g50
NtRp1237
(dp1238
g53
(dp1239
g61
I4
ssg62
g1233
sg55
(lp1240
S'False'
p1241
asbasbasbag48
(g64
g50
NtRp1242
(dp1243
g53
(dp1244
sg62
g1082
sg55
(lp1245
g48
(g69
g50
NtRp1246
(dp1247
g53
(dp1248
g73
g74
ssg62
g1242
sg55
(lp1249
S'gluon_parent'
p1250
asbag48
(g69
g50
NtRp1251
(dp1252
g53
(dp1253
g80
g81
ssg62
g1242
sg55
(lp1254
S':'
asbag48
(g69
g50
NtRp1255
(dp1256
g53
(dp1257
sg62
g1242
sg55
(lp1258
g48
(g49
g50
NtRp1259
(dp1260
g53
(dp1261
g61
I4
ssg62
g1255
sg55
(lp1262
S'D:\\Dropbox\\Eclipse\\OJDevSourceProject\\project\\web2py'
p1263
asbasbasbag48
(g64
g50
NtRp1264
(dp1265
g53
(dp1266
sg62
g1082
sg55
(lp1267
g48
(g69
g50
NtRp1268
(dp1269
g53
(dp1270
g73
g74
ssg62
g1264
sg55
(lp1271
S'http_accept'
p1272
asbag48
(g69
g50
NtRp1273
(dp1274
g53
(dp1275
g80
g81
ssg62
g1264
sg55
(lp1276
S':'
asbag48
(g69
g50
NtRp1277
(dp1278
g53
(dp1279
sg62
g1264
sg55
(lp1280
g48
(g49
g50
NtRp1281
(dp1282
g53
(dp1283
g61
I4
ssg62
g1277
sg55
(lp1284
S'*/*'
p1285
asbasbasbag48
(g64
g50
NtRp1286
(dp1287
g53
(dp1288
sg62
g1082
sg55
(lp1289
g48
(g69
g50
NtRp1290
(dp1291
g53
(dp1292
g73
g74
ssg62
g1286
sg55
(lp1293
S'http_accept_charset'
p1294
asbag48
(g69
g50
NtRp1295
(dp1296
g53
(dp1297
g80
g81
ssg62
g1286
sg55
(lp1298
S':'
asbag48
(g69
g50
NtRp1299
(dp1300
g53
(dp1301
sg62
g1286
sg55
(lp1302
g48
(g49
g50
NtRp1303
(dp1304
g53
(dp1305
g61
I4
ssg62
g1299
sg55
(lp1306
S'ISO-8859-1,utf-8;q=0.7,*;q=0.3'
p1307
asbasbasbag48
(g64
g50
NtRp1308
(dp1309
g53
(dp1310
sg62
g1082
sg55
(lp1311
g48
(g69
g50
NtRp1312
(dp1313
g53
(dp1314
g73
g74
ssg62
g1308
sg55
(lp1315
S'http_accept_encoding'
p1316
asbag48
(g69
g50
NtRp1317
(dp1318
g53
(dp1319
g80
g81
ssg62
g1308
sg55
(lp1320
S':'
asbag48
(g69
g50
NtRp1321
(dp1322
g53
(dp1323
sg62
g1308
sg55
(lp1324
g48
(g49
g50
NtRp1325
(dp1326
g53
(dp1327
g61
I4
ssg62
g1321
sg55
(lp1328
S'gzip,deflate,sdch'
p1329
asbasbasbag48
(g64
g50
NtRp1330
(dp1331
g53
(dp1332
sg62
g1082
sg55
(lp1333
g48
(g69
g50
NtRp1334
(dp1335
g53
(dp1336
g73
g74
ssg62
g1330
sg55
(lp1337
S'http_accept_language'
p1338
asbag48
(g69
g50
NtRp1339
(dp1340
g53
(dp1341
g80
g81
ssg62
g1330
sg55
(lp1342
S':'
asbag48
(g69
g50
NtRp1343
(dp1344
g53
(dp1345
sg62
g1330
sg55
(lp1346
g48
(g49
g50
NtRp1347
(dp1348
g53
(dp1349
g61
I4
ssg62
g1343
sg55
(lp1350
S'en-US,en;q=0.8'
p1351
asbasbasbag48
(g64
g50
NtRp1352
(dp1353
g53
(dp1354
sg62
g1082
sg55
(lp1355
g48
(g69
g50
NtRp1356
(dp1357
g53
(dp1358
g73
g74
ssg62
g1352
sg55
(lp1359
S'http_connection'
p1360
asbag48
(g69
g50
NtRp1361
(dp1362
g53
(dp1363
g80
g81
ssg62
g1352
sg55
(lp1364
S':'
asbag48
(g69
g50
NtRp1365
(dp1366
g53
(dp1367
sg62
g1352
sg55
(lp1368
g48
(g49
g50
NtRp1369
(dp1370
g53
(dp1371
g61
I4
ssg62
g1365
sg55
(lp1372
S'keep-alive'
p1373
asbasbasbag48
(g64
g50
NtRp1374
(dp1375
g53
(dp1376
sg62
g1082
sg55
(lp1377
g48
(g69
g50
NtRp1378
(dp1379
g53
(dp1380
g73
g74
ssg62
g1374
sg55
(lp1381
S'http_content_length'
p1382
asbag48
(g69
g50
NtRp1383
(dp1384
g53
(dp1385
g80
g81
ssg62
g1374
sg55
(lp1386
S':'
asbag48
(g69
g50
NtRp1387
(dp1388
g53
(dp1389
sg62
g1374
sg55
(lp1390
g48
(g49
g50
NtRp1391
(dp1392
g53
(dp1393
g61
I4
ssg62
g1387
sg55
(lp1394
S'0'
asbasbasbag48
(g64
g50
NtRp1395
(dp1396
g53
(dp1397
sg62
g1082
sg55
(lp1398
g48
(g69
g50
NtRp1399
(dp1400
g53
(dp1401
g73
g74
ssg62
g1395
sg55
(lp1402
S'http_cookie'
p1403
asbag48
(g69
g50
NtRp1404
(dp1405
g53
(dp1406
g80
g81
ssg62
g1395
sg55
(lp1407
S':'
asbag48
(g69
g50
NtRp1408
(dp1409
g53
(dp1410
sg62
g1395
sg55
(lp1411
g48
(g49
g50
NtRp1412
(dp1413
g53
(dp1414
g61
I4
ssg62
g1408
sg55
(lp1415
S'session_id_gabb=127.0.0.1-3e108e0f-3bff-4e2c-ada4-92829fa1206d; session_id_gabb1=127.0.0.1-6283c4d9-4f63-49d0-9f63-302c29e4e863; session_id_welcome=127.0.0.1-bda2660a-fe4d-4fa2-b602-a07139e4f26c; session_id_ojtest=127.0.0.1-a9fbb6c9-ca65-4151-b21b-50456cc95e75; session_id_admin=127.0.0.1-a88abcbc-d11e-41d6-8b83-042e238c6337'
p1416
asbasbasbag48
(g64
g50
NtRp1417
(dp1418
g53
(dp1419
sg62
g1082
sg55
(lp1420
g48
(g69
g50
NtRp1421
(dp1422
g53
(dp1423
g73
g74
ssg62
g1417
sg55
(lp1424
S'http_host'
p1425
asbag48
(g69
g50
NtRp1426
(dp1427
g53
(dp1428
g80
g81
ssg62
g1417
sg55
(lp1429
S':'
asbag48
(g69
g50
NtRp1430
(dp1431
g53
(dp1432
sg62
g1417
sg55
(lp1433
g48
(g49
g50
NtRp1434
(dp1435
g53
(dp1436
g61
I4
ssg62
g1430
sg55
(lp1437
S'127.0.0.1:8000'
p1438
asbasbasbag48
(g64
g50
NtRp1439
(dp1440
g53
(dp1441
sg62
g1082
sg55
(lp1442
g48
(g69
g50
NtRp1443
(dp1444
g53
(dp1445
g73
g74
ssg62
g1439
sg55
(lp1446
S'http_origin'
p1447
asbag48
(g69
g50
NtRp1448
(dp1449
g53
(dp1450
g80
g81
ssg62
g1439
sg55
(lp1451
S':'
asbag48
(g69
g50
NtRp1452
(dp1453
g53
(dp1454
sg62
g1439
sg55
(lp1455
g48
(g49
g50
NtRp1456
(dp1457
g53
(dp1458
g61
I4
ssg62
g1452
sg55
(lp1459
S'http://127.0.0.1:8000'
p1460
asbasbasbag48
(g64
g50
NtRp1461
(dp1462
g53
(dp1463
sg62
g1082
sg55
(lp1464
g48
(g69
g50
NtRp1465
(dp1466
g53
(dp1467
g73
g74
ssg62
g1461
sg55
(lp1468
S'http_referer'
p1469
asbag48
(g69
g50
NtRp1470
(dp1471
g53
(dp1472
g80
g81
ssg62
g1461
sg55
(lp1473
S':'
asbag48
(g69
g50
NtRp1474
(dp1475
g53
(dp1476
sg62
g1461
sg55
(lp1477
g48
(g49
g50
NtRp1478
(dp1479
g53
(dp1480
g61
I4
ssg62
g1474
sg55
(lp1481
S'http://127.0.0.1:8000/admin/default/site'
p1482
asbasbasbag48
(g64
g50
NtRp1483
(dp1484
g53
(dp1485
sg62
g1082
sg55
(lp1486
g48
(g69
g50
NtRp1487
(dp1488
g53
(dp1489
g73
g74
ssg62
g1483
sg55
(lp1490
S'http_user_agent'
p1491
asbag48
(g69
g50
NtRp1492
(dp1493
g53
(dp1494
g80
g81
ssg62
g1483
sg55
(lp1495
S':'
asbag48
(g69
g50
NtRp1496
(dp1497
g53
(dp1498
sg62
g1483
sg55
(lp1499
g48
(g49
g50
NtRp1500
(dp1501
g53
(dp1502
g61
I4
ssg62
g1496
sg55
(lp1503
S'Mozilla/5.0 (Windows NT 6.1; WOW64) AppleWebKit/535.7 (KHTML, like Gecko) Chrome/16.0.912.75 Safari/535.7'
p1504
asbasbasbag48
(g64
g50
NtRp1505
(dp1506
g53
(dp1507
sg62
g1082
sg55
(lp1508
g48
(g69
g50
NtRp1509
(dp1510
g53
(dp1511
g73
g74
ssg62
g1505
sg55
(lp1512
S'http_x_requested_with'
p1513
asbag48
(g69
g50
NtRp1514
(dp1515
g53
(dp1516
g80
g81
ssg62
g1505
sg55
(lp1517
S':'
asbag48
(g69
g50
NtRp1518
(dp1519
g53
(dp1520
sg62
g1505
sg55
(lp1521
g48
(g49
g50
NtRp1522
(dp1523
g53
(dp1524
g61
I4
ssg62
g1518
sg55
(lp1525
S'XMLHttpRequest'
p1526
asbasbasbag48
(g64
g50
NtRp1527
(dp1528
g53
(dp1529
sg62
g1082
sg55
(lp1530
g48
(g69
g50
NtRp1531
(dp1532
g53
(dp1533
g73
g74
ssg62
g1527
sg55
(lp1534
S'is_jython'
p1535
asbag48
(g69
g50
NtRp1536
(dp1537
g53
(dp1538
g80
g81
ssg62
g1527
sg55
(lp1539
S':'
asbag48
(g69
g50
NtRp1540
(dp1541
g53
(dp1542
sg62
g1527
sg55
(lp1543
g48
(g49
g50
NtRp1544
(dp1545
g53
(dp1546
g61
I4
ssg62
g1540
sg55
(lp1547
g1241
asbasbasbag48
(g64
g50
NtRp1548
(dp1549
g53
(dp1550
sg62
g1082
sg55
(lp1551
g48
(g69
g50
NtRp1552
(dp1553
g53
(dp1554
g73
g74
ssg62
g1548
sg55
(lp1555
S'path_info'
p1556
asbag48
(g69
g50
NtRp1557
(dp1558
g53
(dp1559
g80
g81
ssg62
g1548
sg55
(lp1560
S':'
asbag48
(g69
g50
NtRp1561
(dp1562
g53
(dp1563
sg62
g1548
sg55
(lp1564
g48
(g49
g50
NtRp1565
(dp1566
g53
(dp1567
g61
I4
ssg62
g1561
sg55
(lp1568
S'/admin/default/check_version'
p1569
asbasbasbag48
(g64
g50
NtRp1570
(dp1571
g53
(dp1572
sg62
g1082
sg55
(lp1573
g48
(g69
g50
NtRp1574
(dp1575
g53
(dp1576
g73
g74
ssg62
g1570
sg55
(lp1577
S'query_string'
p1578
asbag48
(g69
g50
NtRp1579
(dp1580
g53
(dp1581
g80
g81
ssg62
g1570
sg55
(lp1582
S':'
asbag48
(g69
g50
NtRp1583
(dp1584
g53
(dp1585
sg62
g1570
sg55
(lp1586
g48
(g49
g50
NtRp1587
(dp1588
g53
(dp1589
g61
I4
ssg62
g1583
sg55
(lp1590
S''
asbasbasbag48
(g64
g50
NtRp1591
(dp1592
g53
(dp1593
sg62
g1082
sg55
(lp1594
g48
(g69
g50
NtRp1595
(dp1596
g53
(dp1597
g73
g74
ssg62
g1591
sg55
(lp1598
S'remote_addr'
p1599
asbag48
(g69
g50
NtRp1600
(dp1601
g53
(dp1602
g80
g81
ssg62
g1591
sg55
(lp1603
S':'
asbag48
(g69
g50
NtRp1604
(dp1605
g53
(dp1606
sg62
g1591
sg55
(lp1607
g48
(g49
g50
NtRp1608
(dp1609
g53
(dp1610
g61
I4
ssg62
g1604
sg55
(lp1611
g181
asbasbasbag48
(g64
g50
NtRp1612
(dp1613
g53
(dp1614
sg62
g1082
sg55
(lp1615
g48
(g69
g50
NtRp1616
(dp1617
g53
(dp1618
g73
g74
ssg62
g1612
sg55
(lp1619
S'remote_port'
p1620
asbag48
(g69
g50
NtRp1621
(dp1622
g53
(dp1623
g80
g81
ssg62
g1612
sg55
(lp1624
S':'
asbag48
(g69
g50
NtRp1625
(dp1626
g53
(dp1627
sg62
g1612
sg55
(lp1628
g48
(g49
g50
NtRp1629
(dp1630
g53
(dp1631
g61
I4
ssg62
g1625
sg55
(lp1632
S'61688'
p1633
asbasbasbag48
(g64
g50
NtRp1634
(dp1635
g53
(dp1636
sg62
g1082
sg55
(lp1637
g48
(g69
g50
NtRp1638
(dp1639
g53
(dp1640
g73
g74
ssg62
g1634
sg55
(lp1641
S'request_method'
p1642
asbag48
(g69
g50
NtRp1643
(dp1644
g53
(dp1645
g80
g81
ssg62
g1634
sg55
(lp1646
S':'
asbag48
(g69
g50
NtRp1647
(dp1648
g53
(dp1649
sg62
g1634
sg55
(lp1650
g48
(g49
g50
NtRp1651
(dp1652
g53
(dp1653
g61
I4
ssg62
g1647
sg55
(lp1654
S'POST'
p1655
asbasbasbag48
(g64
g50
NtRp1656
(dp1657
g53
(dp1658
sg62
g1082
sg55
(lp1659
g48
(g69
g50
NtRp1660
(dp1661
g53
(dp1662
g73
g74
ssg62
g1656
sg55
(lp1663
S'request_uri'
p1664
asbag48
(g69
g50
NtRp1665
(dp1666
g53
(dp1667
g80
g81
ssg62
g1656
sg55
(lp1668
S':'
asbag48
(g69
g50
NtRp1669
(dp1670
g53
(dp1671
sg62
g1656
sg55
(lp1672
g48
(g49
g50
NtRp1673
(dp1674
g53
(dp1675
g61
I4
ssg62
g1669
sg55
(lp1676
g1569
asbasbasbag48
(g64
g50
NtRp1677
(dp1678
g53
(dp1679
sg62
g1082
sg55
(lp1680
g48
(g69
g50
NtRp1681
(dp1682
g53
(dp1683
g73
g74
ssg62
g1677
sg55
(lp1684
S'script_name'
p1685
asbag48
(g69
g50
NtRp1686
(dp1687
g53
(dp1688
g80
g81
ssg62
g1677
sg55
(lp1689
S':'
asbag48
(g69
g50
NtRp1690
(dp1691
g53
(dp1692
sg62
g1677
sg55
(lp1693
g48
(g49
g50
NtRp1694
(dp1695
g53
(dp1696
g61
I4
ssg62
g1690
sg55
(lp1697
S''
asbasbasbag48
(g64
g50
NtRp1698
(dp1699
g53
(dp1700
sg62
g1082
sg55
(lp1701
g48
(g69
g50
NtRp1702
(dp1703
g53
(dp1704
g73
g74
ssg62
g1698
sg55
(lp1705
S'server_name'
p1706
asbag48
(g69
g50
NtRp1707
(dp1708
g53
(dp1709
g80
g81
ssg62
g1698
sg55
(lp1710
S':'
asbag48
(g69
g50
NtRp1711
(dp1712
g53
(dp1713
sg62
g1698
sg55
(lp1714
g48
(g49
g50
NtRp1715
(dp1716
g53
(dp1717
g61
I4
ssg62
g1711
sg55
(lp1718
S'John-PC'
p1719
asbasbasbag48
(g64
g50
NtRp1720
(dp1721
g53
(dp1722
sg62
g1082
sg55
(lp1723
g48
(g69
g50
NtRp1724
(dp1725
g53
(dp1726
g73
g74
ssg62
g1720
sg55
(lp1727
S'server_port'
p1728
asbag48
(g69
g50
NtRp1729
(dp1730
g53
(dp1731
g80
g81
ssg62
g1720
sg55
(lp1732
S':'
asbag48
(g69
g50
NtRp1733
(dp1734
g53
(dp1735
sg62
g1720
sg55
(lp1736
g48
(g49
g50
NtRp1737
(dp1738
g53
(dp1739
g61
I4
ssg62
g1733
sg55
(lp1740
S'8000'
p1741
asbasbasbag48
(g64
g50
NtRp1742
(dp1743
g53
(dp1744
sg62
g1082
sg55
(lp1745
g48
(g69
g50
NtRp1746
(dp1747
g53
(dp1748
g73
g74
ssg62
g1742
sg55
(lp1749
S'server_protocol'
p1750
asbag48
(g69
g50
NtRp1751
(dp1752
g53
(dp1753
g80
g81
ssg62
g1742
sg55
(lp1754
S':'
asbag48
(g69
g50
NtRp1755
(dp1756
g53
(dp1757
sg62
g1742
sg55
(lp1758
g48
(g49
g50
NtRp1759
(dp1760
g53
(dp1761
g61
I4
ssg62
g1755
sg55
(lp1762
S'HTTP/1.1'
p1763
asbasbasbag48
(g64
g50
NtRp1764
(dp1765
g53
(dp1766
sg62
g1082
sg55
(lp1767
g48
(g69
g50
NtRp1768
(dp1769
g53
(dp1770
g73
g74
ssg62
g1764
sg55
(lp1771
S'server_software'
p1772
asbag48
(g69
g50
NtRp1773
(dp1774
g53
(dp1775
g80
g81
ssg62
g1764
sg55
(lp1776
S':'
asbag48
(g69
g50
NtRp1777
(dp1778
g53
(dp1779
sg62
g1764
sg55
(lp1780
g48
(g49
g50
NtRp1781
(dp1782
g53
(dp1783
g61
I4
ssg62
g1777
sg55
(lp1784
S'Rocket 1.2.4'
p1785
asbasbasbag48
(g64
g50
NtRp1786
(dp1787
g53
(dp1788
sg62
g1082
sg55
(lp1789
g48
(g69
g50
NtRp1790
(dp1791
g53
(dp1792
g73
g74
ssg62
g1786
sg55
(lp1793
S'web2py_crontype'
p1794
asbag48
(g69
g50
NtRp1795
(dp1796
g53
(dp1797
g80
g81
ssg62
g1786
sg55
(lp1798
S':'
asbag48
(g69
g50
NtRp1799
(dp1800
g53
(dp1801
sg62
g1786
sg55
(lp1802
g48
(g49
g50
NtRp1803
(dp1804
g53
(dp1805
g61
I4
ssg62
g1799
sg55
(lp1806
S'hard'
p1807
asbasbasbag48
(g64
g50
NtRp1808
(dp1809
g53
(dp1810
sg62
g1082
sg55
(lp1811
g48
(g69
g50
NtRp1812
(dp1813
g53
(dp1814
g73
g74
ssg62
g1808
sg55
(lp1815
S'web2py_original_uri'
p1816
asbag48
(g69
g50
NtRp1817
(dp1818
g53
(dp1819
g80
g81
ssg62
g1808
sg55
(lp1820
S':'
asbag48
(g69
g50
NtRp1821
(dp1822
g53
(dp1823
sg62
g1808
sg55
(lp1824
g48
(g49
g50
NtRp1825
(dp1826
g53
(dp1827
g61
I4
ssg62
g1821
sg55
(lp1828
S'/admin/default/check_version'
p1829
asbasbasbag48
(g64
g50
NtRp1830
(dp1831
g53
(dp1832
sg62
g1082
sg55
(lp1833
g48
(g69
g50
NtRp1834
(dp1835
g53
(dp1836
g73
g74
ssg62
g1830
sg55
(lp1837
S'web2py_path'
p1838
asbag48
(g69
g50
NtRp1839
(dp1840
g53
(dp1841
g80
g81
ssg62
g1830
sg55
(lp1842
S':'
asbag48
(g69
g50
NtRp1843
(dp1844
g53
(dp1845
sg62
g1830
sg55
(lp1846
g48
(g49
g50
NtRp1847
(dp1848
g53
(dp1849
g61
I4
ssg62
g1843
sg55
(lp1850
g1129
asbasbasbag48
(g64
g50
NtRp1851
(dp1852
g53
(dp1853
sg62
g1082
sg55
(lp1854
g48
(g69
g50
NtRp1855
(dp1856
g53
(dp1857
g73
g74
ssg62
g1851
sg55
(lp1858
S'web2py_version'
p1859
asbag48
(g69
g50
NtRp1860
(dp1861
g53
(dp1862
g80
g81
ssg62
g1851
sg55
(lp1863
S':'
asbag48
(g69
g50
NtRp1864
(dp1865
g53
(dp1866
sg62
g1851
sg55
(lp1867
g48
(g49
g50
NtRp1868
(dp1869
g53
(dp1870
g61
I4
ssg62
g1864
sg55
(lp1871
g48
(g57
g50
NtRp1872
(dp1873
g53
(dp1874
g61
I3
ssg62
Nsg55
(lp1875
g48
(g64
g50
NtRp1876
(dp1877
g53
(dp1878
sg62
g1872
sg55
(lp1879
g48
(g69
g50
NtRp1880
(dp1881
g53
(dp1882
sg62
g1876
sg55
(lp1883
g48
(g49
g50
NtRp1884
(dp1885
g53
(dp1886
g61
I3
ssg62
g1880
sg55
(lp1887
S'1'
asbasbasbag48
(g64
g50
NtRp1888
(dp1889
g53
(dp1890
sg62
g1872
sg55
(lp1891
g48
(g69
g50
NtRp1892
(dp1893
g53
(dp1894
sg62
g1888
sg55
(lp1895
g48
(g49
g50
NtRp1896
(dp1897
g53
(dp1898
g61
I3
ssg62
g1892
sg55
(lp1899
S'99'
p1900
asbasbasbag48
(g64
g50
NtRp1901
(dp1902
g53
(dp1903
sg62
g1872
sg55
(lp1904
g48
(g69
g50
NtRp1905
(dp1906
g53
(dp1907
sg62
g1901
sg55
(lp1908
g48
(g49
g50
NtRp1909
(dp1910
g53
(dp1911
g61
I3
ssg62
g1905
sg55
(lp1912
S'2'
asbasbasbag48
(g64
g50
NtRp1913
(dp1914
g53
(dp1915
sg62
g1872
sg55
(lp1916
g48
(g69
g50
NtRp1917
(dp1918
g53
(dp1919
sg62
g1913
sg55
(lp1920
g48
(g49
g50
NtRp1921
(dp1922
g53
(dp1923
g61
I3
ssg62
g1917
sg55
(lp1924
S'datetime.datetime(2011, 9, 26, 6, 55, 33)'
p1925
asbasbasbag48
(g64
g50
NtRp1926
(dp1927
g53
(dp1928
sg62
g1872
sg55
(lp1929
g48
(g69
g50
NtRp1930
(dp1931
g53
(dp1932
sg62
g1926
sg55
(lp1933
g48
(g49
g50
NtRp1934
(dp1935
g53
(dp1936
g61
I3
ssg62
g1930
sg55
(lp1937
S'stable'
p1938
asbasbasbasbasbasbasbag48
(g64
g50
NtRp1939
(dp1940
g53
(dp1941
sg62
g1082
sg55
(lp1942
g48
(g69
g50
NtRp1943
(dp1944
g53
(dp1945
g73
g74
ssg62
g1939
sg55
(lp1946
S'wsgi_errors'
p1947
asbag48
(g69
g50
NtRp1948
(dp1949
g53
(dp1950
g80
g81
ssg62
g1939
sg55
(lp1951
S':'
asbag48
(g69
g50
NtRp1952
(dp1953
g53
(dp1954
sg62
g1939
sg55
(lp1955
g48
(g49
g50
NtRp1956
(dp1957
g53
(dp1958
g61
I4
ssg62
g1952
sg55
(lp1959
S"<open file '<stderr>', mode 'w' at 0x004600B0>"
p1960
asbasbasbag48
(g64
g50
NtRp1961
(dp1962
g53
(dp1963
sg62
g1082
sg55
(lp1964
g48
(g69
g50
NtRp1965
(dp1966
g53
(dp1967
g73
g74
ssg62
g1961
sg55
(lp1968
S'wsgi_file_wrapper'
p1969
asbag48
(g69
g50
NtRp1970
(dp1971
g53
(dp1972
g80
g81
ssg62
g1961
sg55
(lp1973
S':'
asbag48
(g69
g50
NtRp1974
(dp1975
g53
(dp1976
sg62
g1961
sg55
(lp1977
g48
(g49
g50
NtRp1978
(dp1979
g53
(dp1980
g61
I4
ssg62
g1974
sg55
(lp1981
S'<class wsgiref.util.FileWrapper at 0x03108570>'
p1982
asbasbasbag48
(g64
g50
NtRp1983
(dp1984
g53
(dp1985
sg62
g1082
sg55
(lp1986
g48
(g69
g50
NtRp1987
(dp1988
g53
(dp1989
g73
g74
ssg62
g1983
sg55
(lp1990
S'wsgi_input'
p1991
asbag48
(g69
g50
NtRp1992
(dp1993
g53
(dp1994
g80
g81
ssg62
g1983
sg55
(lp1995
S':'
asbag48
(g69
g50
NtRp1996
(dp1997
g53
(dp1998
sg62
g1983
sg55
(lp1999
g48
(g49
g50
NtRp2000
(dp2001
g53
(dp2002
g61
I4
ssg62
g1996
sg55
(lp2003
S'<socket._fileobject object at 0x0940E430>'
p2004
asbasbasbag48
(g64
g50
NtRp2005
(dp2006
g53
(dp2007
sg62
g1082
sg55
(lp2008
g48
(g69
g50
NtRp2009
(dp2010
g53
(dp2011
g73
g74
ssg62
g2005
sg55
(lp2012
S'wsgi_multiprocess'
p2013
asbag48
(g69
g50
NtRp2014
(dp2015
g53
(dp2016
g80
g81
ssg62
g2005
sg55
(lp2017
S':'
asbag48
(g69
g50
NtRp2018
(dp2019
g53
(dp2020
sg62
g2005
sg55
(lp2021
g48
(g49
g50
NtRp2022
(dp2023
g53
(dp2024
g61
I4
ssg62
g2018
sg55
(lp2025
g1241
asbasbasbag48
(g64
g50
NtRp2026
(dp2027
g53
(dp2028
sg62
g1082
sg55
(lp2029
g48
(g69
g50
NtRp2030
(dp2031
g53
(dp2032
g73
g74
ssg62
g2026
sg55
(lp2033
S'wsgi_multithread'
p2034
asbag48
(g69
g50
NtRp2035
(dp2036
g53
(dp2037
g80
g81
ssg62
g2026
sg55
(lp2038
S':'
asbag48
(g69
g50
NtRp2039
(dp2040
g53
(dp2041
sg62
g2026
sg55
(lp2042
g48
(g49
g50
NtRp2043
(dp2044
g53
(dp2045
g61
I4
ssg62
g2039
sg55
(lp2046
g91
asbasbasbag48
(g64
g50
NtRp2047
(dp2048
g53
(dp2049
sg62
g1082
sg55
(lp2050
g48
(g69
g50
NtRp2051
(dp2052
g53
(dp2053
g73
g74
ssg62
g2047
sg55
(lp2054
S'wsgi_run_once'
p2055
asbag48
(g69
g50
NtRp2056
(dp2057
g53
(dp2058
g80
g81
ssg62
g2047
sg55
(lp2059
S':'
asbag48
(g69
g50
NtRp2060
(dp2061
g53
(dp2062
sg62
g2047
sg55
(lp2063
g48
(g49
g50
NtRp2064
(dp2065
g53
(dp2066
g61
I4
ssg62
g2060
sg55
(lp2067
g1241
asbasbasbag48
(g64
g50
NtRp2068
(dp2069
g53
(dp2070
sg62
g1082
sg55
(lp2071
g48
(g69
g50
NtRp2072
(dp2073
g53
(dp2074
g73
g74
ssg62
g2068
sg55
(lp2075
S'wsgi_url_scheme'
p2076
asbag48
(g69
g50
NtRp2077
(dp2078
g53
(dp2079
g80
g81
ssg62
g2068
sg55
(lp2080
S':'
asbag48
(g69
g50
NtRp2081
(dp2082
g53
(dp2083
sg62
g2068
sg55
(lp2084
g48
(g49
g50
NtRp2085
(dp2086
g53
(dp2087
g61
I4
ssg62
g2081
sg55
(lp2088
S'http'
p2089
asbasbasbag48
(g64
g50
NtRp2090
(dp2091
g53
(dp2092
sg62
g1082
sg55
(lp2093
g48
(g69
g50
NtRp2094
(dp2095
g53
(dp2096
g73
g74
ssg62
g2090
sg55
(lp2097
S'wsgi_version'
p2098
asbag48
(g69
g50
NtRp2099
(dp2100
g53
(dp2101
g80
g81
ssg62
g2090
sg55
(lp2102
S':'
asbag48
(g69
g50
NtRp2103
(dp2104
g53
(dp2105
sg62
g2090
sg55
(lp2106
g48
(g49
g50
NtRp2107
(dp2108
g53
(dp2109
g61
I4
ssg62
g2103
sg55
(lp2110
g48
(g57
g50
NtRp2111
(dp2112
g53
(dp2113
g61
I3
ssg62
Nsg55
(lp2114
g48
(g64
g50
NtRp2115
(dp2116
g53
(dp2117
sg62
g2111
sg55
(lp2118
g48
(g69
g50
NtRp2119
(dp2120
g53
(dp2121
sg62
g2115
sg55
(lp2122
g48
(g49
g50
NtRp2123
(dp2124
g53
(dp2125
g61
I3
ssg62
g2119
sg55
(lp2126
S'1'
asbasbasbag48
(g64
g50
NtRp2127
(dp2128
g53
(dp2129
sg62
g2111
sg55
(lp2130
g48
(g69
g50
NtRp2131
(dp2132
g53
(dp2133
sg62
g2127
sg55
(lp2134
g48
(g49
g50
NtRp2135
(dp2136
g53
(dp2137
g61
I3
ssg62
g2131
sg55
(lp2138
S'0'
asbasbasbasbasbasbasbasbasbasbasbag48
(g64
g50
NtRp2139
(dp2140
g53
(dp2141
sg62
g58
sg55
(lp2142
g48
(g69
g50
NtRp2143
(dp2144
g53
(dp2145
g73
g74
ssg62
g2139
sg55
(lp2146
S'extension'
p2147
asbag48
(g69
g50
NtRp2148
(dp2149
g53
(dp2150
g80
g81
ssg62
g2139
sg55
(lp2151
S':'
asbag48
(g69
g50
NtRp2152
(dp2153
g53
(dp2154
sg62
g2139
sg55
(lp2155
g48
(g49
g50
NtRp2156
(dp2157
g53
(dp2158
g61
I5
ssg62
g2152
sg55
(lp2159
S'html'
p2160
asbasbasbag48
(g64
g50
NtRp2161
(dp2162
g53
(dp2163
sg62
g58
sg55
(lp2164
g48
(g69
g50
NtRp2165
(dp2166
g53
(dp2167
g73
g74
ssg62
g2161
sg55
(lp2168
S'folder'
p2169
asbag48
(g69
g50
NtRp2170
(dp2171
g53
(dp2172
g80
g81
ssg62
g2161
sg55
(lp2173
S':'
asbag48
(g69
g50
NtRp2174
(dp2175
g53
(dp2176
sg62
g2161
sg55
(lp2177
g48
(g49
g50
NtRp2178
(dp2179
g53
(dp2180
g61
I5
ssg62
g2174
sg55
(lp2181
S'D:\\Dropbox\\Eclipse\\OJDevSourceProject\\project\\web2py\\applications\\admin\\'
p2182
asbasbasbag48
(g64
g50
NtRp2183
(dp2184
g53
(dp2185
sg62
g58
sg55
(lp2186
g48
(g69
g50
NtRp2187
(dp2188
g53
(dp2189
g73
g74
ssg62
g2183
sg55
(lp2190
S'function'
p2191
asbag48
(g69
g50
NtRp2192
(dp2193
g53
(dp2194
g80
g81
ssg62
g2183
sg55
(lp2195
S':'
asbag48
(g69
g50
NtRp2196
(dp2197
g53
(dp2198
sg62
g2183
sg55
(lp2199
g48
(g49
g50
NtRp2200
(dp2201
g53
(dp2202
g61
I5
ssg62
g2196
sg55
(lp2203
S'check_version'
p2204
asbasbasbag48
(g64
g50
NtRp2205
(dp2206
g53
(dp2207
sg62
g58
sg55
(lp2208
g48
(g69
g50
NtRp2209
(dp2210
g53
(dp2211
g73
g74
ssg62
g2205
sg55
(lp2212
S'get_vars'
p2213
asbag48
(g69
g50
NtRp2214
(dp2215
g53
(dp2216
g80
g81
ssg62
g2205
sg55
(lp2217
S':'
asbag48
(g69
g50
NtRp2218
(dp2219
g53
(dp2220
sg62
g2205
sg55
(lp2221
g48
(g49
g50
NtRp2222
(dp2223
g53
(dp2224
g61
I5
ssg62
g2218
sg55
(lp2225
g48
(g57
g50
NtRp2226
(dp2227
g53
(dp2228
g61
I4
ssg62
Nsg55
(lp2229
sbasbasbasbag48
(g64
g50
NtRp2230
(dp2231
g53
(dp2232
sg62
g58
sg55
(lp2233
g48
(g69
g50
NtRp2234
(dp2235
g53
(dp2236
g73
g74
ssg62
g2230
sg55
(lp2237
S'global_settings'
p2238
asbag48
(g69
g50
NtRp2239
(dp2240
g53
(dp2241
g80
g81
ssg62
g2230
sg55
(lp2242
S':'
asbag48
(g69
g50
NtRp2243
(dp2244
g53
(dp2245
sg62
g2230
sg55
(lp2246
g48
(g49
g50
NtRp2247
(dp2248
g53
(dp2249
g61
I5
ssg62
g2243
sg55
(lp2250
g48
(g57
g50
NtRp2251
(dp2252
g53
(dp2253
g61
I4
ssg62
Nsg55
(lp2254
g48
(g64
g50
NtRp2255
(dp2256
g53
(dp2257
sg62
g2251
sg55
(lp2258
g48
(g69
g50
NtRp2259
(dp2260
g53
(dp2261
g73
g74
ssg62
g2255
sg55
(lp2262
g1094
asbag48
(g69
g50
NtRp2263
(dp2264
g53
(dp2265
g80
g81
ssg62
g2255
sg55
(lp2266
S':'
asbag48
(g69
g50
NtRp2267
(dp2268
g53
(dp2269
sg62
g2255
sg55
(lp2270
g48
(g49
g50
NtRp2271
(dp2272
g53
(dp2273
g61
I4
ssg62
g2267
sg55
(lp2274
S"set(['D:\\\\Dropbox\\\\Eclipse\\\\OJDevSourceProject\\\\project\\\\web2py\\\\applications\\\\admin\\\\', 'D:\\\\Dropbox\\\\Eclipse\\\\OJDevSourceProject\\\\project\\\\web2py\\\\applications\\\\OJTest\\\\', 'D:\\\\Dropbox\\\\Eclipse\\\\OJDevSourceProject\\\\project\\\\web2py\\\\applications\\\\ojtest\\\\'])"
p2275
asbasbasbag48
(g64
g50
NtRp2276
(dp2277
g53
(dp2278
sg62
g2251
sg55
(lp2279
g48
(g69
g50
NtRp2280
(dp2281
g53
(dp2282
g73
g74
ssg62
g2276
sg55
(lp2283
g1116
asbag48
(g69
g50
NtRp2284
(dp2285
g53
(dp2286
g80
g81
ssg62
g2276
sg55
(lp2287
S':'
asbag48
(g69
g50
NtRp2288
(dp2289
g53
(dp2290
sg62
g2276
sg55
(lp2291
g48
(g49
g50
NtRp2292
(dp2293
g53
(dp2294
g61
I4
ssg62
g2288
sg55
(lp2295
g1129
asbasbasbag48
(g64
g50
NtRp2296
(dp2297
g53
(dp2298
sg62
g2251
sg55
(lp2299
g48
(g69
g50
NtRp2300
(dp2301
g53
(dp2302
g73
g74
ssg62
g2296
sg55
(lp2303
g1138
asbag48
(g69
g50
NtRp2304
(dp2305
g53
(dp2306
g80
g81
ssg62
g2296
sg55
(lp2307
S':'
asbag48
(g69
g50
NtRp2308
(dp2309
g53
(dp2310
sg62
g2296
sg55
(lp2311
g48
(g49
g50
NtRp2312
(dp2313
g53
(dp2314
g61
I4
ssg62
g2308
sg55
(lp2315
g48
(g57
g50
NtRp2316
(dp2317
g53
(dp2318
g61
I3
ssg62
Nsg55
(lp2319
sbasbasbasbag48
(g64
g50
NtRp2320
(dp2321
g53
(dp2322
sg62
g2251
sg55
(lp2323
g48
(g69
g50
NtRp2324
(dp2325
g53
(dp2326
g73
g74
ssg62
g2320
sg55
(lp2327
g1163
asbag48
(g69
g50
NtRp2328
(dp2329
g53
(dp2330
g80
g81
ssg62
g2320
sg55
(lp2331
S':'
asbag48
(g69
g50
NtRp2332
(dp2333
g53
(dp2334
sg62
g2320
sg55
(lp2335
g48
(g49
g50
NtRp2336
(dp2337
g53
(dp2338
g61
I4
ssg62
g2332
sg55
(lp2339
S"<Values at 0x31e8788: {'verbose': False, 'ip': '127.0.0.1', 'shutdown_timeout': 5, 'taskbar': False, 'nocron': False, 'pid_filename': 'httpserver.pid', 'maxthreads': None, 'softcron': False, 'server_name': 'John-PC', 'bpython': False, 'nogui': False, 'port': 8000, 'extcron': False, 'debuglevel': 30, 'test': None, 'folder': 'D:\\\\Dropbox\\\\Eclipse\\\\OJDevSourceProject\\\\project\\\\web2py', 'config': '', 'import_models': False, 'winservice': '', 'shell': None, 'run': '', 'log_filename': 'httpserver.log', 'args': [''], 'ssl_ca_certificate': None, 'scheduler': None, 'profiler_filename': None, 'ssl_private_key': '', 'password': '<ask>', 'request_queue_size': 5, 'ssl_certificate': '', 'cronjob': False, 'plain': False, 'quiet': False, 'interfaces': None, 'minthreads': None, 'timeout': 10, 'numthreads': None, 'nobanner': False}>"
p2340
asbasbasbag48
(g64
g50
NtRp2341
(dp2342
g53
(dp2343
sg62
g2251
sg55
(lp2344
g48
(g69
g50
NtRp2345
(dp2346
g53
(dp2347
g73
g74
ssg62
g2341
sg55
(lp2348
g1206
asbag48
(g69
g50
NtRp2349
(dp2350
g53
(dp2351
g80
g81
ssg62
g2341
sg55
(lp2352
S':'
asbag48
(g69
g50
NtRp2353
(dp2354
g53
(dp2355
sg62
g2341
sg55
(lp2356
g48
(g49
g50
NtRp2357
(dp2358
g53
(dp2359
g61
I4
ssg62
g2353
sg55
(lp2360
S'set([])'
p2361
asbasbasbag48
(g64
g50
NtRp2362
(dp2363
g53
(dp2364
sg62
g2251
sg55
(lp2365
g48
(g69
g50
NtRp2366
(dp2367
g53
(dp2368
g73
g74
ssg62
g2362
sg55
(lp2369
g1228
asbag48
(g69
g50
NtRp2370
(dp2371
g53
(dp2372
g80
g81
ssg62
g2362
sg55
(lp2373
S':'
asbag48
(g69
g50
NtRp2374
(dp2375
g53
(dp2376
sg62
g2362
sg55
(lp2377
g48
(g49
g50
NtRp2378
(dp2379
g53
(dp2380
g61
I4
ssg62
g2374
sg55
(lp2381
g1241
asbasbasbag48
(g64
g50
NtRp2382
(dp2383
g53
(dp2384
sg62
g2251
sg55
(lp2385
g48
(g69
g50
NtRp2386
(dp2387
g53
(dp2388
g73
g74
ssg62
g2382
sg55
(lp2389
g1250
asbag48
(g69
g50
NtRp2390
(dp2391
g53
(dp2392
g80
g81
ssg62
g2382
sg55
(lp2393
S':'
asbag48
(g69
g50
NtRp2394
(dp2395
g53
(dp2396
sg62
g2382
sg55
(lp2397
g48
(g49
g50
NtRp2398
(dp2399
g53
(dp2400
g61
I4
ssg62
g2394
sg55
(lp2401
g1263
asbasbasbag48
(g64
g50
NtRp2402
(dp2403
g53
(dp2404
sg62
g2251
sg55
(lp2405
g48
(g69
g50
NtRp2406
(dp2407
g53
(dp2408
g73
g74
ssg62
g2402
sg55
(lp2409
g1535
asbag48
(g69
g50
NtRp2410
(dp2411
g53
(dp2412
g80
g81
ssg62
g2402
sg55
(lp2413
S':'
asbag48
(g69
g50
NtRp2414
(dp2415
g53
(dp2416
sg62
g2402
sg55
(lp2417
g48
(g49
g50
NtRp2418
(dp2419
g53
(dp2420
g61
I4
ssg62
g2414
sg55
(lp2421
g1241
asbasbasbag48
(g64
g50
NtRp2422
(dp2423
g53
(dp2424
sg62
g2251
sg55
(lp2425
g48
(g69
g50
NtRp2426
(dp2427
g53
(dp2428
g73
g74
ssg62
g2422
sg55
(lp2429
g1794
asbag48
(g69
g50
NtRp2430
(dp2431
g53
(dp2432
g80
g81
ssg62
g2422
sg55
(lp2433
S':'
asbag48
(g69
g50
NtRp2434
(dp2435
g53
(dp2436
sg62
g2422
sg55
(lp2437
g48
(g49
g50
NtRp2438
(dp2439
g53
(dp2440
g61
I4
ssg62
g2434
sg55
(lp2441
g1807
asbasbasbag48
(g64
g50
NtRp2442
(dp2443
g53
(dp2444
sg62
g2251
sg55
(lp2445
g48
(g69
g50
NtRp2446
(dp2447
g53
(dp2448
g73
g74
ssg62
g2442
sg55
(lp2449
g1859
asbag48
(g69
g50
NtRp2450
(dp2451
g53
(dp2452
g80
g81
ssg62
g2442
sg55
(lp2453
S':'
asbag48
(g69
g50
NtRp2454
(dp2455
g53
(dp2456
sg62
g2442
sg55
(lp2457
g48
(g49
g50
NtRp2458
(dp2459
g53
(dp2460
g61
I4
ssg62
g2454
sg55
(lp2461
g48
(g57
g50
NtRp2462
(dp2463
g53
(dp2464
g61
I3
ssg62
Nsg55
(lp2465
g48
(g64
g50
NtRp2466
(dp2467
g53
(dp2468
sg62
g2462
sg55
(lp2469
g48
(g69
g50
NtRp2470
(dp2471
g53
(dp2472
sg62
g2466
sg55
(lp2473
g48
(g49
g50
NtRp2474
(dp2475
g53
(dp2476
g61
I3
ssg62
g2470
sg55
(lp2477
S'1'
asbasbasbag48
(g64
g50
NtRp2478
(dp2479
g53
(dp2480
sg62
g2462
sg55
(lp2481
g48
(g69
g50
NtRp2482
(dp2483
g53
(dp2484
sg62
g2478
sg55
(lp2485
g48
(g49
g50
NtRp2486
(dp2487
g53
(dp2488
g61
I3
ssg62
g2482
sg55
(lp2489
S'99'
p2490
asbasbasbag48
(g64
g50
NtRp2491
(dp2492
g53
(dp2493
sg62
g2462
sg55
(lp2494
g48
(g69
g50
NtRp2495
(dp2496
g53
(dp2497
sg62
g2491
sg55
(lp2498
g48
(g49
g50
NtRp2499
(dp2500
g53
(dp2501
g61
I3
ssg62
g2495
sg55
(lp2502
S'2'
asbasbasbag48
(g64
g50
NtRp2503
(dp2504
g53
(dp2505
sg62
g2462
sg55
(lp2506
g48
(g69
g50
NtRp2507
(dp2508
g53
(dp2509
sg62
g2503
sg55
(lp2510
g48
(g49
g50
NtRp2511
(dp2512
g53
(dp2513
g61
I3
ssg62
g2507
sg55
(lp2514
S'datetime.datetime(2011, 9, 26, 6, 55, 33)'
p2515
asbasbasbag48
(g64
g50
NtRp2516
(dp2517
g53
(dp2518
sg62
g2462
sg55
(lp2519
g48
(g69
g50
NtRp2520
(dp2521
g53
(dp2522
sg62
g2516
sg55
(lp2523
g48
(g49
g50
NtRp2524
(dp2525
g53
(dp2526
g61
I3
ssg62
g2520
sg55
(lp2527
g1938
asbasbasbasbasbasbasbasbasbasbasbag48
(g64
g50
NtRp2528
(dp2529
g53
(dp2530
sg62
g58
sg55
(lp2531
g48
(g69
g50
NtRp2532
(dp2533
g53
(dp2534
g73
g74
ssg62
g2528
sg55
(lp2535
S'is_https'
p2536
asbag48
(g69
g50
NtRp2537
(dp2538
g53
(dp2539
g80
g81
ssg62
g2528
sg55
(lp2540
S':'
asbag48
(g69
g50
NtRp2541
(dp2542
g53
(dp2543
sg62
g2528
sg55
(lp2544
g48
(g49
g50
NtRp2545
(dp2546
g53
(dp2547
g61
I5
ssg62
g2541
sg55
(lp2548
g1241
asbasbasbag48
(g64
g50
NtRp2549
(dp2550
g53
(dp2551
sg62
g58
sg55
(lp2552
g48
(g69
g50
NtRp2553
(dp2554
g53
(dp2555
g73
g74
ssg62
g2549
sg55
(lp2556
S'is_local'
p2557
asbag48
(g69
g50
NtRp2558
(dp2559
g53
(dp2560
g80
g81
ssg62
g2549
sg55
(lp2561
S':'
asbag48
(g69
g50
NtRp2562
(dp2563
g53
(dp2564
sg62
g2549
sg55
(lp2565
g48
(g49
g50
NtRp2566
(dp2567
g53
(dp2568
g61
I5
ssg62
g2562
sg55
(lp2569
g91
asbasbasbag48
(g64
g50
NtRp2570
(dp2571
g53
(dp2572
sg62
g58
sg55
(lp2573
g48
(g69
g50
NtRp2574
(dp2575
g53
(dp2576
g73
g74
ssg62
g2570
sg55
(lp2577
S'is_restful'
p2578
asbag48
(g69
g50
NtRp2579
(dp2580
g53
(dp2581
g80
g81
ssg62
g2570
sg55
(lp2582
S':'
asbag48
(g69
g50
NtRp2583
(dp2584
g53
(dp2585
sg62
g2570
sg55
(lp2586
g48
(g49
g50
NtRp2587
(dp2588
g53
(dp2589
g61
I5
ssg62
g2583
sg55
(lp2590
g1241
asbasbasbag48
(g64
g50
NtRp2591
(dp2592
g53
(dp2593
sg62
g58
sg55
(lp2594
g48
(g69
g50
NtRp2595
(dp2596
g53
(dp2597
g73
g74
ssg62
g2591
sg55
(lp2598
S'now'
p2599
asbag48
(g69
g50
NtRp2600
(dp2601
g53
(dp2602
g80
g81
ssg62
g2591
sg55
(lp2603
S':'
asbag48
(g69
g50
NtRp2604
(dp2605
g53
(dp2606
sg62
g2591
sg55
(lp2607
g48
(g49
g50
NtRp2608
(dp2609
g53
(dp2610
g61
I5
ssg62
g2604
sg55
(lp2611
S'datetime.datetime(2012, 1, 17, 7, 10, 10, 523000)'
p2612
asbasbasbag48
(g64
g50
NtRp2613
(dp2614
g53
(dp2615
sg62
g58
sg55
(lp2616
g48
(g69
g50
NtRp2617
(dp2618
g53
(dp2619
g73
g74
ssg62
g2613
sg55
(lp2620
S'post_vars'
p2621
asbag48
(g69
g50
NtRp2622
(dp2623
g53
(dp2624
g80
g81
ssg62
g2613
sg55
(lp2625
S':'
asbag48
(g69
g50
NtRp2626
(dp2627
g53
(dp2628
sg62
g2613
sg55
(lp2629
g48
(g49
g50
NtRp2630
(dp2631
g53
(dp2632
g61
I5
ssg62
g2626
sg55
(lp2633
g48
(g57
g50
NtRp2634
(dp2635
g53
(dp2636
g61
I4
ssg62
Nsg55
(lp2637
sbasbasbasbag48
(g64
g50
NtRp2638
(dp2639
g53
(dp2640
sg62
g58
sg55
(lp2641
g48
(g69
g50
NtRp2642
(dp2643
g53
(dp2644
g73
g74
ssg62
g2638
sg55
(lp2645
S'url'
p2646
asbag48
(g69
g50
NtRp2647
(dp2648
g53
(dp2649
g80
g81
ssg62
g2638
sg55
(lp2650
S':'
asbag48
(g69
g50
NtRp2651
(dp2652
g53
(dp2653
sg62
g2638
sg55
(lp2654
g48
(g49
g50
NtRp2655
(dp2656
g53
(dp2657
g61
I5
ssg62
g2651
sg55
(lp2658
S'/admin/default/check_version'
p2659
asbasbasbag48
(g64
g50
NtRp2660
(dp2661
g53
(dp2662
sg62
g58
sg55
(lp2663
g48
(g69
g50
NtRp2664
(dp2665
g53
(dp2666
g73
g74
ssg62
g2660
sg55
(lp2667
S'utcnow'
p2668
asbag48
(g69
g50
NtRp2669
(dp2670
g53
(dp2671
g80
g81
ssg62
g2660
sg55
(lp2672
S':'
asbag48
(g69
g50
NtRp2673
(dp2674
g53
(dp2675
sg62
g2660
sg55
(lp2676
g48
(g49
g50
NtRp2677
(dp2678
g53
(dp2679
g61
I5
ssg62
g2673
sg55
(lp2680
S'datetime.datetime(2012, 1, 16, 20, 10, 10, 523000)'
p2681
asbasbasbag48
(g64
g50
NtRp2682
(dp2683
g53
(dp2684
sg62
g58
sg55
(lp2685
g48
(g69
g50
NtRp2686
(dp2687
g53
(dp2688
g73
g74
ssg62
g2682
sg55
(lp2689
S'uuid'
p2690
asbag48
(g69
g50
NtRp2691
(dp2692
g53
(dp2693
g80
g81
ssg62
g2682
sg55
(lp2694
S':'
asbag48
(g69
g50
NtRp2695
(dp2696
g53
(dp2697
sg62
g2682
sg55
(lp2698
g48
(g49
g50
NtRp2699
(dp2700
g53
(dp2701
g61
I5
ssg62
g2695
sg55
(lp2702
S'admin/127.0.0.1.2012-01-17.07-10-10.05f60dde-e677-402c-8198-9b533b3d6793'
p2703
asbasbasbag48
(g64
g50
NtRp2704
(dp2705
g53
(dp2706
sg62
g58
sg55
(lp2707
g48
(g69
g50
NtRp2708
(dp2709
g53
(dp2710
g73
g74
ssg62
g2704
sg55
(lp2711
S'vars'
p2712
asbag48
(g69
g50
NtRp2713
(dp2714
g53
(dp2715
g80
g81
ssg62
g2704
sg55
(lp2716
S':'
asbag48
(g69
g50
NtRp2717
(dp2718
g53
(dp2719
sg62
g2704
sg55
(lp2720
g48
(g49
g50
NtRp2721
(dp2722
g53
(dp2723
g61
I5
ssg62
g2717
sg55
(lp2724
g48
(g57
g50
NtRp2725
(dp2726
g53
(dp2727
g61
I4
ssg62
Nsg55
(lp2728
sbasbasbasbag48
(g64
g50
NtRp2729
(dp2730
g53
(dp2731
sg62
g58
sg55
(lp2732
g48
(g69
g50
NtRp2733
(dp2734
g53
(dp2735
g73
g74
ssg62
g2729
sg55
(lp2736
S'wsgi'
p2737
asbag48
(g69
g50
NtRp2738
(dp2739
g53
(dp2740
g80
g81
ssg62
g2729
sg55
(lp2741
S':'
asbag48
(g69
g50
NtRp2742
(dp2743
g53
(dp2744
sg62
g2729
sg55
(lp2745
g48
(g49
g50
NtRp2746
(dp2747
g53
(dp2748
g61
I5
ssg62
g2742
sg55
(lp2749
g48
(g57
g50
NtRp2750
(dp2751
g53
(dp2752
g61
I4
ssg62
Nsg55
(lp2753
g48
(g64
g50
NtRp2754
(dp2755
g53
(dp2756
sg62
g2750
sg55
(lp2757
g48
(g69
g50
NtRp2758
(dp2759
g53
(dp2760
g73
g74
ssg62
g2754
sg55
(lp2761
S'environ'
p2762
asbag48
(g69
g50
NtRp2763
(dp2764
g53
(dp2765
g80
g81
ssg62
g2754
sg55
(lp2766
S':'
asbag48
(g69
g50
NtRp2767
(dp2768
g53
(dp2769
sg62
g2754
sg55
(lp2770
g48
(g49
g50
NtRp2771
(dp2772
g53
(dp2773
g61
I4
ssg62
g2767
sg55
(lp2774
g48
(g57
g50
NtRp2775
(dp2776
g53
(dp2777
g61
I3
ssg62
Nsg55
(lp2778
g48
(g64
g50
NtRp2779
(dp2780
g53
(dp2781
sg62
g2775
sg55
(lp2782
g48
(g69
g50
NtRp2783
(dp2784
g53
(dp2785
g73
g74
ssg62
g2779
sg55
(lp2786
S'CONTENT_LENGTH'
p2787
asbag48
(g69
g50
NtRp2788
(dp2789
g53
(dp2790
g80
g81
ssg62
g2779
sg55
(lp2791
S':'
asbag48
(g69
g50
NtRp2792
(dp2793
g53
(dp2794
sg62
g2779
sg55
(lp2795
g48
(g49
g50
NtRp2796
(dp2797
g53
(dp2798
g61
I3
ssg62
g2792
sg55
(lp2799
S'0'
asbasbasbag48
(g64
g50
NtRp2800
(dp2801
g53
(dp2802
sg62
g2775
sg55
(lp2803
g48
(g69
g50
NtRp2804
(dp2805
g53
(dp2806
g73
g74
ssg62
g2800
sg55
(lp2807
S'HTTP_ACCEPT'
p2808
asbag48
(g69
g50
NtRp2809
(dp2810
g53
(dp2811
g80
g81
ssg62
g2800
sg55
(lp2812
S':'
asbag48
(g69
g50
NtRp2813
(dp2814
g53
(dp2815
sg62
g2800
sg55
(lp2816
g48
(g49
g50
NtRp2817
(dp2818
g53
(dp2819
g61
I3
ssg62
g2813
sg55
(lp2820
g1285
asbasbasbag48
(g64
g50
NtRp2821
(dp2822
g53
(dp2823
sg62
g2775
sg55
(lp2824
g48
(g69
g50
NtRp2825
(dp2826
g53
(dp2827
g73
g74
ssg62
g2821
sg55
(lp2828
S'HTTP_ACCEPT_CHARSET'
p2829
asbag48
(g69
g50
NtRp2830
(dp2831
g53
(dp2832
g80
g81
ssg62
g2821
sg55
(lp2833
S':'
asbag48
(g69
g50
NtRp2834
(dp2835
g53
(dp2836
sg62
g2821
sg55
(lp2837
g48
(g49
g50
NtRp2838
(dp2839
g53
(dp2840
g61
I3
ssg62
g2834
sg55
(lp2841
g1307
asbasbasbag48
(g64
g50
NtRp2842
(dp2843
g53
(dp2844
sg62
g2775
sg55
(lp2845
g48
(g69
g50
NtRp2846
(dp2847
g53
(dp2848
g73
g74
ssg62
g2842
sg55
(lp2849
S'HTTP_ACCEPT_ENCODING'
p2850
asbag48
(g69
g50
NtRp2851
(dp2852
g53
(dp2853
g80
g81
ssg62
g2842
sg55
(lp2854
S':'
asbag48
(g69
g50
NtRp2855
(dp2856
g53
(dp2857
sg62
g2842
sg55
(lp2858
g48
(g49
g50
NtRp2859
(dp2860
g53
(dp2861
g61
I3
ssg62
g2855
sg55
(lp2862
g1329
asbasbasbag48
(g64
g50
NtRp2863
(dp2864
g53
(dp2865
sg62
g2775
sg55
(lp2866
g48
(g69
g50
NtRp2867
(dp2868
g53
(dp2869
g73
g74
ssg62
g2863
sg55
(lp2870
S'HTTP_ACCEPT_LANGUAGE'
p2871
asbag48
(g69
g50
NtRp2872
(dp2873
g53
(dp2874
g80
g81
ssg62
g2863
sg55
(lp2875
S':'
asbag48
(g69
g50
NtRp2876
(dp2877
g53
(dp2878
sg62
g2863
sg55
(lp2879
g48
(g49
g50
NtRp2880
(dp2881
g53
(dp2882
g61
I3
ssg62
g2876
sg55
(lp2883
g1351
asbasbasbag48
(g64
g50
NtRp2884
(dp2885
g53
(dp2886
sg62
g2775
sg55
(lp2887
g48
(g69
g50
NtRp2888
(dp2889
g53
(dp2890
g73
g74
ssg62
g2884
sg55
(lp2891
S'HTTP_CONNECTION'
p2892
asbag48
(g69
g50
NtRp2893
(dp2894
g53
(dp2895
g80
g81
ssg62
g2884
sg55
(lp2896
S':'
asbag48
(g69
g50
NtRp2897
(dp2898
g53
(dp2899
sg62
g2884
sg55
(lp2900
g48
(g49
g50
NtRp2901
(dp2902
g53
(dp2903
g61
I3
ssg62
g2897
sg55
(lp2904
g1373
asbasbasbag48
(g64
g50
NtRp2905
(dp2906
g53
(dp2907
sg62
g2775
sg55
(lp2908
g48
(g69
g50
NtRp2909
(dp2910
g53
(dp2911
g73
g74
ssg62
g2905
sg55
(lp2912
S'HTTP_CONTENT_LENGTH'
p2913
asbag48
(g69
g50
NtRp2914
(dp2915
g53
(dp2916
g80
g81
ssg62
g2905
sg55
(lp2917
S':'
asbag48
(g69
g50
NtRp2918
(dp2919
g53
(dp2920
sg62
g2905
sg55
(lp2921
g48
(g49
g50
NtRp2922
(dp2923
g53
(dp2924
g61
I3
ssg62
g2918
sg55
(lp2925
S'0'
asbasbasbag48
(g64
g50
NtRp2926
(dp2927
g53
(dp2928
sg62
g2775
sg55
(lp2929
g48
(g69
g50
NtRp2930
(dp2931
g53
(dp2932
g73
g74
ssg62
g2926
sg55
(lp2933
S'HTTP_COOKIE'
p2934
asbag48
(g69
g50
NtRp2935
(dp2936
g53
(dp2937
g80
g81
ssg62
g2926
sg55
(lp2938
S':'
asbag48
(g69
g50
NtRp2939
(dp2940
g53
(dp2941
sg62
g2926
sg55
(lp2942
g48
(g49
g50
NtRp2943
(dp2944
g53
(dp2945
g61
I3
ssg62
g2939
sg55
(lp2946
g1416
asbasbasbag48
(g64
g50
NtRp2947
(dp2948
g53
(dp2949
sg62
g2775
sg55
(lp2950
g48
(g69
g50
NtRp2951
(dp2952
g53
(dp2953
g73
g74
ssg62
g2947
sg55
(lp2954
S'HTTP_HOST'
p2955
asbag48
(g69
g50
NtRp2956
(dp2957
g53
(dp2958
g80
g81
ssg62
g2947
sg55
(lp2959
S':'
asbag48
(g69
g50
NtRp2960
(dp2961
g53
(dp2962
sg62
g2947
sg55
(lp2963
g48
(g49
g50
NtRp2964
(dp2965
g53
(dp2966
g61
I3
ssg62
g2960
sg55
(lp2967
g1438
asbasbasbag48
(g64
g50
NtRp2968
(dp2969
g53
(dp2970
sg62
g2775
sg55
(lp2971
g48
(g69
g50
NtRp2972
(dp2973
g53
(dp2974
g73
g74
ssg62
g2968
sg55
(lp2975
S'HTTP_ORIGIN'
p2976
asbag48
(g69
g50
NtRp2977
(dp2978
g53
(dp2979
g80
g81
ssg62
g2968
sg55
(lp2980
S':'
asbag48
(g69
g50
NtRp2981
(dp2982
g53
(dp2983
sg62
g2968
sg55
(lp2984
g48
(g49
g50
NtRp2985
(dp2986
g53
(dp2987
g61
I3
ssg62
g2981
sg55
(lp2988
g1460
asbasbasbag48
(g64
g50
NtRp2989
(dp2990
g53
(dp2991
sg62
g2775
sg55
(lp2992
g48
(g69
g50
NtRp2993
(dp2994
g53
(dp2995
g73
g74
ssg62
g2989
sg55
(lp2996
S'HTTP_REFERER'
p2997
asbag48
(g69
g50
NtRp2998
(dp2999
g53
(dp3000
g80
g81
ssg62
g2989
sg55
(lp3001
S':'
asbag48
(g69
g50
NtRp3002
(dp3003
g53
(dp3004
sg62
g2989
sg55
(lp3005
g48
(g49
g50
NtRp3006
(dp3007
g53
(dp3008
g61
I3
ssg62
g3002
sg55
(lp3009
g1482
asbasbasbag48
(g64
g50
NtRp3010
(dp3011
g53
(dp3012
sg62
g2775
sg55
(lp3013
g48
(g69
g50
NtRp3014
(dp3015
g53
(dp3016
g73
g74
ssg62
g3010
sg55
(lp3017
S'HTTP_USER_AGENT'
p3018
asbag48
(g69
g50
NtRp3019
(dp3020
g53
(dp3021
g80
g81
ssg62
g3010
sg55
(lp3022
S':'
asbag48
(g69
g50
NtRp3023
(dp3024
g53
(dp3025
sg62
g3010
sg55
(lp3026
g48
(g49
g50
NtRp3027
(dp3028
g53
(dp3029
g61
I3
ssg62
g3023
sg55
(lp3030
g1504
asbasbasbag48
(g64
g50
NtRp3031
(dp3032
g53
(dp3033
sg62
g2775
sg55
(lp3034
g48
(g69
g50
NtRp3035
(dp3036
g53
(dp3037
g73
g74
ssg62
g3031
sg55
(lp3038
S'HTTP_X_REQUESTED_WITH'
p3039
asbag48
(g69
g50
NtRp3040
(dp3041
g53
(dp3042
g80
g81
ssg62
g3031
sg55
(lp3043
S':'
asbag48
(g69
g50
NtRp3044
(dp3045
g53
(dp3046
sg62
g3031
sg55
(lp3047
g48
(g49
g50
NtRp3048
(dp3049
g53
(dp3050
g61
I3
ssg62
g3044
sg55
(lp3051
g1526
asbasbasbag48
(g64
g50
NtRp3052
(dp3053
g53
(dp3054
sg62
g2775
sg55
(lp3055
g48
(g69
g50
NtRp3056
(dp3057
g53
(dp3058
g73
g74
ssg62
g3052
sg55
(lp3059
S'PATH_INFO'
p3060
asbag48
(g69
g50
NtRp3061
(dp3062
g53
(dp3063
g80
g81
ssg62
g3052
sg55
(lp3064
S':'
asbag48
(g69
g50
NtRp3065
(dp3066
g53
(dp3067
sg62
g3052
sg55
(lp3068
g48
(g49
g50
NtRp3069
(dp3070
g53
(dp3071
g61
I3
ssg62
g3065
sg55
(lp3072
g1569
asbasbasbag48
(g64
g50
NtRp3073
(dp3074
g53
(dp3075
sg62
g2775
sg55
(lp3076
g48
(g69
g50
NtRp3077
(dp3078
g53
(dp3079
g73
g74
ssg62
g3073
sg55
(lp3080
S'QUERY_STRING'
p3081
asbag48
(g69
g50
NtRp3082
(dp3083
g53
(dp3084
g80
g81
ssg62
g3073
sg55
(lp3085
S':'
asbag48
(g69
g50
NtRp3086
(dp3087
g53
(dp3088
sg62
g3073
sg55
(lp3089
g48
(g49
g50
NtRp3090
(dp3091
g53
(dp3092
g61
I3
ssg62
g3086
sg55
(lp3093
S''
asbasbasbag48
(g64
g50
NtRp3094
(dp3095
g53
(dp3096
sg62
g2775
sg55
(lp3097
g48
(g69
g50
NtRp3098
(dp3099
g53
(dp3100
g73
g74
ssg62
g3094
sg55
(lp3101
S'REMOTE_ADDR'
p3102
asbag48
(g69
g50
NtRp3103
(dp3104
g53
(dp3105
g80
g81
ssg62
g3094
sg55
(lp3106
S':'
asbag48
(g69
g50
NtRp3107
(dp3108
g53
(dp3109
sg62
g3094
sg55
(lp3110
g48
(g49
g50
NtRp3111
(dp3112
g53
(dp3113
g61
I3
ssg62
g3107
sg55
(lp3114
g181
asbasbasbag48
(g64
g50
NtRp3115
(dp3116
g53
(dp3117
sg62
g2775
sg55
(lp3118
g48
(g69
g50
NtRp3119
(dp3120
g53
(dp3121
g73
g74
ssg62
g3115
sg55
(lp3122
S'REMOTE_PORT'
p3123
asbag48
(g69
g50
NtRp3124
(dp3125
g53
(dp3126
g80
g81
ssg62
g3115
sg55
(lp3127
S':'
asbag48
(g69
g50
NtRp3128
(dp3129
g53
(dp3130
sg62
g3115
sg55
(lp3131
g48
(g49
g50
NtRp3132
(dp3133
g53
(dp3134
g61
I3
ssg62
g3128
sg55
(lp3135
g1633
asbasbasbag48
(g64
g50
NtRp3136
(dp3137
g53
(dp3138
sg62
g2775
sg55
(lp3139
g48
(g69
g50
NtRp3140
(dp3141
g53
(dp3142
g73
g74
ssg62
g3136
sg55
(lp3143
S'REQUEST_METHOD'
p3144
asbag48
(g69
g50
NtRp3145
(dp3146
g53
(dp3147
g80
g81
ssg62
g3136
sg55
(lp3148
S':'
asbag48
(g69
g50
NtRp3149
(dp3150
g53
(dp3151
sg62
g3136
sg55
(lp3152
g48
(g49
g50
NtRp3153
(dp3154
g53
(dp3155
g61
I3
ssg62
g3149
sg55
(lp3156
g1655
asbasbasbag48
(g64
g50
NtRp3157
(dp3158
g53
(dp3159
sg62
g2775
sg55
(lp3160
g48
(g69
g50
NtRp3161
(dp3162
g53
(dp3163
g73
g74
ssg62
g3157
sg55
(lp3164
S'REQUEST_URI'
p3165
asbag48
(g69
g50
NtRp3166
(dp3167
g53
(dp3168
g80
g81
ssg62
g3157
sg55
(lp3169
S':'
asbag48
(g69
g50
NtRp3170
(dp3171
g53
(dp3172
sg62
g3157
sg55
(lp3173
g48
(g49
g50
NtRp3174
(dp3175
g53
(dp3176
g61
I3
ssg62
g3170
sg55
(lp3177
g1569
asbasbasbag48
(g64
g50
NtRp3178
(dp3179
g53
(dp3180
sg62
g2775
sg55
(lp3181
g48
(g69
g50
NtRp3182
(dp3183
g53
(dp3184
g73
g74
ssg62
g3178
sg55
(lp3185
S'SCRIPT_NAME'
p3186
asbag48
(g69
g50
NtRp3187
(dp3188
g53
(dp3189
g80
g81
ssg62
g3178
sg55
(lp3190
S':'
asbag48
(g69
g50
NtRp3191
(dp3192
g53
(dp3193
sg62
g3178
sg55
(lp3194
g48
(g49
g50
NtRp3195
(dp3196
g53
(dp3197
g61
I3
ssg62
g3191
sg55
(lp3198
S''
asbasbasbag48
(g64
g50
NtRp3199
(dp3200
g53
(dp3201
sg62
g2775
sg55
(lp3202
g48
(g69
g50
NtRp3203
(dp3204
g53
(dp3205
g73
g74
ssg62
g3199
sg55
(lp3206
S'SERVER_NAME'
p3207
asbag48
(g69
g50
NtRp3208
(dp3209
g53
(dp3210
g80
g81
ssg62
g3199
sg55
(lp3211
S':'
asbag48
(g69
g50
NtRp3212
(dp3213
g53
(dp3214
sg62
g3199
sg55
(lp3215
g48
(g49
g50
NtRp3216
(dp3217
g53
(dp3218
g61
I3
ssg62
g3212
sg55
(lp3219
g1719
asbasbasbag48
(g64
g50
NtRp3220
(dp3221
g53
(dp3222
sg62
g2775
sg55
(lp3223
g48
(g69
g50
NtRp3224
(dp3225
g53
(dp3226
g73
g74
ssg62
g3220
sg55
(lp3227
S'SERVER_PORT'
p3228
asbag48
(g69
g50
NtRp3229
(dp3230
g53
(dp3231
g80
g81
ssg62
g3220
sg55
(lp3232
S':'
asbag48
(g69
g50
NtRp3233
(dp3234
g53
(dp3235
sg62
g3220
sg55
(lp3236
g48
(g49
g50
NtRp3237
(dp3238
g53
(dp3239
g61
I3
ssg62
g3233
sg55
(lp3240
g1741
asbasbasbag48
(g64
g50
NtRp3241
(dp3242
g53
(dp3243
sg62
g2775
sg55
(lp3244
g48
(g69
g50
NtRp3245
(dp3246
g53
(dp3247
g73
g74
ssg62
g3241
sg55
(lp3248
S'SERVER_PROTOCOL'
p3249
asbag48
(g69
g50
NtRp3250
(dp3251
g53
(dp3252
g80
g81
ssg62
g3241
sg55
(lp3253
S':'
asbag48
(g69
g50
NtRp3254
(dp3255
g53
(dp3256
sg62
g3241
sg55
(lp3257
g48
(g49
g50
NtRp3258
(dp3259
g53
(dp3260
g61
I3
ssg62
g3254
sg55
(lp3261
g1763
asbasbasbag48
(g64
g50
NtRp3262
(dp3263
g53
(dp3264
sg62
g2775
sg55
(lp3265
g48
(g69
g50
NtRp3266
(dp3267
g53
(dp3268
g73
g74
ssg62
g3262
sg55
(lp3269
S'SERVER_SOFTWARE'
p3270
asbag48
(g69
g50
NtRp3271
(dp3272
g53
(dp3273
g80
g81
ssg62
g3262
sg55
(lp3274
S':'
asbag48
(g69
g50
NtRp3275
(dp3276
g53
(dp3277
sg62
g3262
sg55
(lp3278
g48
(g49
g50
NtRp3279
(dp3280
g53
(dp3281
g61
I3
ssg62
g3275
sg55
(lp3282
g1785
asbasbasbag48
(g64
g50
NtRp3283
(dp3284
g53
(dp3285
sg62
g2775
sg55
(lp3286
g48
(g69
g50
NtRp3287
(dp3288
g53
(dp3289
g73
g74
ssg62
g3283
sg55
(lp3290
S'WEB2PY_ORIGINAL_URI'
p3291
asbag48
(g69
g50
NtRp3292
(dp3293
g53
(dp3294
g80
g81
ssg62
g3283
sg55
(lp3295
S':'
asbag48
(g69
g50
NtRp3296
(dp3297
g53
(dp3298
sg62
g3283
sg55
(lp3299
g48
(g49
g50
NtRp3300
(dp3301
g53
(dp3302
g61
I3
ssg62
g3296
sg55
(lp3303
g1829
asbasbasbag48
(g64
g50
NtRp3304
(dp3305
g53
(dp3306
sg62
g2775
sg55
(lp3307
g48
(g69
g50
NtRp3308
(dp3309
g53
(dp3310
g73
g74
ssg62
g3304
sg55
(lp3311
S'wsgi.errors'
p3312
asbag48
(g69
g50
NtRp3313
(dp3314
g53
(dp3315
g80
g81
ssg62
g3304
sg55
(lp3316
S':'
asbag48
(g69
g50
NtRp3317
(dp3318
g53
(dp3319
sg62
g3304
sg55
(lp3320
g48
(g49
g50
NtRp3321
(dp3322
g53
(dp3323
g61
I3
ssg62
g3317
sg55
(lp3324
S"<open file '<stderr>', mode 'w' at 0x004600B0>"
p3325
asbasbasbag48
(g64
g50
NtRp3326
(dp3327
g53
(dp3328
sg62
g2775
sg55
(lp3329
g48
(g69
g50
NtRp3330
(dp3331
g53
(dp3332
g73
g74
ssg62
g3326
sg55
(lp3333
S'wsgi.file_wrapper'
p3334
asbag48
(g69
g50
NtRp3335
(dp3336
g53
(dp3337
g80
g81
ssg62
g3326
sg55
(lp3338
S':'
asbag48
(g69
g50
NtRp3339
(dp3340
g53
(dp3341
sg62
g3326
sg55
(lp3342
g48
(g49
g50
NtRp3343
(dp3344
g53
(dp3345
g61
I3
ssg62
g3339
sg55
(lp3346
S'<class wsgiref.util.FileWrapper at 0x03108570>'
p3347
asbasbasbag48
(g64
g50
NtRp3348
(dp3349
g53
(dp3350
sg62
g2775
sg55
(lp3351
g48
(g69
g50
NtRp3352
(dp3353
g53
(dp3354
g73
g74
ssg62
g3348
sg55
(lp3355
S'wsgi.input'
p3356
asbag48
(g69
g50
NtRp3357
(dp3358
g53
(dp3359
g80
g81
ssg62
g3348
sg55
(lp3360
S':'
asbag48
(g69
g50
NtRp3361
(dp3362
g53
(dp3363
sg62
g3348
sg55
(lp3364
g48
(g49
g50
NtRp3365
(dp3366
g53
(dp3367
g61
I3
ssg62
g3361
sg55
(lp3368
S"<open file '<fdopen>', mode 'w+b' at 0x096B9848>"
p3369
asbasbasbag48
(g64
g50
NtRp3370
(dp3371
g53
(dp3372
sg62
g2775
sg55
(lp3373
g48
(g69
g50
NtRp3374
(dp3375
g53
(dp3376
g73
g74
ssg62
g3370
sg55
(lp3377
S'wsgi.multiprocess'
p3378
asbag48
(g69
g50
NtRp3379
(dp3380
g53
(dp3381
g80
g81
ssg62
g3370
sg55
(lp3382
S':'
asbag48
(g69
g50
NtRp3383
(dp3384
g53
(dp3385
sg62
g3370
sg55
(lp3386
g48
(g49
g50
NtRp3387
(dp3388
g53
(dp3389
g61
I3
ssg62
g3383
sg55
(lp3390
g1241
asbasbasbag48
(g64
g50
NtRp3391
(dp3392
g53
(dp3393
sg62
g2775
sg55
(lp3394
g48
(g69
g50
NtRp3395
(dp3396
g53
(dp3397
g73
g74
ssg62
g3391
sg55
(lp3398
S'wsgi.multithread'
p3399
asbag48
(g69
g50
NtRp3400
(dp3401
g53
(dp3402
g80
g81
ssg62
g3391
sg55
(lp3403
S':'
asbag48
(g69
g50
NtRp3404
(dp3405
g53
(dp3406
sg62
g3391
sg55
(lp3407
g48
(g49
g50
NtRp3408
(dp3409
g53
(dp3410
g61
I3
ssg62
g3404
sg55
(lp3411
g91
asbasbasbag48
(g64
g50
NtRp3412
(dp3413
g53
(dp3414
sg62
g2775
sg55
(lp3415
g48
(g69
g50
NtRp3416
(dp3417
g53
(dp3418
g73
g74
ssg62
g3412
sg55
(lp3419
S'wsgi.run_once'
p3420
asbag48
(g69
g50
NtRp3421
(dp3422
g53
(dp3423
g80
g81
ssg62
g3412
sg55
(lp3424
S':'
asbag48
(g69
g50
NtRp3425
(dp3426
g53
(dp3427
sg62
g3412
sg55
(lp3428
g48
(g49
g50
NtRp3429
(dp3430
g53
(dp3431
g61
I3
ssg62
g3425
sg55
(lp3432
g1241
asbasbasbag48
(g64
g50
NtRp3433
(dp3434
g53
(dp3435
sg62
g2775
sg55
(lp3436
g48
(g69
g50
NtRp3437
(dp3438
g53
(dp3439
g73
g74
ssg62
g3433
sg55
(lp3440
S'wsgi.url_scheme'
p3441
asbag48
(g69
g50
NtRp3442
(dp3443
g53
(dp3444
g80
g81
ssg62
g3433
sg55
(lp3445
S':'
asbag48
(g69
g50
NtRp3446
(dp3447
g53
(dp3448
sg62
g3433
sg55
(lp3449
g48
(g49
g50
NtRp3450
(dp3451
g53
(dp3452
g61
I3
ssg62
g3446
sg55
(lp3453
g2089
asbasbasbag48
(g64
g50
NtRp3454
(dp3455
g53
(dp3456
sg62
g2775
sg55
(lp3457
g48
(g69
g50
NtRp3458
(dp3459
g53
(dp3460
g73
g74
ssg62
g3454
sg55
(lp3461
S'wsgi.version'
p3462
asbag48
(g69
g50
NtRp3463
(dp3464
g53
(dp3465
g80
g81
ssg62
g3454
sg55
(lp3466
S':'
asbag48
(g69
g50
NtRp3467
(dp3468
g53
(dp3469
sg62
g3454
sg55
(lp3470
g48
(g49
g50
NtRp3471
(dp3472
g53
(dp3473
g61
I3
ssg62
g3467
sg55
(lp3474
S'1'
asbasbasbasbasbasbasbasbasbasbasbasbasbsS'frames'
p3475
(lp3476
(dp3477
S'file'
p3478
S'D:\\Dropbox\\Eclipse\\OJDevSourceProject\\project\\web2py\\gluon\\restricted.py'
p3479
sS'dump'
p3480
(dp3481
S'environment'
p3482
S"{'A': <class 'gluon.html.A'>, 'ALLOW_TOGGLE': 'true', 'B': <class 'gluon.html.B'>, 'BEAUTIFY': <class 'gluon.html.BEAUTIFY'>, 'BODY': <class 'gluon.html.BODY'>, 'BR': <class 'gluon.html.BR'>, 'BUTTON': <class 'gluon.html.BUTTON'>, 'CAT': <class 'gluon.html.CAT'>, 'CENTER': <class 'gluon.html.CENTER'>, 'CHECK_VERSION': True, ...}"
p3483
sS'ccode'
p3484
S'<code object <module> at 09870B60, file "D:\\Drop...plications\\admin\\controllers/default.py", line 3>'
p3485
ssS'lnum'
p3486
I194
sS'lines'
p3487
(dp3488
I192
S'        else:'
p3489
sI193
S'            ccode = compile2(code,layer)'
p3490
sI194
S'        exec ccode in environment'
p3491
sI195
S'    except HTTP:'
p3492
sI196
S'        raise'
p3493
sI197
S'    except Exception, error:'
p3494
sI198
S'        # XXX Show exception in Wing IDE if running in debugger'
p3495
sI189
S'    try:'
p3496
sI190
S'        if type(code) == types.CodeType:'
p3497
sI191
S'            ccode = code'
p3498
ssS'call'
p3499
S"(code='# coding: utf8\\n\\nfrom gluon.admin import *\\nfrom g...\\n\\nresponse._vars=response._caller(check_version)\\n', environment={'A': <class 'gluon.html.A'>, 'ALLOW_TOGGLE': 'true', 'B': <class 'gluon.html.B'>, 'BEAUTIFY': <class 'gluon.html.BEAUTIFY'>, 'BODY': <class 'gluon.html.BODY'>, 'BR': <class 'gluon.html.BR'>, 'BUTTON': <class 'gluon.html.BUTTON'>, 'CAT': <class 'gluon.html.CAT'>, 'CENTER': <class 'gluon.html.CENTER'>, 'CHECK_VERSION': True, ...}, layer=r'D:\\Dropbox\\Eclipse\\OJDevSourceProject\\project\\web2py\\applications\\admin\\controllers/default.py')"
p3500
sS'func'
p3501
S'restricted'
p3502
sa(dp3503
g3478
S'D:\\Dropbox\\Eclipse\\OJDevSourceProject\\project\\web2py\\applications\\admin\\controllers\\default.py'
p3504
sg3480
(dp3505
sg3486
I1225
sg3487
(dp3506
I1216
S'    else:'
p3507
sI1217
S'        return dict(form=T("Disabled"))'
p3508
sI1218
S''
sI1219
S'def reload_routes():'
p3509
sI1220
S'    """ Reload routes.py """'
p3510
sI1221
S'    import gluon.rewrite'
p3511
sI1222
S'    gluon.rewrite.load()'
p3512
sI1223
S"    redirect(URL('site'))"
p3513
sI1214
S'            auth.settings.registration_requires_approval = False'
p3514
sI1215
S'        return dict(form=auth())'
p3515
ssg3499
S'()'
p3516
sg3501
S'<module>'
p3517
sa(dp3518
g3478
S'D:\\Dropbox\\Eclipse\\OJDevSourceProject\\project\\web2py\\gluon\\globals.py'
p3519
sg3480
(dp3520
S'self'
p3521
S'undefined'
p3522
sS'f'
S'<function check_version at 0x096D39B0>'
p3523
ssg3486
I149
sg3487
(dp3524
I144
S'        self.meta = Storage()      # used by web2py_ajax.html'
p3525
sI145
S'        self.menu = []             # used by the default view layout'
p3526
sI146
S'        self.files = []            # used by web2py_ajax.html'
p3527
sI147
S'        self.generic_patterns = [] # patterns to allow generic views'
p3528
sI148
S'        self._vars = None'
p3529
sI149
S'        self._caller = lambda f: f()'
p3530
sI150
S'        self._view_environment = None'
p3531
sI151
S'        self._custom_commit = None'
p3532
sI152
S'        self._custom_rollback = None'
p3533
sI153
S''
ssg3499
S'(f=<function check_version at 0x096D39B0>)'
p3534
sg3501
S'<lambda>'
p3535
sa(dp3536
g3478
S'D:\\Dropbox\\Eclipse\\OJDevSourceProject\\project\\web2py\\applications\\admin\\controllers\\default.py'
p3537
sg3480
(dp3538
S'global XML'
p3539
S"<class 'gluon.html.XML'>"
p3540
sS'version_number'
p3541
S"(1, 99, 4, datetime.datetime(2011, 12, 14, 14, 46, 14), 'stable')"
p3542
ssg3486
I105
sg3487
(dp3543
I100
S"        return A(T('web2py is up to date'), _href=WEB2PY_URL)"
p3544
sI101
S'    elif platform.system().lower() in (\'windows\',\'win32\',\'win64\') and os.path.exists("web2py.exe"):'
p3545
sI102
S"        return SPAN('You should upgrade to version %s' % version_number)"
p3546
sI103
S'    else:'
p3547
sI104
S"        return sp_button(URL('upgrade_web2py'), T('upgrade now')) \\"
p3548
sI105
S'          + XML(\' <strong class="upgrade_version">%s</strong>\' % version_number)'
p3549
sI106
S''
sI107
S''
sI108
S'def logout():'
p3550
sI109
S'    """ Logout handler """'
p3551
ssg3499
S'()'
p3552
sg3501
S'check_version'
p3553
sasS'pyver'
p3554
S'Python 2.5.4: C:\\python25\\python.exe'
p3555
sS'session'
p3556
g48
(g49
g50
NtRp3557
(dp3558
g53
(dp3559
sg55
(lp3560
g48
(g57
g50
NtRp3561
(dp3562
g53
(dp3563
g61
I5
ssg62
Nsg55
(lp3564
g48
(g64
g50
NtRp3565
(dp3566
g53
(dp3567
sg62
g3561
sg55
(lp3568
g48
(g69
g50
NtRp3569
(dp3570
g53
(dp3571
g73
g74
ssg62
g3565
sg55
(lp3572
S'authorized'
p3573
asbag48
(g69
g50
NtRp3574
(dp3575
g53
(dp3576
g80
g81
ssg62
g3565
sg55
(lp3577
S':'
asbag48
(g69
g50
NtRp3578
(dp3579
g53
(dp3580
sg62
g3565
sg55
(lp3581
g48
(g49
g50
NtRp3582
(dp3583
g53
(dp3584
g61
I5
ssg62
g3578
sg55
(lp3585
g91
asbasbasbag48
(g64
g50
NtRp3586
(dp3587
g53
(dp3588
sg62
g3561
sg55
(lp3589
g48
(g69
g50
NtRp3590
(dp3591
g53
(dp3592
g73
g74
ssg62
g3586
sg55
(lp3593
S'check_version'
p3594
asbag48
(g69
g50
NtRp3595
(dp3596
g53
(dp3597
g80
g81
ssg62
g3586
sg55
(lp3598
S':'
asbag48
(g69
g50
NtRp3599
(dp3600
g53
(dp3601
sg62
g3586
sg55
(lp3602
g48
(g49
g50
NtRp3603
(dp3604
g53
(dp3605
g61
I5
ssg62
g3599
sg55
(lp3606
g1241
asbasbasbag48
(g64
g50
NtRp3607
(dp3608
g53
(dp3609
sg62
g3561
sg55
(lp3610
g48
(g69
g50
NtRp3611
(dp3612
g53
(dp3613
g73
g74
ssg62
g3607
sg55
(lp3614
S'last_time'
p3615
asbag48
(g69
g50
NtRp3616
(dp3617
g53
(dp3618
g80
g81
ssg62
g3607
sg55
(lp3619
S':'
asbag48
(g69
g50
NtRp3620
(dp3621
g53
(dp3622
sg62
g3607
sg55
(lp3623
g48
(g49
g50
NtRp3624
(dp3625
g53
(dp3626
g61
I5
ssg62
g3620
sg55
(lp3627
S'1326744610.543'
p3628
asbasbasbasbasbsS'etype'
p3629
S"<type 'exceptions.TypeError'>"
p3630
sS'date'
p3631
S'Tue Jan 17 07:10:10 2012'
p3632
sS'response'
p3633
g48
(g49
g50
NtRp3634
(dp3635
g53
(dp3636
sg55
(lp3637
g48
(g57
g50
NtRp3638
(dp3639
g53
(dp3640
g61
I5
ssg62
Nsg55
(lp3641
g48
(g64
g50
NtRp3642
(dp3643
g53
(dp3644
sg62
g3638
sg55
(lp3645
g48
(g69
g50
NtRp3646
(dp3647
g53
(dp3648
g73
g74
ssg62
g3642
sg55
(lp3649
g146
asbag48
(g69
g50
NtRp3650
(dp3651
g53
(dp3652
g80
g81
ssg62
g3642
sg55
(lp3653
S':'
asbag48
(g69
g50
NtRp3654
(dp3655
g53
(dp3656
sg62
g3642
sg55
(lp3657
g48
(g49
g50
NtRp3658
(dp3659
g53
(dp3660
g61
I5
ssg62
g3654
sg55
(lp3661
S'<cStringIO.StringO object at 0x096D8680>'
p3662
asbasbasbag48
(g64
g50
NtRp3663
(dp3664
g53
(dp3665
sg62
g3638
sg55
(lp3666
g48
(g69
g50
NtRp3667
(dp3668
g53
(dp3669
g73
g74
ssg62
g3663
sg55
(lp3670
g212
asbag48
(g69
g50
NtRp3671
(dp3672
g53
(dp3673
g80
g81
ssg62
g3663
sg55
(lp3674
S':'
asbag48
(g69
g50
NtRp3675
(dp3676
g53
(dp3677
sg62
g3663
sg55
(lp3678
g48
(g49
g50
NtRp3679
(dp3680
g53
(dp3681
g61
I5
ssg62
g3675
sg55
(lp3682
g48
(g57
g50
NtRp3683
(dp3684
g53
(dp3685
g61
I4
ssg62
Nsg55
(lp3686
g48
(g64
g50
NtRp3687
(dp3688
g53
(dp3689
sg62
g3683
sg55
(lp3690
g48
(g69
g50
NtRp3691
(dp3692
g53
(dp3693
g73
g74
ssg62
g3687
sg55
(lp3694
S'session_id_admin'
p3695
asbag48
(g69
g50
NtRp3696
(dp3697
g53
(dp3698
g80
g81
ssg62
g3687
sg55
(lp3699
S':'
asbag48
(g69
g50
NtRp3700
(dp3701
g53
(dp3702
sg62
g3687
sg55
(lp3703
g48
(g49
g50
NtRp3704
(dp3705
g53
(dp3706
g61
I4
ssg62
g3700
sg55
(lp3707
g48
(g57
g50
NtRp3708
(dp3709
g53
(dp3710
g61
I3
ssg62
Nsg55
(lp3711
g48
(g64
g50
NtRp3712
(dp3713
g53
(dp3714
sg62
g3708
sg55
(lp3715
g48
(g69
g50
NtRp3716
(dp3717
g53
(dp3718
g73
g74
ssg62
g3712
sg55
(lp3719
g262
asbag48
(g69
g50
NtRp3720
(dp3721
g53
(dp3722
g80
g81
ssg62
g3712
sg55
(lp3723
S':'
asbag48
(g69
g50
NtRp3724
(dp3725
g53
(dp3726
sg62
g3712
sg55
(lp3727
g48
(g49
g50
NtRp3728
(dp3729
g53
(dp3730
g61
I3
ssg62
g3724
sg55
(lp3731
S''
asbasbasbag48
(g64
g50
NtRp3732
(dp3733
g53
(dp3734
sg62
g3708
sg55
(lp3735
g48
(g69
g50
NtRp3736
(dp3737
g53
(dp3738
g73
g74
ssg62
g3732
sg55
(lp3739
g283
asbag48
(g69
g50
NtRp3740
(dp3741
g53
(dp3742
g80
g81
ssg62
g3732
sg55
(lp3743
S':'
asbag48
(g69
g50
NtRp3744
(dp3745
g53
(dp3746
sg62
g3732
sg55
(lp3747
g48
(g49
g50
NtRp3748
(dp3749
g53
(dp3750
g61
I3
ssg62
g3744
sg55
(lp3751
S''
asbasbasbag48
(g64
g50
NtRp3752
(dp3753
g53
(dp3754
sg62
g3708
sg55
(lp3755
g48
(g69
g50
NtRp3756
(dp3757
g53
(dp3758
g73
g74
ssg62
g3752
sg55
(lp3759
g304
asbag48
(g69
g50
NtRp3760
(dp3761
g53
(dp3762
g80
g81
ssg62
g3752
sg55
(lp3763
S':'
asbag48
(g69
g50
NtRp3764
(dp3765
g53
(dp3766
sg62
g3752
sg55
(lp3767
g48
(g49
g50
NtRp3768
(dp3769
g53
(dp3770
g61
I3
ssg62
g3764
sg55
(lp3771
S''
asbasbasbag48
(g64
g50
NtRp3772
(dp3773
g53
(dp3774
sg62
g3708
sg55
(lp3775
g48
(g69
g50
NtRp3776
(dp3777
g53
(dp3778
g73
g74
ssg62
g3772
sg55
(lp3779
g325
asbag48
(g69
g50
NtRp3780
(dp3781
g53
(dp3782
g80
g81
ssg62
g3772
sg55
(lp3783
S':'
asbag48
(g69
g50
NtRp3784
(dp3785
g53
(dp3786
sg62
g3772
sg55
(lp3787
g48
(g49
g50
NtRp3788
(dp3789
g53
(dp3790
g61
I3
ssg62
g3784
sg55
(lp3791
S''
asbasbasbag48
(g64
g50
NtRp3792
(dp3793
g53
(dp3794
sg62
g3708
sg55
(lp3795
g48
(g69
g50
NtRp3796
(dp3797
g53
(dp3798
g73
g74
ssg62
g3792
sg55
(lp3799
g346
asbag48
(g69
g50
NtRp3800
(dp3801
g53
(dp3802
g80
g81
ssg62
g3792
sg55
(lp3803
S':'
asbag48
(g69
g50
NtRp3804
(dp3805
g53
(dp3806
sg62
g3792
sg55
(lp3807
g48
(g49
g50
NtRp3808
(dp3809
g53
(dp3810
g61
I3
ssg62
g3804
sg55
(lp3811
S'/'
asbasbasbag48
(g64
g50
NtRp3812
(dp3813
g53
(dp3814
sg62
g3708
sg55
(lp3815
g48
(g69
g50
NtRp3816
(dp3817
g53
(dp3818
g73
g74
ssg62
g3812
sg55
(lp3819
g367
asbag48
(g69
g50
NtRp3820
(dp3821
g53
(dp3822
g80
g81
ssg62
g3812
sg55
(lp3823
S':'
asbag48
(g69
g50
NtRp3824
(dp3825
g53
(dp3826
sg62
g3812
sg55
(lp3827
g48
(g49
g50
NtRp3828
(dp3829
g53
(dp3830
g61
I3
ssg62
g3824
sg55
(lp3831
S''
asbasbasbag48
(g64
g50
NtRp3832
(dp3833
g53
(dp3834
sg62
g3708
sg55
(lp3835
g48
(g69
g50
NtRp3836
(dp3837
g53
(dp3838
g73
g74
ssg62
g3832
sg55
(lp3839
g388
asbag48
(g69
g50
NtRp3840
(dp3841
g53
(dp3842
g80
g81
ssg62
g3832
sg55
(lp3843
S':'
asbag48
(g69
g50
NtRp3844
(dp3845
g53
(dp3846
sg62
g3832
sg55
(lp3847
g48
(g49
g50
NtRp3848
(dp3849
g53
(dp3850
g61
I3
ssg62
g3844
sg55
(lp3851
S''
asbasbasbasbasbasbasbasbasbasbasbag48
(g64
g50
NtRp3852
(dp3853
g53
(dp3854
sg62
g3638
sg55
(lp3855
g48
(g69
g50
NtRp3856
(dp3857
g53
(dp3858
g73
g74
ssg62
g3852
sg55
(lp3859
S'files'
p3860
asbag48
(g69
g50
NtRp3861
(dp3862
g53
(dp3863
g80
g81
ssg62
g3852
sg55
(lp3864
S':'
asbag48
(g69
g50
NtRp3865
(dp3866
g53
(dp3867
sg62
g3852
sg55
(lp3868
g48
(g49
g50
NtRp3869
(dp3870
g53
(dp3871
g61
I5
ssg62
g3865
sg55
(lp3872
g48
(g57
g50
NtRp3873
(dp3874
g53
(dp3875
g61
I4
ssg62
Nsg55
(lp3876
g48
(g64
g50
NtRp3877
(dp3878
g53
(dp3879
sg62
g3873
sg55
(lp3880
g48
(g69
g50
NtRp3881
(dp3882
g53
(dp3883
sg62
g3877
sg55
(lp3884
g48
(g49
g50
NtRp3885
(dp3886
g53
(dp3887
g61
I4
ssg62
g3881
sg55
(lp3888
S'/admin/static/plugin_multiselect/jquery.dimensions.js'
p3889
asbasbasbag48
(g64
g50
NtRp3890
(dp3891
g53
(dp3892
sg62
g3873
sg55
(lp3893
g48
(g69
g50
NtRp3894
(dp3895
g53
(dp3896
sg62
g3890
sg55
(lp3897
g48
(g49
g50
NtRp3898
(dp3899
g53
(dp3900
g61
I4
ssg62
g3894
sg55
(lp3901
S'/admin/static/plugin_multiselect/jquery.multiselect.js'
p3902
asbasbasbag48
(g64
g50
NtRp3903
(dp3904
g53
(dp3905
sg62
g3873
sg55
(lp3906
g48
(g69
g50
NtRp3907
(dp3908
g53
(dp3909
sg62
g3903
sg55
(lp3910
g48
(g49
g50
NtRp3911
(dp3912
g53
(dp3913
g61
I4
ssg62
g3907
sg55
(lp3914
S'/admin/static/plugin_multiselect/jquery.multiselect.css'
p3915
asbasbasbag48
(g64
g50
NtRp3916
(dp3917
g53
(dp3918
sg62
g3873
sg55
(lp3919
g48
(g69
g50
NtRp3920
(dp3921
g53
(dp3922
sg62
g3916
sg55
(lp3923
g48
(g49
g50
NtRp3924
(dp3925
g53
(dp3926
g61
I4
ssg62
g3920
sg55
(lp3927
S'/admin/static/plugin_multiselect/start.js'
p3928
asbasbasbasbasbasbasbag48
(g64
g50
NtRp3929
(dp3930
g53
(dp3931
sg62
g3638
sg55
(lp3932
g48
(g69
g50
NtRp3933
(dp3934
g53
(dp3935
g73
g74
ssg62
g3929
sg55
(lp3936
S'flash'
p3937
asbag48
(g69
g50
NtRp3938
(dp3939
g53
(dp3940
g80
g81
ssg62
g3929
sg55
(lp3941
S':'
asbag48
(g69
g50
NtRp3942
(dp3943
g53
(dp3944
sg62
g3929
sg55
(lp3945
g48
(g49
g50
NtRp3946
(dp3947
g53
(dp3948
g61
I5
ssg62
g3942
sg55
(lp3949
S''
asbasbasbag48
(g64
g50
NtRp3950
(dp3951
g53
(dp3952
sg62
g3638
sg55
(lp3953
g48
(g69
g50
NtRp3954
(dp3955
g53
(dp3956
g73
g74
ssg62
g3950
sg55
(lp3957
S'generic_patterns'
p3958
asbag48
(g69
g50
NtRp3959
(dp3960
g53
(dp3961
g80
g81
ssg62
g3950
sg55
(lp3962
S':'
asbag48
(g69
g50
NtRp3963
(dp3964
g53
(dp3965
sg62
g3950
sg55
(lp3966
g48
(g49
g50
NtRp3967
(dp3968
g53
(dp3969
g61
I5
ssg62
g3963
sg55
(lp3970
g48
(g57
g50
NtRp3971
(dp3972
g53
(dp3973
g61
I4
ssg62
Nsg55
(lp3974
sbasbasbasbag48
(g64
g50
NtRp3975
(dp3976
g53
(dp3977
sg62
g3638
sg55
(lp3978
g48
(g69
g50
NtRp3979
(dp3980
g53
(dp3981
g73
g74
ssg62
g3975
sg55
(lp3982
S'headers'
p3983
asbag48
(g69
g50
NtRp3984
(dp3985
g53
(dp3986
g80
g81
ssg62
g3975
sg55
(lp3987
S':'
asbag48
(g69
g50
NtRp3988
(dp3989
g53
(dp3990
sg62
g3975
sg55
(lp3991
g48
(g49
g50
NtRp3992
(dp3993
g53
(dp3994
g61
I5
ssg62
g3988
sg55
(lp3995
g48
(g57
g50
NtRp3996
(dp3997
g53
(dp3998
g61
I4
ssg62
Nsg55
(lp3999
g48
(g64
g50
NtRp4000
(dp4001
g53
(dp4002
sg62
g3996
sg55
(lp4003
g48
(g69
g50
NtRp4004
(dp4005
g53
(dp4006
g73
g74
ssg62
g4000
sg55
(lp4007
S'Cache-Control'
p4008
asbag48
(g69
g50
NtRp4009
(dp4010
g53
(dp4011
g80
g81
ssg62
g4000
sg55
(lp4012
S':'
asbag48
(g69
g50
NtRp4013
(dp4014
g53
(dp4015
sg62
g4000
sg55
(lp4016
g48
(g49
g50
NtRp4017
(dp4018
g53
(dp4019
g61
I4
ssg62
g4013
sg55
(lp4020
S'no-store, no-cache, must-revalidate, post-check=0, pre-check=0'
p4021
asbasbasbag48
(g64
g50
NtRp4022
(dp4023
g53
(dp4024
sg62
g3996
sg55
(lp4025
g48
(g69
g50
NtRp4026
(dp4027
g53
(dp4028
g73
g74
ssg62
g4022
sg55
(lp4029
S'Content-Type'
p4030
asbag48
(g69
g50
NtRp4031
(dp4032
g53
(dp4033
g80
g81
ssg62
g4022
sg55
(lp4034
S':'
asbag48
(g69
g50
NtRp4035
(dp4036
g53
(dp4037
sg62
g4022
sg55
(lp4038
g48
(g49
g50
NtRp4039
(dp4040
g53
(dp4041
g61
I4
ssg62
g4035
sg55
(lp4042
S'text/html; charset=utf-8'
p4043
asbasbasbag48
(g64
g50
NtRp4044
(dp4045
g53
(dp4046
sg62
g3996
sg55
(lp4047
g48
(g69
g50
NtRp4048
(dp4049
g53
(dp4050
g73
g74
ssg62
g4044
sg55
(lp4051
S'Expires'
p4052
asbag48
(g69
g50
NtRp4053
(dp4054
g53
(dp4055
g80
g81
ssg62
g4044
sg55
(lp4056
S':'
asbag48
(g69
g50
NtRp4057
(dp4058
g53
(dp4059
sg62
g4044
sg55
(lp4060
g48
(g49
g50
NtRp4061
(dp4062
g53
(dp4063
g61
I4
ssg62
g4057
sg55
(lp4064
S'Mon, 16 Jan 2012 20:10:10 GMT'
p4065
asbasbasbag48
(g64
g50
NtRp4066
(dp4067
g53
(dp4068
sg62
g3996
sg55
(lp4069
g48
(g69
g50
NtRp4070
(dp4071
g53
(dp4072
g73
g74
ssg62
g4066
sg55
(lp4073
S'NingNang'
p4074
asbag48
(g69
g50
NtRp4075
(dp4076
g53
(dp4077
g80
g81
ssg62
g4066
sg55
(lp4078
S':'
asbag48
(g69
g50
NtRp4079
(dp4080
g53
(dp4081
sg62
g4066
sg55
(lp4082
g48
(g49
g50
NtRp4083
(dp4084
g53
(dp4085
g61
I4
ssg62
g4079
sg55
(lp4086
S'Nong'
p4087
asbasbasbag48
(g64
g50
NtRp4088
(dp4089
g53
(dp4090
sg62
g3996
sg55
(lp4091
g48
(g69
g50
NtRp4092
(dp4093
g53
(dp4094
g73
g74
ssg62
g4088
sg55
(lp4095
S'Pragma'
p4096
asbag48
(g69
g50
NtRp4097
(dp4098
g53
(dp4099
g80
g81
ssg62
g4088
sg55
(lp4100
S':'
asbag48
(g69
g50
NtRp4101
(dp4102
g53
(dp4103
sg62
g4088
sg55
(lp4104
g48
(g49
g50
NtRp4105
(dp4106
g53
(dp4107
g61
I4
ssg62
g4101
sg55
(lp4108
S'no-cache'
p4109
asbasbasbasbasbasbasbag48
(g64
g50
NtRp4110
(dp4111
g53
(dp4112
sg62
g3638
sg55
(lp4113
g48
(g69
g50
NtRp4114
(dp4115
g53
(dp4116
g73
g74
ssg62
g4110
sg55
(lp4117
S'menu'
p4118
asbag48
(g69
g50
NtRp4119
(dp4120
g53
(dp4121
g80
g81
ssg62
g4110
sg55
(lp4122
S':'
asbag48
(g69
g50
NtRp4123
(dp4124
g53
(dp4125
sg62
g4110
sg55
(lp4126
g48
(g49
g50
NtRp4127
(dp4128
g53
(dp4129
g61
I5
ssg62
g4123
sg55
(lp4130
g48
(g57
g50
NtRp4131
(dp4132
g53
(dp4133
g61
I4
ssg62
Nsg55
(lp4134
g48
(g64
g50
NtRp4135
(dp4136
g53
(dp4137
sg62
g4131
sg55
(lp4138
g48
(g69
g50
NtRp4139
(dp4140
g53
(dp4141
sg62
g4135
sg55
(lp4142
g48
(g49
g50
NtRp4143
(dp4144
g53
(dp4145
g61
I4
ssg62
g4139
sg55
(lp4146
g48
(g57
g50
NtRp4147
(dp4148
g53
(dp4149
g61
I3
ssg62
Nsg55
(lp4150
g48
(g64
g50
NtRp4151
(dp4152
g53
(dp4153
sg62
g4147
sg55
(lp4154
g48
(g69
g50
NtRp4155
(dp4156
g53
(dp4157
sg62
g4151
sg55
(lp4158
g48
(g49
g50
NtRp4159
(dp4160
g53
(dp4161
g61
I3
ssg62
g4155
sg55
(lp4162
cgluon.languages
lazyT_unpickle
p4163
(S's\x04\x00\x00\x00Site'
tRp4164
asbasbasbag48
(g64
g50
NtRp4165
(dp4166
g53
(dp4167
sg62
g4147
sg55
(lp4168
g48
(g69
g50
NtRp4169
(dp4170
g53
(dp4171
sg62
g4165
sg55
(lp4172
g48
(g49
g50
NtRp4173
(dp4174
g53
(dp4175
g61
I3
ssg62
g4169
sg55
(lp4176
g1241
asbasbasbag48
(g64
g50
NtRp4177
(dp4178
g53
(dp4179
sg62
g4147
sg55
(lp4180
g48
(g69
g50
NtRp4181
(dp4182
g53
(dp4183
sg62
g4177
sg55
(lp4184
g48
(g49
g50
NtRp4185
(dp4186
g53
(dp4187
g61
I3
ssg62
g4181
sg55
(lp4188
S'/admin/default/site'
p4189
asbasbasbasbasbasbasbag48
(g64
g50
NtRp4190
(dp4191
g53
(dp4192
sg62
g4131
sg55
(lp4193
g48
(g69
g50
NtRp4194
(dp4195
g53
(dp4196
sg62
g4190
sg55
(lp4197
g48
(g49
g50
NtRp4198
(dp4199
g53
(dp4200
g61
I4
ssg62
g4194
sg55
(lp4201
g48
(g57
g50
NtRp4202
(dp4203
g53
(dp4204
g61
I3
ssg62
Nsg55
(lp4205
g48
(g64
g50
NtRp4206
(dp4207
g53
(dp4208
sg62
g4202
sg55
(lp4209
g48
(g69
g50
NtRp4210
(dp4211
g53
(dp4212
sg62
g4206
sg55
(lp4213
g48
(g49
g50
NtRp4214
(dp4215
g53
(dp4216
g61
I3
ssg62
g4210
sg55
(lp4217
g4163
(S's\x06\x00\x00\x00Logout'
tRp4218
asbasbasbag48
(g64
g50
NtRp4219
(dp4220
g53
(dp4221
sg62
g4202
sg55
(lp4222
g48
(g69
g50
NtRp4223
(dp4224
g53
(dp4225
sg62
g4219
sg55
(lp4226
g48
(g49
g50
NtRp4227
(dp4228
g53
(dp4229
g61
I3
ssg62
g4223
sg55
(lp4230
g1241
asbasbasbag48
(g64
g50
NtRp4231
(dp4232
g53
(dp4233
sg62
g4202
sg55
(lp4234
g48
(g69
g50
NtRp4235
(dp4236
g53
(dp4237
sg62
g4231
sg55
(lp4238
g48
(g49
g50
NtRp4239
(dp4240
g53
(dp4241
g61
I3
ssg62
g4235
sg55
(lp4242
S'/admin/default/logout'
p4243
asbasbasbasbasbasbasbag48
(g64
g50
NtRp4244
(dp4245
g53
(dp4246
sg62
g4131
sg55
(lp4247
g48
(g69
g50
NtRp4248
(dp4249
g53
(dp4250
sg62
g4244
sg55
(lp4251
g48
(g49
g50
NtRp4252
(dp4253
g53
(dp4254
g61
I4
ssg62
g4248
sg55
(lp4255
g48
(g57
g50
NtRp4256
(dp4257
g53
(dp4258
g61
I3
ssg62
Nsg55
(lp4259
g48
(g64
g50
NtRp4260
(dp4261
g53
(dp4262
sg62
g4256
sg55
(lp4263
g48
(g69
g50
NtRp4264
(dp4265
g53
(dp4266
sg62
g4260
sg55
(lp4267
g48
(g49
g50
NtRp4268
(dp4269
g53
(dp4270
g61
I3
ssg62
g4264
sg55
(lp4271
g4163
(S's\x04\x00\x00\x00Help'
tRp4272
asbasbasbag48
(g64
g50
NtRp4273
(dp4274
g53
(dp4275
sg62
g4256
sg55
(lp4276
g48
(g69
g50
NtRp4277
(dp4278
g53
(dp4279
sg62
g4273
sg55
(lp4280
g48
(g49
g50
NtRp4281
(dp4282
g53
(dp4283
g61
I3
ssg62
g4277
sg55
(lp4284
g1241
asbasbasbag48
(g64
g50
NtRp4285
(dp4286
g53
(dp4287
sg62
g4256
sg55
(lp4288
g48
(g69
g50
NtRp4289
(dp4290
g53
(dp4291
sg62
g4285
sg55
(lp4292
g48
(g49
g50
NtRp4293
(dp4294
g53
(dp4295
g61
I3
ssg62
g4289
sg55
(lp4296
S'/examples/default/index'
p4297
asbasbasbasbasbasbasbasbasbasbasbag48
(g64
g50
NtRp4298
(dp4299
g53
(dp4300
sg62
g3638
sg55
(lp4301
g48
(g69
g50
NtRp4302
(dp4303
g53
(dp4304
g73
g74
ssg62
g4298
sg55
(lp4305
S'meta'
p4306
asbag48
(g69
g50
NtRp4307
(dp4308
g53
(dp4309
g80
g81
ssg62
g4298
sg55
(lp4310
S':'
asbag48
(g69
g50
NtRp4311
(dp4312
g53
(dp4313
sg62
g4298
sg55
(lp4314
g48
(g49
g50
NtRp4315
(dp4316
g53
(dp4317
g61
I5
ssg62
g4311
sg55
(lp4318
g48
(g57
g50
NtRp4319
(dp4320
g53
(dp4321
g61
I4
ssg62
Nsg55
(lp4322
sbasbasbasbag48
(g64
g50
NtRp4323
(dp4324
g53
(dp4325
sg62
g3638
sg55
(lp4326
g48
(g69
g50
NtRp4327
(dp4328
g53
(dp4329
g73
g74
ssg62
g4323
sg55
(lp4330
S'postprocessing'
p4331
asbag48
(g69
g50
NtRp4332
(dp4333
g53
(dp4334
g80
g81
ssg62
g4323
sg55
(lp4335
S':'
asbag48
(g69
g50
NtRp4336
(dp4337
g53
(dp4338
sg62
g4323
sg55
(lp4339
g48
(g49
g50
NtRp4340
(dp4341
g53
(dp4342
g61
I5
ssg62
g4336
sg55
(lp4343
g48
(g57
g50
NtRp4344
(dp4345
g53
(dp4346
g61
I4
ssg62
Nsg55
(lp4347
sbasbasbasbag48
(g64
g50
NtRp4348
(dp4349
g53
(dp4350
sg62
g3638
sg55
(lp4351
g48
(g69
g50
NtRp4352
(dp4353
g53
(dp4354
g73
g74
ssg62
g4348
sg55
(lp4355
S'session_file'
p4356
asbag48
(g69
g50
NtRp4357
(dp4358
g53
(dp4359
g80
g81
ssg62
g4348
sg55
(lp4360
S':'
asbag48
(g69
g50
NtRp4361
(dp4362
g53
(dp4363
sg62
g4348
sg55
(lp4364
g48
(g49
g50
NtRp4365
(dp4366
g53
(dp4367
g61
I5
ssg62
g4361
sg55
(lp4368
S"<open file 'D:\\Dropbox\\Eclipse\\OJDevSourceProject\\project\\web2py\\applications\\admin\\sessions\\127.0.0.1-a88abcbc-d11e-41d6-8b83-042e238c6337', mode 'rb+' at 0x096B9E30>"
p4369
asbasbasbag48
(g64
g50
NtRp4370
(dp4371
g53
(dp4372
sg62
g3638
sg55
(lp4373
g48
(g69
g50
NtRp4374
(dp4375
g53
(dp4376
g73
g74
ssg62
g4370
sg55
(lp4377
S'session_filename'
p4378
asbag48
(g69
g50
NtRp4379
(dp4380
g53
(dp4381
g80
g81
ssg62
g4370
sg55
(lp4382
S':'
asbag48
(g69
g50
NtRp4383
(dp4384
g53
(dp4385
sg62
g4370
sg55
(lp4386
g48
(g49
g50
NtRp4387
(dp4388
g53
(dp4389
g61
I5
ssg62
g4383
sg55
(lp4390
S'D:\\Dropbox\\Eclipse\\OJDevSourceProject\\project\\web2py\\applications\\admin\\sessions\\127.0.0.1-a88abcbc-d11e-41d6-8b83-042e238c6337'
p4391
asbasbasbag48
(g64
g50
NtRp4392
(dp4393
g53
(dp4394
sg62
g3638
sg55
(lp4395
g48
(g69
g50
NtRp4396
(dp4397
g53
(dp4398
g73
g74
ssg62
g4392
sg55
(lp4399
S'session_id'
p4400
asbag48
(g69
g50
NtRp4401
(dp4402
g53
(dp4403
g80
g81
ssg62
g4392
sg55
(lp4404
S':'
asbag48
(g69
g50
NtRp4405
(dp4406
g53
(dp4407
sg62
g4392
sg55
(lp4408
g48
(g49
g50
NtRp4409
(dp4410
g53
(dp4411
g61
I5
ssg62
g4405
sg55
(lp4412
S'127.0.0.1-a88abcbc-d11e-41d6-8b83-042e238c6337'
p4413
asbasbasbag48
(g64
g50
NtRp4414
(dp4415
g53
(dp4416
sg62
g3638
sg55
(lp4417
g48
(g69
g50
NtRp4418
(dp4419
g53
(dp4420
g73
g74
ssg62
g4414
sg55
(lp4421
S'session_id_name'
p4422
asbag48
(g69
g50
NtRp4423
(dp4424
g53
(dp4425
g80
g81
ssg62
g4414
sg55
(lp4426
S':'
asbag48
(g69
g50
NtRp4427
(dp4428
g53
(dp4429
sg62
g4414
sg55
(lp4430
g48
(g49
g50
NtRp4431
(dp4432
g53
(dp4433
g61
I5
ssg62
g4427
sg55
(lp4434
g3695
asbasbasbag48
(g64
g50
NtRp4435
(dp4436
g53
(dp4437
sg62
g3638
sg55
(lp4438
g48
(g69
g50
NtRp4439
(dp4440
g53
(dp4441
g73
g74
ssg62
g4435
sg55
(lp4442
S'session_locked'
p4443
asbag48
(g69
g50
NtRp4444
(dp4445
g53
(dp4446
g80
g81
ssg62
g4435
sg55
(lp4447
S':'
asbag48
(g69
g50
NtRp4448
(dp4449
g53
(dp4450
sg62
g4435
sg55
(lp4451
g48
(g49
g50
NtRp4452
(dp4453
g53
(dp4454
g61
I5
ssg62
g4448
sg55
(lp4455
g1241
asbasbasbag48
(g64
g50
NtRp4456
(dp4457
g53
(dp4458
sg62
g3638
sg55
(lp4459
g48
(g69
g50
NtRp4460
(dp4461
g53
(dp4462
g73
g74
ssg62
g4456
sg55
(lp4463
S'session_new'
p4464
asbag48
(g69
g50
NtRp4465
(dp4466
g53
(dp4467
g80
g81
ssg62
g4456
sg55
(lp4468
S':'
asbag48
(g69
g50
NtRp4469
(dp4470
g53
(dp4471
sg62
g4456
sg55
(lp4472
g48
(g49
g50
NtRp4473
(dp4474
g53
(dp4475
g61
I5
ssg62
g4469
sg55
(lp4476
g1241
asbasbasbag48
(g64
g50
NtRp4477
(dp4478
g53
(dp4479
sg62
g3638
sg55
(lp4480
g48
(g69
g50
NtRp4481
(dp4482
g53
(dp4483
g73
g74
ssg62
g4477
sg55
(lp4484
S'status'
p4485
asbag48
(g69
g50
NtRp4486
(dp4487
g53
(dp4488
g80
g81
ssg62
g4477
sg55
(lp4489
S':'
asbag48
(g69
g50
NtRp4490
(dp4491
g53
(dp4492
sg62
g4477
sg55
(lp4493
g48
(g49
g50
NtRp4494
(dp4495
g53
(dp4496
g61
I5
ssg62
g4490
sg55
(lp4497
S'200'
p4498
asbasbasbag48
(g64
g50
NtRp4499
(dp4500
g53
(dp4501
sg62
g3638
sg55
(lp4502
g48
(g69
g50
NtRp4503
(dp4504
g53
(dp4505
g73
g74
ssg62
g4499
sg55
(lp4506
S'subtitle'
p4507
asbag48
(g69
g50
NtRp4508
(dp4509
g53
(dp4510
g80
g81
ssg62
g4499
sg55
(lp4511
S':'
asbag48
(g69
g50
NtRp4512
(dp4513
g53
(dp4514
sg62
g4499
sg55
(lp4515
g48
(g49
g50
NtRp4516
(dp4517
g53
(dp4518
g61
I5
ssg62
g4512
sg55
(lp4519
S'admin'
p4520
asbasbasbag48
(g64
g50
NtRp4521
(dp4522
g53
(dp4523
sg62
g3638
sg55
(lp4524
g48
(g69
g50
NtRp4525
(dp4526
g53
(dp4527
g73
g74
ssg62
g4521
sg55
(lp4528
S'title'
p4529
asbag48
(g69
g50
NtRp4530
(dp4531
g53
(dp4532
g80
g81
ssg62
g4521
sg55
(lp4533
S':'
asbag48
(g69
g50
NtRp4534
(dp4535
g53
(dp4536
sg62
g4521
sg55
(lp4537
g48
(g49
g50
NtRp4538
(dp4539
g53
(dp4540
g61
I5
ssg62
g4534
sg55
(lp4541
S'check_version '
p4542
asbasbasbag48
(g64
g50
NtRp4543
(dp4544
g53
(dp4545
sg62
g3638
sg55
(lp4546
g48
(g69
g50
NtRp4547
(dp4548
g53
(dp4549
g73
g74
ssg62
g4543
sg55
(lp4550
g2690
asbag48
(g69
g50
NtRp4551
(dp4552
g53
(dp4553
g80
g81
ssg62
g4543
sg55
(lp4554
S':'
asbag48
(g69
g50
NtRp4555
(dp4556
g53
(dp4557
sg62
g4543
sg55
(lp4558
g48
(g49
g50
NtRp4559
(dp4560
g53
(dp4561
g61
I5
ssg62
g4555
sg55
(lp4562
g2703
asbasbasbag48
(g64
g50
NtRp4563
(dp4564
g53
(dp4565
sg62
g3638
sg55
(lp4566
g48
(g69
g50
NtRp4567
(dp4568
g53
(dp4569
g73
g74
ssg62
g4563
sg55
(lp4570
S'view'
p4571
asbag48
(g69
g50
NtRp4572
(dp4573
g53
(dp4574
g80
g81
ssg62
g4563
sg55
(lp4575
S':'
asbag48
(g69
g50
NtRp4576
(dp4577
g53
(dp4578
sg62
g4563
sg55
(lp4579
g48
(g49
g50
NtRp4580
(dp4581
g53
(dp4582
g61
I5
ssg62
g4576
sg55
(lp4583
S'default/check_version.html'
p4584
asbasbasbasbasbsS'locals'
p4585
(dp4586
S'version_number'
p4587
S"(1, 99, 4, datetime.datetime(2011, 12, 14, 14, 46, 14), 'stable')"
p4588
sS'new_version'
p4589
g91
sssS'traceback'
p4590
S'Traceback (most recent call last):\n  File "D:\\Dropbox\\Eclipse\\OJDevSourceProject\\project\\web2py\\gluon\\restricted.py", line 194, in restricted\n    exec ccode in environment\n  File "D:\\Dropbox\\Eclipse\\OJDevSourceProject\\project\\web2py\\applications\\admin\\controllers/default.py", line 1225, in <module>\n  File "D:\\Dropbox\\Eclipse\\OJDevSourceProject\\project\\web2py\\gluon\\globals.py", line 149, in <lambda>\n    self._caller = lambda f: f()\n  File "D:\\Dropbox\\Eclipse\\OJDevSourceProject\\project\\web2py\\applications\\admin\\controllers/default.py", line 105, in check_version\n    + XML(\' <strong class="upgrade_version">%s</strong>\' % version_number)\nTypeError: not all arguments converted during string formatting\n'
p4591
s.