(dp1
S'output'
p2
S''
sS'layer'
p3
S'D:\\Dropbox\\Eclipse\\OJDevSourceProject\\project\\web2py\\applications\\admin\\controllers/default.py'
p4
sS'code'
p5
S'# coding: utf8\n\nfrom gluon.admin import *\nfrom gluon.fileutils import abspath, read_file, write_file\nfrom glob import glob\nimport shutil\nimport platform\n\nif DEMO_MODE and request.function in [\'change_password\',\'pack\',\'pack_plugin\',\'upgrade_web2py\',\'uninstall\',\'cleanup\',\'compile_app\',\'remove_compiled_app\',\'delete\',\'delete_plugin\',\'create_file\',\'upload_file\',\'update_languages\',\'reload_routes\']:\n    session.flash = T(\'disabled in demo mode\')\n    redirect(URL(\'site\'))\n\nif not is_manager() and request.function in [\'change_password\',\'upgrade_web2py\']:\n    session.flash = T(\'disabled in multi user mode\')\n    redirect(URL(\'site\'))\n\nif FILTER_APPS and request.args(0) and not request.args(0) in FILTER_APPS:\n    session.flash = T(\'disabled in demo mode\')\n    redirect(URL(\'site\'))\n\ndef safe_open(a,b):\n    if DEMO_MODE and \'w\' in b:\n        class tmp:\n            def write(self,data): pass\n        return tmp()\n    return open(a,b)\n\ndef safe_read(a, b=\'r\'):\n    safe_file = safe_open(a, b)\n    try:\n        return safe_file.read()\n    finally:\n        safe_file.close()\n\ndef safe_write(a, value, b=\'w\'):\n    safe_file = safe_open(a, b)\n    try:\n        safe_file.write(value)\n    finally:\n        safe_file.close()\n\ndef get_app(name=None):\n    app = name or request.args(0)\n    if app and (not MULTI_USER_MODE or db(db.app.name==app)(db.app.owner==auth.user.id).count()):\n        return app\n    session.flash = \'App does not exist or your are not authorized\'\n    redirect(URL(\'site\'))\n\ndef index():\n    """ Index handler """\n\n    send = request.vars.send\n    if DEMO_MODE:\n        session.authorized = True\n        session.last_time = t0\n    if not send:\n        send = URL(\'site\')\n    if session.authorized:\n        redirect(send)\n    elif request.vars.password:\n        if verify_password(request.vars.password):\n            session.authorized = True\n            login_record(True)\n\n            if CHECK_VERSION:\n                session.check_version = True\n            else:\n                session.check_version = False\n\n            session.last_time = t0\n            if isinstance(send, list):  # ## why does this happen?\n                send = str(send[0])\n\n            redirect(send)\n        else:\n            times_denied = login_record(False)\n            if times_denied >= allowed_number_of_attempts:\n                response.flash = \\\n                    T(\'admin disabled because too many invalid login attempts\')\n            elif times_denied == allowed_number_of_attempts - 1:\n                response.flash = \\\n                    T(\'You have one more login attempt before you are locked out\')\n            else:\n                response.flash = T(\'invalid password.\')\n    return dict(send=send)\n\n\ndef check_version():\n    """ Checks if web2py is up to date """\n\n    session.forget()\n    session._unlock(response)\n\n    new_version, version_number = check_new_version(request.env.web2py_version,\n                                    WEB2PY_VERSION_URL)\n\n    if new_version == -1:\n        return A(T(\'Unable to check for upgrades\'), _href=WEB2PY_URL)\n    elif new_version != True:\n        return A(T(\'web2py is up to date\'), _href=WEB2PY_URL)\n    elif platform.system().lower() in (\'windows\',\'win32\',\'win64\') and os.path.exists("web2py.exe"):\n        return SPAN(\'You should upgrade to version %s\' % version_number)\n    else:\n        return sp_button(URL(\'upgrade_web2py\'), T(\'upgrade now\')) \\\n          + XML(\' <strong class="upgrade_version">%s</strong>\' % version_number)\n\n\ndef logout():\n    """ Logout handler """\n    session.authorized = None\n    if MULTI_USER_MODE:\n        redirect(URL(\'user/logout\'))\n    redirect(URL(\'index\'))\n\n\ndef change_password():\n\n    if session.pam_user:\n        session.flash = T(\'PAM authenticated user, cannot change password here\')\n        redirect(URL(\'site\'))\n    form=SQLFORM.factory(Field(\'current_admin_password\',\'password\'),\n                         Field(\'new_admin_password\',\'password\',requires=IS_STRONG()),\n                         Field(\'new_admin_password_again\',\'password\'))\n    if form.accepts(request.vars):\n        if not verify_password(request.vars.current_admin_password):\n            form.errors.current_admin_password = T(\'invalid password\')\n        elif form.vars.new_admin_password != form.vars.new_admin_password_again:\n            form.errors.new_admin_password_again = T(\'no match\')\n        else:\n            path = abspath(\'parameters_%s.py\' % request.env.server_port)\n            safe_write(path, \'password="%s"\' % CRYPT()(request.vars.new_admin_password)[0])\n            session.flash = T(\'password changed\')\n            redirect(URL(\'site\'))\n    return dict(form=form)\n\ndef site():\n    """ Site handler """\n\n    myversion = request.env.web2py_version\n\n    # Shortcut to make the elif statements more legible\n    file_or_appurl = \'file\' in request.vars or \'appurl\' in request.vars\n\n    if DEMO_MODE:\n        pass\n\n    elif request.vars.filename and not \'file\' in request.vars:\n        # create a new application\n        appname = cleanpath(request.vars.filename).replace(\'.\', \'_\')\n        if app_create(appname, request):\n            if MULTI_USER_MODE:\n                db.app.insert(name=appname,owner=auth.user.id)\n            session.flash = T(\'new application "%s" created\', appname)\n            redirect(URL(\'design\',args=appname))\n        else:\n            session.flash = \\\n                T(\'unable to create application "%s" (it may exist already)\', request.vars.filename)\n        redirect(URL(r=request))\n\n    elif file_or_appurl and not request.vars.filename:\n        # can\'t do anything without an app name\n        msg = \'you must specify a name for the uploaded application\'\n        response.flash = T(msg)\n\n    elif file_or_appurl and request.vars.filename:\n        # fetch an application via URL or file upload\n        f = None\n        if request.vars.appurl is not \'\':\n            try:\n                f = urllib.urlopen(request.vars.appurl)\n            except Exception, e:\n                session.flash = DIV(T(\'Unable to download app because:\'),PRE(str(e)))\n                redirect(URL(r=request))\n            fname = request.vars.appurl\n        elif request.vars.file is not \'\':\n            f = request.vars.file.file\n            fname = request.vars.file.filename\n\n        if f:\n            appname = cleanpath(request.vars.filename).replace(\'.\', \'_\')\n            installed = app_install(appname, f, request, fname,\n                                    overwrite=request.vars.overwrite_check)\n        if f and installed:\n            msg = \'application %(appname)s installed with md5sum: %(digest)s\'\n            session.flash = T(msg, dict(appname=appname,\n                                        digest=md5_hash(installed)))\n        elif f and request.vars.overwrite_check:\n            msg = \'unable to install application "%(appname)s"\'\n            session.flash = T(msg, dict(appname=request.vars.filename))\n\n        else:\n            msg = \'unable to install application "%(appname)s"\'\n            session.flash = T(msg, dict(appname=request.vars.filename))\n\n        redirect(URL(r=request))\n\n    regex = re.compile(\'^\\w+$\')\n\n    if is_manager():\n        apps = [f for f in os.listdir(apath(r=request)) if regex.match(f)]\n    else:\n        apps = [f.name for f in db(db.app.owner==auth.user_id).select()]\n\n    if FILTER_APPS:\n        apps = [f for f in apps if f in FILTER_APPS]\n\n    apps = sorted(apps,lambda a,b:cmp(a.upper(),b.upper()))\n\n    return dict(app=None, apps=apps, myversion=myversion)\n\n\ndef pack():\n    app = get_app()\n\n    if len(request.args) == 1:\n        fname = \'web2py.app.%s.w2p\' % app\n        filename = app_pack(app, request)\n    else:\n        fname = \'web2py.app.%s.compiled.w2p\' % app\n        filename = app_pack_compiled(app, request)\n\n    if filename:\n        response.headers[\'Content-Type\'] = \'application/w2p\'\n        disposition = \'attachment; filename=%s\' % fname\n        response.headers[\'Content-Disposition\'] = disposition\n        return safe_read(filename, \'rb\')\n    else:\n        session.flash = T(\'internal error\')\n        redirect(URL(\'site\'))\n\ndef pack_plugin():\n    app = get_app()\n    if len(request.args) == 2:\n        fname = \'web2py.plugin.%s.w2p\' % request.args[1]\n        filename = plugin_pack(app, request.args[1], request)\n    if filename:\n        response.headers[\'Content-Type\'] = \'application/w2p\'\n        disposition = \'attachment; filename=%s\' % fname\n        response.headers[\'Content-Disposition\'] = disposition\n        return safe_read(filename, \'rb\')\n    else:\n        session.flash = T(\'internal error\')\n        redirect(URL(\'plugin\',args=request.args))\n\ndef upgrade_web2py():\n    if \'upgrade\' in request.vars:\n        (success, error) = upgrade(request)\n        if success:\n            session.flash = T(\'web2py upgraded; please restart it\')\n        else:\n            session.flash = T(\'unable to upgrade because "%s"\', error)\n        redirect(URL(\'site\'))\n    elif \'noupgrade\' in request.vars:\n        redirect(URL(\'site\'))\n    return dict()\n\ndef uninstall():\n    app = get_app()\n    if \'delete\' in request.vars:\n        if MULTI_USER_MODE:\n            if is_manager() and db(db.app.name==app).delete():\n                pass\n            elif db(db.app.name==app)(db.app.owner==auth.user.id).delete():\n                pass\n            else:\n                session.flash = T(\'no permission to uninstall "%s"\', app)\n                redirect(URL(\'site\'))\n        if app_uninstall(app, request):            \n            session.flash = T(\'application "%s" uninstalled\', app)\n        else:\n            session.flash = T(\'unable to uninstall "%s"\', app)\n        redirect(URL(\'site\'))\n    elif \'nodelete\' in request.vars:\n        redirect(URL(\'site\'))\n    return dict(app=app)\n\n\ndef cleanup():\n    app = get_app()\n    clean = app_cleanup(app, request)\n    if not clean:\n        session.flash = T("some files could not be removed")\n    else:\n        session.flash = T(\'cache, errors and sessions cleaned\')\n\n    redirect(URL(\'site\'))\n\n\ndef compile_app():\n    app = get_app()\n    c = app_compile(app, request)\n    if not c:\n        session.flash = T(\'application compiled\')\n    else:\n        session.flash = DIV(T(\'Cannot compile: there are errors in your app:\'),\n                              CODE(c))\n    redirect(URL(\'site\'))\n\n\ndef remove_compiled_app():\n    """ Remove the compiled application """\n    app = get_app()\n    remove_compiled_application(apath(app, r=request))\n    session.flash = T(\'compiled application removed\')\n    redirect(URL(\'site\'))\n\ndef delete():\n    """ Object delete handler """\n    app = get_app()\n    filename = \'/\'.join(request.args)\n    sender = request.vars.sender\n\n    if isinstance(sender, list):  # ## fix a problem with Vista\n        sender = sender[0]\n\n    if \'nodelete\' in request.vars:\n        redirect(URL(sender))\n    elif \'delete\' in request.vars:\n        try:\n            os.unlink(apath(filename, r=request))\n            session.flash = T(\'file "%(filename)s" deleted\',\n                              dict(filename=filename))\n        except Exception:\n            session.flash = T(\'unable to delete file "%(filename)s"\',\n                              dict(filename=filename))\n        redirect(URL(sender))\n    return dict(filename=filename, sender=sender)\n\ndef peek():\n    """ Visualize object code """\n    app = get_app()\n    filename = \'/\'.join(request.args)\n    try:\n        data = safe_read(apath(filename, r=request)).replace(\'\\r\',\'\')\n    except IOError:\n        session.flash = T(\'file does not exist\')\n        redirect(URL(\'site\'))\n\n    extension = filename[filename.rfind(\'.\') + 1:].lower()\n\n    return dict(app=request.args[0],\n                filename=filename,\n                data=data,\n                extension=extension)\n\n\ndef test():\n    """ Execute controller tests """\n    app = get_app()\n    if len(request.args) > 1:\n        file = request.args[1]\n    else:\n        file = \'.*\\.py\'\n\n    controllers = listdir(apath(\'%s/controllers/\' % app, r=request), file + \'$\')\n\n    return dict(app=app, controllers=controllers)\n\ndef keepalive():\n    return \'\'\n\ndef search():\n    keywords=request.vars.keywords or \'\'\n    app = get_app()\n    def match(filename,keywords):\n        filename=os.path.join(apath(app, r=request),filename)\n        if keywords in read_file(filename,\'rb\'):\n            return True\n        return False\n    path = apath(request.args[0], r=request)\n    files1 = glob(os.path.join(path,\'*/*.py\'))\n    files2 = glob(os.path.join(path,\'*/*.html\'))\n    files3 = glob(os.path.join(path,\'*/*/*.html\'))\n    files=[x[len(path)+1:].replace(\'\\\\\',\'/\') for x in files1+files2+files3 if match(x,keywords)]\n    return response.json({\'files\':files})\n\ndef edit():\n    """ File edit handler """\n    # Load json only if it is ajax edited...\n    app = get_app()\n    filename = \'/\'.join(request.args)\n    # Try to discover the file type\n    if filename[-3:] == \'.py\':\n        filetype = \'python\'\n    elif filename[-5:] == \'.html\':\n        filetype = \'html\'\n    elif filename[-5:] == \'.load\':\n        filetype = \'html\'\n    elif filename[-4:] == \'.css\':\n        filetype = \'css\'\n    elif filename[-3:] == \'.js\':\n        filetype = \'js\'\n    else:\n        filetype = \'html\'\n\n    # ## check if file is not there\n\n    path = apath(filename, r=request)\n\n    if request.vars.revert and os.path.exists(path + \'.bak\'):\n        try:\n            data = safe_read(path + \'.bak\')\n            data1 = safe_read(path)\n        except IOError:\n            session.flash = T(\'Invalid action\')\n            if \'from_ajax\' in request.vars:\n                 return response.json({\'error\': str(T(\'Invalid action\'))})\n            else:\n                redirect(URL(\'site\'))\n\n        safe_write(path, data)\n        file_hash = md5_hash(data)\n        saved_on = time.ctime(os.stat(path)[stat.ST_MTIME])\n        safe_write(path + \'.bak\', data1)\n        response.flash = T(\'file "%s" of %s restored\', (filename, saved_on))\n    else:\n        try:\n            data = safe_read(path)\n        except IOError:\n            session.flash = T(\'Invalid action\')\n            if \'from_ajax\' in request.vars:\n                return response.json({\'error\': str(T(\'Invalid action\'))})\n            else:\n                redirect(URL(\'site\'))\n\n        file_hash = md5_hash(data)\n        saved_on = time.ctime(os.stat(path)[stat.ST_MTIME])\n\n        if request.vars.file_hash and request.vars.file_hash != file_hash:\n            session.flash = T(\'file changed on disk\')\n            data = request.vars.data.replace(\'\\r\\n\', \'\\n\').strip() + \'\\n\'\n            safe_write(path + \'.1\', data)\n            if \'from_ajax\' in request.vars:\n                return response.json({\'error\': str(T(\'file changed on disk\')),\n                                      \'redirect\': URL(\'resolve\',\n                                                      args=request.args)})\n            else:\n                redirect(URL(\'resolve\', args=request.args))\n        elif request.vars.data:\n            safe_write(path + \'.bak\', data)\n            data = request.vars.data.replace(\'\\r\\n\', \'\\n\').strip() + \'\\n\'\n            safe_write(path, data)\n            file_hash = md5_hash(data)\n            saved_on = time.ctime(os.stat(path)[stat.ST_MTIME])\n            response.flash = T(\'file saved on %s\', saved_on)\n\n    data_or_revert = (request.vars.data or request.vars.revert)\n\n    # Check compile errors\n    highlight = None\n    if filetype == \'python\' and request.vars.data:\n        import _ast\n        try:\n            code = request.vars.data.rstrip().replace(\'\\r\\n\',\'\\n\')+\'\\n\'\n            compile(code, path, "exec", _ast.PyCF_ONLY_AST)\n        except Exception, e:\n            start = sum([len(line)+1 for l, line\n                            in enumerate(request.vars.data.split("\\n"))\n                            if l < e.lineno-1])\n            if e.text and e.offset:\n                offset = e.offset - (len(e.text) - len(e.text.splitlines()[-1]))\n            else:\n                offset = 0\n            highlight = {\'start\': start, \'end\': start + offset + 1}\n            try:\n                ex_name = e.__class__.__name__\n            except:\n                ex_name = \'unknown exception!\'\n            response.flash = DIV(T(\'failed to compile file because:\'), BR(),\n                                 B(ex_name), T(\' at line %s\') % e.lineno,\n                                 offset and T(\' at char %s\') % offset or \'\',\n                                 PRE(str(e)))\n\n    if data_or_revert and request.args[1] == \'modules\':\n        # Lets try to reload the modules\n        try:\n            mopath = \'.\'.join(request.args[2:])[:-3]\n            exec \'import applications.%s.modules.%s\' % (request.args[0], mopath)\n            reload(sys.modules[\'applications.%s.modules.%s\'\n                    % (request.args[0], mopath)])\n        except Exception, e:\n            response.flash = DIV(T(\'failed to reload module because:\'),PRE(str(e)))\n\n    edit_controller = None\n    editviewlinks = None\n    view_link = None\n    if filetype == \'html\' and len(request.args) >= 3:\n        cfilename = os.path.join(request.args[0], \'controllers\',\n                                 request.args[2] + \'.py\')\n        if os.path.exists(apath(cfilename, r=request)):\n            edit_controller = URL(\'edit\', args=[cfilename])\n            view = request.args[3].replace(\'.html\',\'\')\n            view_link = URL(request.args[0],request.args[2],view)\n    elif filetype == \'python\' and request.args[1] == \'controllers\':\n        ## it\'s a controller file.\n        ## Create links to all of the associated view files.\n        app = get_app()\n        viewname = os.path.splitext(request.args[2])[0]\n        viewpath = os.path.join(app,\'views\',viewname)\n        aviewpath = apath(viewpath, r=request)\n        viewlist = []\n        if os.path.exists(aviewpath):\n            if os.path.isdir(aviewpath):\n                viewlist = glob(os.path.join(aviewpath,\'*.html\'))\n        elif os.path.exists(aviewpath+\'.html\'):\n            viewlist.append(aviewpath+\'.html\')\n        if len(viewlist):\n            editviewlinks = []\n            for v in viewlist:\n                vf = os.path.split(v)[-1]\n                vargs = "/".join([viewpath.replace(os.sep,"/"),vf])\n                editviewlinks.append(A(T(vf.split(".")[0]),\\\n                    _href=URL(\'edit\',args=[vargs])))\n\n    if len(request.args) > 2 and request.args[1] == \'controllers\':\n        controller = (request.args[2])[:-3]\n        functions = regex_expose.findall(data)\n    else:\n        (controller, functions) = (None, None)\n\n    if \'from_ajax\' in request.vars:\n        return response.json({\'file_hash\': file_hash, \'saved_on\': saved_on, \'functions\':functions, \'controller\': controller, \'application\': request.args[0], \'highlight\': highlight })\n    else:\n\n        editarea_preferences = {}\n        editarea_preferences[\'FONT_SIZE\'] = \'10\'\n        editarea_preferences[\'FULL_SCREEN\'] = \'false\'\n        editarea_preferences[\'ALLOW_TOGGLE\'] = \'true\'\n        editarea_preferences[\'REPLACE_TAB_BY_SPACES\'] = \'4\'\n        editarea_preferences[\'DISPLAY\'] = \'onload\'\n        for key in editarea_preferences:\n            if globals().has_key(key):\n                editarea_preferences[key]=globals()[key]\n        return dict(app=request.args[0],\n                    filename=filename,\n                    filetype=filetype,\n                    data=data,\n                    edit_controller=edit_controller,\n                    file_hash=file_hash,\n                    saved_on=saved_on,\n                    controller=controller,\n                    functions=functions,\n                    view_link=view_link,\n                    editarea_preferences=editarea_preferences,\n                    editviewlinks=editviewlinks)\n\ndef resolve():\n    """\n    """\n\n    filename = \'/\'.join(request.args)\n    # ## check if file is not there\n    path = apath(filename, r=request)\n    a = safe_read(path).split(\'\\n\')\n    try:\n        b = safe_read(path + \'.1\').split(\'\\n\')\n    except IOError:\n        session.flash = \'Other file, no longer there\'\n        redirect(URL(\'edit\', args=request.args))\n\n    d = difflib.ndiff(a, b)\n\n    def leading(line):\n        """  """\n\n        # TODO: we really need to comment this\n        z = \'\'\n        for (k, c) in enumerate(line):\n            if c == \' \':\n                z += \'&nbsp;\'\n            elif c == \' \\t\':\n                z += \'&nbsp;\'\n            elif k == 0 and c == \'?\':\n                pass\n            else:\n                break\n\n        return XML(z)\n\n    def getclass(item):\n        """ Determine item class """\n\n        if item[0] == \' \':\n            return \'normal\'\n        if item[0] == \'+\':\n            return \'plus\'\n        if item[0] == \'-\':\n            return \'minus\'\n\n    if request.vars:\n        c = \'\\n\'.join([item[2:].rstrip() for (i, item) in enumerate(d) if item[0] \\\n                           == \' \' or \'line%i\' % i in request.vars])\n        safe_write(path, c)\n        session.flash = \'files merged\'\n        redirect(URL(\'edit\', args=request.args))\n    else:\n        # Making the short circuit compatible with <= python2.4\n        gen_data = lambda index,item: not item[:1] in [\'+\',\'-\'] and "" \\\n                   or INPUT(_type=\'checkbox\',\n                            _name=\'line%i\' % index,\n                            value=item[0] == \'+\')\n\n        diff = TABLE(*[TR(TD(gen_data(i,item)),\n                          TD(item[0]),\n                          TD(leading(item[2:]),\n                          TT(item[2:].rstrip())), _class=getclass(item))\n                       for (i, item) in enumerate(d) if item[0] != \'?\'])\n\n    return dict(diff=diff, filename=filename)\n\n\ndef edit_language():\n    """ Edit language file """\n    app = get_app()\n    filename = \'/\'.join(request.args)\n    from gluon.languages import read_dict, write_dict\n    strings = read_dict(apath(filename, r=request))\n    keys = sorted(strings.keys(),lambda x,y: cmp(x.lower(), y.lower()))\n    rows = []\n    rows.append(H2(T(\'Original/Translation\')))\n\n    for key in keys:\n        name = md5_hash(key)\n        if key==strings[key]:\n            _class=\'untranslated\'\n        else:\n            _class=\'translated\'\n        if len(key) <= 40:\n            elem = INPUT(_type=\'text\', _name=name,value=strings[key],\n                         _size=70,_class=_class)\n        else:\n            elem = TEXTAREA(_name=name, value=strings[key], _cols=70,\n                            _rows=5, _class=_class)\n\n        # Making the short circuit compatible with <= python2.4\n        k = (strings[key] != key) and key or B(key)\n\n        rows.append(P(k, BR(), elem, TAG.BUTTON(T(\'delete\'),\n                            _onclick=\'return delkey("%s")\' % name), _id=name))\n\n    rows.append(INPUT(_type=\'submit\', _value=T(\'update\')))\n    form = FORM(*rows)\n    if form.accepts(request.vars, keepvalues=True):\n        strs = dict()\n        for key in keys:\n            name = md5_hash(key)\n            if form.vars[name]==chr(127): continue\n            strs[key] = form.vars[name]\n        write_dict(apath(filename, r=request), strs)\n        session.flash = T(\'file saved on %(time)s\', dict(time=time.ctime()))\n        redirect(URL(r=request,args=request.args))\n    return dict(app=request.args[0], filename=filename, form=form)\n\n\ndef about():\n    """ Read about info """\n    app = get_app()\n    # ## check if file is not there\n    about = safe_read(apath(\'%s/ABOUT\' % app, r=request))\n    license = safe_read(apath(\'%s/LICENSE\' % app, r=request))\n    return dict(app=app, about=MARKMIN(about), license=MARKMIN(license))\n\n\ndef design():\n    """ Application design handler """\n    app = get_app()\n\n    if not response.flash and app == request.application:\n        msg = T(\'ATTENTION: you cannot edit the running application!\')\n        response.flash = msg\n\n    if request.vars.pluginfile!=None and not isinstance(request.vars.pluginfile,str):\n        filename=os.path.basename(request.vars.pluginfile.filename)\n        if plugin_install(app, request.vars.pluginfile.file,\n                          request, filename):\n            session.flash = T(\'new plugin installed\')\n            redirect(URL(\'design\',args=app))\n        else:\n            session.flash = \\\n                T(\'unable to create application "%s"\', request.vars.filename)\n        redirect(URL(r=request))\n    elif isinstance(request.vars.pluginfile,str):\n        session.flash = T(\'plugin not specified\')\n        redirect(URL(r=request))\n\n\n    # If we have only pyc files it means that\n    # we cannot design\n    if os.path.exists(apath(\'%s/compiled\' % app, r=request)):\n        session.flash = \\\n            T(\'application is compiled and cannot be designed\')\n        redirect(URL(\'site\'))\n\n    # Get all models\n    models = listdir(apath(\'%s/models/\' % app, r=request), \'.*\\.py$\')\n    models=[x.replace(\'\\\\\',\'/\') for x in models]\n    defines = {}\n    for m in models:\n        data = safe_read(apath(\'%s/models/%s\' % (app, m), r=request))\n        defines[m] = regex_tables.findall(data)\n        defines[m].sort()\n\n    # Get all controllers\n    controllers = sorted(listdir(apath(\'%s/controllers/\' % app, r=request), \'.*\\.py$\'))\n    controllers = [x.replace(\'\\\\\',\'/\') for x in controllers]\n    functions = {}\n    for c in controllers:\n        data = safe_read(apath(\'%s/controllers/%s\' % (app, c), r=request))\n        items = regex_expose.findall(data)\n        functions[c] = items\n\n    # Get all views\n    views = sorted(listdir(apath(\'%s/views/\' % app, r=request), \'[\\w/\\-]+(\\.\\w+)+$\'))\n    views = [x.replace(\'\\\\\',\'/\') for x in views if not x.endswith(\'.bak\')]\n    extend = {}\n    include = {}\n    for c in views:\n        data = safe_read(apath(\'%s/views/%s\' % (app, c), r=request))\n        items = regex_extend.findall(data)\n\n        if items:\n            extend[c] = items[0][1]\n\n        items = regex_include.findall(data)\n        include[c] = [i[1] for i in items]\n\n    # Get all modules\n    modules = listdir(apath(\'%s/modules/\' % app, r=request), \'.*\\.py$\')\n    modules = modules=[x.replace(\'\\\\\',\'/\') for x in modules]\n    modules.sort()\n\n    # Get all static files\n    statics = listdir(apath(\'%s/static/\' % app, r=request), \'[^\\.#].*\')\n    statics = [x.replace(\'\\\\\',\'/\') for x in statics]\n    statics.sort()\n\n    # Get all languages\n    languages = listdir(apath(\'%s/languages/\' % app, r=request), \'[\\w-]*\\.py\')\n\n    #Get crontab\n    cronfolder = apath(\'%s/cron\' % app, r=request)\n    if not os.path.exists(cronfolder): os.mkdir(cronfolder)\n    crontab = apath(\'%s/cron/crontab\' % app, r=request)\n    if not os.path.exists(crontab):\n        safe_write(crontab, \'#crontab\')\n\n    plugins=[]\n    def filter_plugins(items,plugins):\n        plugins+=[item[7:].split(\'/\')[0].split(\'.\')[0] for item in items if item.startswith(\'plugin_\')]\n        plugins[:]=list(set(plugins))\n        plugins.sort()\n        return [item for item in items if not item.startswith(\'plugin_\')]\n\n    return dict(app=app,\n                models=filter_plugins(models,plugins),\n                defines=defines,\n                controllers=filter_plugins(controllers,plugins),\n                functions=functions,\n                views=filter_plugins(views,plugins),\n                modules=filter_plugins(modules,plugins),\n                extend=extend,\n                include=include,\n                statics=filter_plugins(statics,plugins),\n                languages=languages,\n                crontab=crontab,\n                plugins=plugins)\n\ndef delete_plugin():\n    """ Object delete handler """\n    app=request.args(0)\n    plugin = request.args(1)\n    plugin_name=\'plugin_\'+plugin\n    if \'nodelete\' in request.vars:\n        redirect(URL(\'design\',args=app))\n    elif \'delete\' in request.vars:\n        try:\n            for folder in [\'models\',\'views\',\'controllers\',\'static\',\'modules\']:\n                path=os.path.join(apath(app,r=request),folder)\n                for item in os.listdir(path):\n                    if item.startswith(plugin_name):\n                        filename=os.path.join(path,item)\n                        if os.path.isdir(filename):\n                            shutil.rmtree(filename)\n                        else:\n                            os.unlink(filename)\n            session.flash = T(\'plugin "%(plugin)s" deleted\',\n                              dict(plugin=plugin))\n        except Exception:\n            session.flash = T(\'unable to delete file plugin "%(plugin)s"\',\n                              dict(plugin=plugin))\n        redirect(URL(\'design\',args=request.args(0)))\n    return dict(plugin=plugin)\n\ndef plugin():\n    """ Application design handler """\n    app = get_app()\n    plugin = request.args(1)\n\n    if not response.flash and app == request.application:\n        msg = T(\'ATTENTION: you cannot edit the running application!\')\n        response.flash = msg\n\n    # If we have only pyc files it means that\n    # we cannot design\n    if os.path.exists(apath(\'%s/compiled\' % app, r=request)):\n        session.flash = \\\n            T(\'application is compiled and cannot be designed\')\n        redirect(URL(\'site\'))\n\n    # Get all models\n    models = listdir(apath(\'%s/models/\' % app, r=request), \'.*\\.py$\')\n    models=[x.replace(\'\\\\\',\'/\') for x in models]\n    defines = {}\n    for m in models:\n        data = safe_read(apath(\'%s/models/%s\' % (app, m), r=request))\n        defines[m] = regex_tables.findall(data)\n        defines[m].sort()\n\n    # Get all controllers\n    controllers = sorted(listdir(apath(\'%s/controllers/\' % app, r=request), \'.*\\.py$\'))\n    controllers = [x.replace(\'\\\\\',\'/\') for x in controllers]\n    functions = {}\n    for c in controllers:\n        data = safe_read(apath(\'%s/controllers/%s\' % (app, c), r=request))\n        items = regex_expose.findall(data)\n        functions[c] = items\n\n    # Get all views\n    views = sorted(listdir(apath(\'%s/views/\' % app, r=request), \'[\\w/\\-]+\\.\\w+$\'))\n    views = [x.replace(\'\\\\\',\'/\') for x in views]\n    extend = {}\n    include = {}\n    for c in views:\n        data = safe_read(apath(\'%s/views/%s\' % (app, c), r=request))\n        items = regex_extend.findall(data)\n        if items:\n            extend[c] = items[0][1]\n\n        items = regex_include.findall(data)\n        include[c] = [i[1] for i in items]\n\n    # Get all modules\n    modules = listdir(apath(\'%s/modules/\' % app, r=request), \'.*\\.py$\')\n    modules = modules=[x.replace(\'\\\\\',\'/\') for x in modules]\n    modules.sort()\n\n    # Get all static files\n    statics = listdir(apath(\'%s/static/\' % app, r=request), \'[^\\.#].*\')\n    statics = [x.replace(\'\\\\\',\'/\') for x in statics]\n    statics.sort()\n\n    # Get all languages\n    languages = listdir(apath(\'%s/languages/\' % app, r=request), \'[\\w-]*\\.py\')\n\n    #Get crontab\n    crontab = apath(\'%s/cron/crontab\' % app, r=request)\n    if not os.path.exists(crontab):\n        safe_write(crontab, \'#crontab\')\n\n    def filter_plugins(items):\n        regex=re.compile(\'^plugin_\'+plugin+\'(/.*|\\..*)?$\')\n        return [item for item in items if regex.match(item)]\n\n    return dict(app=app,\n                models=filter_plugins(models),\n                defines=defines,\n                controllers=filter_plugins(controllers),\n                functions=functions,\n                views=filter_plugins(views),\n                modules=filter_plugins(modules),\n                extend=extend,\n                include=include,\n                statics=filter_plugins(statics),\n                languages=languages,\n                crontab=crontab)\n\n\ndef create_file():\n    """ Create files handler """\n    try:\n        app = get_app(name=request.vars.location.split(\'/\')[0])\n        path = apath(request.vars.location, r=request)\n        filename = re.sub(\'[^\\w./-]+\', \'_\', request.vars.filename)\n\n        if path[-11:] == \'/languages/\':\n            # Handle language files\n            if len(filename) == 0:\n                raise SyntaxError\n            if not filename[-3:] == \'.py\':\n                filename += \'.py\'\n            app = path.split(\'/\')[-3]\n            path=os.path.join(apath(app, r=request),\'languages\',filename)\n            if not os.path.exists(path):\n                safe_write(path, \'\')\n            findT(apath(app, r=request), filename[:-3])\n            session.flash = T(\'language file "%(filename)s" created/updated\',\n                              dict(filename=filename))\n            redirect(request.vars.sender)\n\n        elif path[-8:] == \'/models/\':\n            # Handle python models\n            if not filename[-3:] == \'.py\':\n                filename += \'.py\'\n\n            if len(filename) == 3:\n                raise SyntaxError\n\n            text = \'# coding: utf8\\n\'\n\n        elif path[-13:] == \'/controllers/\':\n            # Handle python controllers\n            if not filename[-3:] == \'.py\':\n                filename += \'.py\'\n\n            if len(filename) == 3:\n                raise SyntaxError\n\n            text = \'# coding: utf8\\n# %s\\ndef index(): return dict(message="hello from %s")\'\n            text = text % (T(\'try something like\'), filename)\n\n        elif path[-7:] == \'/views/\':\n            if request.vars.plugin and not filename.startswith(\'plugin_%s/\' % request.vars.plugin):\n                filename = \'plugin_%s/%s\' % (request.vars.plugin, filename)\n            # Handle template (html) views\n            if filename.find(\'.\')<0:\n                filename += \'.html\'\n            extension = filename.split(\'.\')[-1].lower()\n\n            if len(filename) == 5:\n                raise SyntaxError\n\n            msg = T(\'This is the %(filename)s template\',\n                    dict(filename=filename))            \n            if extension == \'html\':\n                text = dedent("""\n                   {{extend \'layout.html\'}}\n                   <h1>%s</h1>\n                   {{=BEAUTIFY(response._vars)}}""" % msg)\n            else:\n                generic = os.path.join(path,\'generic.\'+extension)\n                if os.path.exists(generic):\n                    text = read_file(generic)\n                else:\n                    text = \'\'\n                \n        elif path[-9:] == \'/modules/\':\n            if request.vars.plugin and not filename.startswith(\'plugin_%s/\' % request.vars.plugin):\n                filename = \'plugin_%s/%s\' % (request.vars.plugin, filename)\n            # Handle python module files\n            if not filename[-3:] == \'.py\':\n                filename += \'.py\'\n\n            if len(filename) == 3:\n                raise SyntaxError\n\n            text = dedent("""\n                   #!/usr/bin/env python\n                   # coding: utf8\n                   from gluon import *\\n""")\n\n        elif path[-8:] == \'/static/\':\n            if request.vars.plugin and not filename.startswith(\'plugin_%s/\' % request.vars.plugin):\n                filename = \'plugin_%s/%s\' % (request.vars.plugin, filename)\n            text = \'\'\n        else:\n            redirect(request.vars.sender)\n\n        full_filename = os.path.join(path, filename)\n        dirpath = os.path.dirname(full_filename)\n\n        if not os.path.exists(dirpath):\n            os.makedirs(dirpath)\n\n        if os.path.exists(full_filename):\n            raise SyntaxError\n\n        safe_write(full_filename, text)\n        session.flash = T(\'file "%(filename)s" created\',\n                          dict(filename=full_filename[len(path):]))\n        redirect(URL(\'edit\',\n                 args=[os.path.join(request.vars.location, filename)]))\n    except Exception, e:\n        if not isinstance(e,HTTP):\n            session.flash = T(\'cannot create file\')\n\n    redirect(request.vars.sender)\n\n\ndef upload_file():\n    """ File uploading handler """\n\n    try:\n        filename = None\n        app = get_app(name=request.vars.location.split(\'/\')[0])\n        path = apath(request.vars.location, r=request)\n\n        if request.vars.filename:\n            filename = re.sub(\'[^\\w\\./]+\', \'_\', request.vars.filename)\n        else:\n            filename = os.path.split(request.vars.file.filename)[-1]\n\n        if path[-8:] == \'/models/\' and not filename[-3:] == \'.py\':\n            filename += \'.py\'\n\n        if path[-9:] == \'/modules/\' and not filename[-3:] == \'.py\':\n            filename += \'.py\'\n\n        if path[-13:] == \'/controllers/\' and not filename[-3:] == \'.py\':\n            filename += \'.py\'\n\n        if path[-7:] == \'/views/\' and not filename[-5:] == \'.html\':\n            filename += \'.html\'\n\n        if path[-11:] == \'/languages/\' and not filename[-3:] == \'.py\':\n            filename += \'.py\'\n\n        filename = os.path.join(path, filename)\n        dirpath = os.path.dirname(filename)\n\n        if not os.path.exists(dirpath):\n            os.makedirs(dirpath)\n\n        safe_write(filename, request.vars.file.file.read(), \'wb\')\n        session.flash = T(\'file "%(filename)s" uploaded\',\n                          dict(filename=filename[len(path):]))\n    except Exception:\n        if filename:\n            d = dict(filename = filename[len(path):])\n        else:\n            d = dict(filename = \'unkown\')\n        session.flash = T(\'cannot upload file "%(filename)s"\', d)\n\n    redirect(request.vars.sender)\n\n\ndef errors():\n    """ Error handler """\n    import operator\n    import os\n    import pickle\n    import hashlib\n\n    app = get_app()\n\n    method = request.args(1) or \'new\'\n\n\n    if method == \'new\':\n        errors_path = apath(\'%s/errors\' % app, r=request)\n\n        delete_hashes = []\n        for item in request.vars:\n            if item[:7] == \'delete_\':\n                delete_hashes.append(item[7:])\n\n        hash2error = dict()\n\n        for fn in listdir(errors_path, \'^\\w.*\'):\n            fullpath = os.path.join(errors_path, fn)\n            if not os.path.isfile(fullpath): continue\n            try:\n                fullpath_file = open(fullpath, \'r\')\n                try:\n                    error = pickle.load(fullpath_file)\n                finally:\n                    fullpath_file.close()\n            except IOError:\n                continue\n\n            hash = hashlib.md5(error[\'traceback\']).hexdigest()\n\n            if hash in delete_hashes:\n                os.unlink(fullpath)\n            else:\n                try:\n                    hash2error[hash][\'count\'] += 1\n                except KeyError:\n                    error_lines = error[\'traceback\'].split("\\n")\n                    last_line = error_lines[-2]\n                    error_causer = os.path.split(error[\'layer\'])[1]\n                    hash2error[hash] = dict(count=1, pickel=error,\n                                            causer=error_causer,\n                                            last_line=last_line,\n                                            hash=hash,ticket=fn)\n\n        decorated = [(x[\'count\'], x) for x in hash2error.values()]\n        decorated.sort(key=operator.itemgetter(0), reverse=True)\n\n        return dict(errors = [x[1] for x in decorated], app=app, method=method)\n    else:\n        for item in request.vars:\n            if item[:7] == \'delete_\':\n                os.unlink(apath(\'%s/errors/%s\' % (app, item[7:]), r=request))\n        func = lambda p: os.stat(apath(\'%s/errors/%s\' % \\\n                                           (app, p), r=request)).st_mtime\n        tickets = sorted(listdir(apath(\'%s/errors/\' % app, r=request), \'^\\w.*\'),\n                         key=func,\n                         reverse=True)\n\n        return dict(app=app, tickets=tickets, method=method)\n\n\ndef make_link(path):\n    """ Create a link from a path """\n    tryFile = path.replace(\'\\\\\', \'/\')\n\n    if os.path.isabs(tryFile) and os.path.isfile(tryFile):\n        (folder, filename) = os.path.split(tryFile)\n        (base, ext) = os.path.splitext(filename)\n        app = get_app()\n\n        editable = {\'controllers\': \'.py\', \'models\': \'.py\', \'views\': \'.html\'}\n        for key in editable.keys():\n            check_extension = folder.endswith("%s/%s" % (app,key))\n            if ext.lower() == editable[key] and check_extension:\n                return A(\'"\' + tryFile + \'"\',\n                         _href=URL(r=request,\n                         f=\'edit/%s/%s/%s\' % (app, key, filename))).xml()\n    return \'\'\n\n\ndef make_links(traceback):\n    """ Make links using the given traceback """\n\n    lwords = traceback.split(\'"\')\n\n    # Making the short circuit compatible with <= python2.4\n    result = (len(lwords) != 0) and lwords[0] or \'\'\n\n    i = 1\n\n    while i < len(lwords):\n        link = make_link(lwords[i])\n\n        if link == \'\':\n            result += \'"\' + lwords[i]\n        else:\n            result += link\n\n            if i + 1 < len(lwords):\n                result += lwords[i + 1]\n                i = i + 1\n\n        i = i + 1\n\n    return result\n\n\nclass TRACEBACK(object):\n    """ Generate the traceback """\n\n    def __init__(self, text):\n        """ TRACEBACK constructor """\n\n        self.s = make_links(CODE(text).xml())\n\n    def xml(self):\n        """ Returns the xml """\n\n        return self.s\n\n\ndef ticket():\n    """ Ticket handler """\n\n    if len(request.args) != 2:\n        session.flash = T(\'invalid ticket\')\n        redirect(URL(\'site\'))\n\n    app = get_app()\n    myversion = request.env.web2py_version\n    ticket = request.args[1]\n    e = RestrictedError()\n    e.load(request, app, ticket)\n\n    return dict(app=app,\n                ticket=ticket,\n                output=e.output,\n                traceback=(e.traceback and TRACEBACK(e.traceback)),\n                snapshot=e.snapshot,\n                code=e.code,\n                layer=e.layer,\n                myversion=myversion)\n\ndef error():\n    """ Generate a ticket (for testing) """\n    raise RuntimeError(\'admin ticket generator at your service\')\n\ndef update_languages():\n    """ Update available languages """\n\n    app = get_app()\n    update_all_languages(apath(app, r=request))\n    session.flash = T(\'Language files (static strings) updated\')\n    redirect(URL(\'design\',args=app,anchor=\'languages\'))\n\ndef twitter():\n    session.forget()\n    session._unlock(response)\n    import gluon.tools\n    import gluon.contrib.simplejson as sj\n    try:\n        if TWITTER_HASH:\n            page = gluon.tools.fetch(\'http://twitter.com/%s?format=json\'%TWITTER_HASH)\n            return sj.loads(page)[\'#timeline\']\n        else:\n            return \'disabled\'\n    except Exception, e:\n        return DIV(T(\'Unable to download because:\'),BR(),str(e))\n\ndef user():\n    if MULTI_USER_MODE:\n        if not db(db.auth_user).count():\n            auth.settings.registration_requires_approval = False            \n        return dict(form=auth())\n    else:\n        return dict(form=T("Disabled"))\n\ndef reload_routes():\n    """ Reload routes.py """\n    import gluon.rewrite\n    gluon.rewrite.load()\n    redirect(URL(\'site\'))\n\nresponse._vars=response._caller(check_version)\n'
p6
sS'snapshot'
p7
(dp8
S'exception'
p9
(dp10
S'__hash__'
p11
S"<method-wrapper '__hash__' of exceptions.TypeError object at 0x03AD4F58>"
p12
sS'__setattr__'
p13
S"<method-wrapper '__setattr__' of exceptions.TypeError object at 0x03AD4F58>"
p14
sS'__reduce_ex__'
p15
S'<built-in method __reduce_ex__ of exceptions.TypeError object at 0x03AD4F58>'
p16
sS'__getslice__'
p17
S"<method-wrapper '__getslice__' of exceptions.TypeError object at 0x03AD4F58>"
p18
sS'__getitem__'
p19
S"<method-wrapper '__getitem__' of exceptions.TypeError object at 0x03AD4F58>"
p20
sS'__setstate__'
p21
S'<built-in method __setstate__ of exceptions.TypeError object at 0x03AD4F58>'
p22
sS'__reduce__'
p23
S'<built-in method __reduce__ of exceptions.TypeError object at 0x03AD4F58>'
p24
sS'__str__'
p25
S"<method-wrapper '__str__' of exceptions.TypeError object at 0x03AD4F58>"
p26
sS'args'
p27
S"('not all arguments converted during string formatting',)"
p28
sS'__getattribute__'
p29
S"<method-wrapper '__getattribute__' of exceptions.TypeError object at 0x03AD4F58>"
p30
sS'__class__'
p31
S"<type 'exceptions.TypeError'>"
p32
sS'__delattr__'
p33
S"<method-wrapper '__delattr__' of exceptions.TypeError object at 0x03AD4F58>"
p34
sS'__repr__'
p35
S"<method-wrapper '__repr__' of exceptions.TypeError object at 0x03AD4F58>"
p36
sS'__dict__'
p37
S'{}'
p38
sS'__doc__'
p39
S"'Inappropriate argument type.'"
p40
sS'__init__'
p41
S"<method-wrapper '__init__' of exceptions.TypeError object at 0x03AD4F58>"
p42
sS'__new__'
p43
S'<built-in method __new__ of type object at 0x1E1CCD78>'
p44
ssS'evalue'
p45
S'not all arguments converted during string formatting'
p46
sS'request'
p47
ccopy_reg
_reconstructor
p48
(cgluon.html
BEAUTIFY
p49
c__builtin__
object
p50
NtRp51
(dp52
S'attributes'
p53
(dp54
sS'components'
p55
(lp56
g48
(cgluon.html
TABLE
p57
g50
NtRp58
(dp59
g53
(dp60
S'level'
p61
I5
ssS'parent'
p62
Nsg55
(lp63
g48
(cgluon.html
TR
p64
g50
NtRp65
(dp66
g53
(dp67
sg62
g58
sg55
(lp68
g48
(cgluon.html
TD
p69
g50
NtRp70
(dp71
g53
(dp72
S'_style'
p73
S'font-weight:bold;'
p74
ssg62
g65
sg55
(lp75
S'ajax'
p76
asbag48
(g69
g50
NtRp77
(dp78
g53
(dp79
S'_valign'
p80
S'top'
p81
ssg62
g65
sg55
(lp82
S':'
asbag48
(g69
g50
NtRp83
(dp84
g53
(dp85
sg62
g65
sg55
(lp86
g48
(g49
g50
NtRp87
(dp88
g53
(dp89
g61
I5
ssg62
g83
sg55
(lp90
S'True'
p91
asbasbasbag48
(g64
g50
NtRp92
(dp93
g53
(dp94
sg62
g58
sg55
(lp95
g48
(g69
g50
NtRp96
(dp97
g53
(dp98
g73
g74
ssg62
g92
sg55
(lp99
S'application'
p100
asbag48
(g69
g50
NtRp101
(dp102
g53
(dp103
g80
g81
ssg62
g92
sg55
(lp104
S':'
asbag48
(g69
g50
NtRp105
(dp106
g53
(dp107
sg62
g92
sg55
(lp108
g48
(g49
g50
NtRp109
(dp110
g53
(dp111
g61
I5
ssg62
g105
sg55
(lp112
S'admin'
p113
asbasbasbag48
(g64
g50
NtRp114
(dp115
g53
(dp116
sg62
g58
sg55
(lp117
g48
(g69
g50
NtRp118
(dp119
g53
(dp120
g73
g74
ssg62
g114
sg55
(lp121
g27
asbag48
(g69
g50
NtRp122
(dp123
g53
(dp124
g80
g81
ssg62
g114
sg55
(lp125
S':'
asbag48
(g69
g50
NtRp126
(dp127
g53
(dp128
sg62
g114
sg55
(lp129
g48
(g49
g50
NtRp130
(dp131
g53
(dp132
g61
I5
ssg62
g126
sg55
(lp133
g48
(g57
g50
NtRp134
(dp135
g53
(dp136
g61
I4
ssg62
Nsg55
(lp137
sbasbasbasbag48
(g64
g50
NtRp138
(dp139
g53
(dp140
sg62
g58
sg55
(lp141
g48
(g69
g50
NtRp142
(dp143
g53
(dp144
g73
g74
ssg62
g138
sg55
(lp145
S'body'
p146
asbag48
(g69
g50
NtRp147
(dp148
g53
(dp149
g80
g81
ssg62
g138
sg55
(lp150
S':'
asbag48
(g69
g50
NtRp151
(dp152
g53
(dp153
sg62
g138
sg55
(lp154
g48
(g49
g50
NtRp155
(dp156
g53
(dp157
g61
I5
ssg62
g151
sg55
(lp158
S"<open file '<fdopen>', mode 'w+b' at 0x03922890>"
p159
asbasbasbag48
(g64
g50
NtRp160
(dp161
g53
(dp162
sg62
g58
sg55
(lp163
g48
(g69
g50
NtRp164
(dp165
g53
(dp166
g73
g74
ssg62
g160
sg55
(lp167
S'client'
p168
asbag48
(g69
g50
NtRp169
(dp170
g53
(dp171
g80
g81
ssg62
g160
sg55
(lp172
S':'
asbag48
(g69
g50
NtRp173
(dp174
g53
(dp175
sg62
g160
sg55
(lp176
g48
(g49
g50
NtRp177
(dp178
g53
(dp179
g61
I5
ssg62
g173
sg55
(lp180
S'127.0.0.1'
p181
asbasbasbag48
(g64
g50
NtRp182
(dp183
g53
(dp184
sg62
g58
sg55
(lp185
g48
(g69
g50
NtRp186
(dp187
g53
(dp188
g73
g74
ssg62
g182
sg55
(lp189
S'controller'
p190
asbag48
(g69
g50
NtRp191
(dp192
g53
(dp193
g80
g81
ssg62
g182
sg55
(lp194
S':'
asbag48
(g69
g50
NtRp195
(dp196
g53
(dp197
sg62
g182
sg55
(lp198
g48
(g49
g50
NtRp199
(dp200
g53
(dp201
g61
I5
ssg62
g195
sg55
(lp202
S'default'
p203
asbasbasbag48
(g64
g50
NtRp204
(dp205
g53
(dp206
sg62
g58
sg55
(lp207
g48
(g69
g50
NtRp208
(dp209
g53
(dp210
g73
g74
ssg62
g204
sg55
(lp211
S'cookies'
p212
asbag48
(g69
g50
NtRp213
(dp214
g53
(dp215
g80
g81
ssg62
g204
sg55
(lp216
S':'
asbag48
(g69
g50
NtRp217
(dp218
g53
(dp219
sg62
g204
sg55
(lp220
g48
(g49
g50
NtRp221
(dp222
g53
(dp223
g61
I5
ssg62
g217
sg55
(lp224
g48
(g57
g50
NtRp225
(dp226
g53
(dp227
g61
I4
ssg62
Nsg55
(lp228
g48
(g64
g50
NtRp229
(dp230
g53
(dp231
sg62
g225
sg55
(lp232
g48
(g69
g50
NtRp233
(dp234
g53
(dp235
g73
g74
ssg62
g229
sg55
(lp236
S'session_id_admin'
p237
asbag48
(g69
g50
NtRp238
(dp239
g53
(dp240
g80
g81
ssg62
g229
sg55
(lp241
S':'
asbag48
(g69
g50
NtRp242
(dp243
g53
(dp244
sg62
g229
sg55
(lp245
g48
(g49
g50
NtRp246
(dp247
g53
(dp248
g61
I4
ssg62
g242
sg55
(lp249
g48
(g57
g50
NtRp250
(dp251
g53
(dp252
g61
I3
ssg62
Nsg55
(lp253
g48
(g64
g50
NtRp254
(dp255
g53
(dp256
sg62
g250
sg55
(lp257
g48
(g69
g50
NtRp258
(dp259
g53
(dp260
g73
g74
ssg62
g254
sg55
(lp261
S'comment'
p262
asbag48
(g69
g50
NtRp263
(dp264
g53
(dp265
g80
g81
ssg62
g254
sg55
(lp266
S':'
asbag48
(g69
g50
NtRp267
(dp268
g53
(dp269
sg62
g254
sg55
(lp270
g48
(g49
g50
NtRp271
(dp272
g53
(dp273
g61
I3
ssg62
g267
sg55
(lp274
S''
asbasbasbag48
(g64
g50
NtRp275
(dp276
g53
(dp277
sg62
g250
sg55
(lp278
g48
(g69
g50
NtRp279
(dp280
g53
(dp281
g73
g74
ssg62
g275
sg55
(lp282
S'domain'
p283
asbag48
(g69
g50
NtRp284
(dp285
g53
(dp286
g80
g81
ssg62
g275
sg55
(lp287
S':'
asbag48
(g69
g50
NtRp288
(dp289
g53
(dp290
sg62
g275
sg55
(lp291
g48
(g49
g50
NtRp292
(dp293
g53
(dp294
g61
I3
ssg62
g288
sg55
(lp295
S''
asbasbasbag48
(g64
g50
NtRp296
(dp297
g53
(dp298
sg62
g250
sg55
(lp299
g48
(g69
g50
NtRp300
(dp301
g53
(dp302
g73
g74
ssg62
g296
sg55
(lp303
S'expires'
p304
asbag48
(g69
g50
NtRp305
(dp306
g53
(dp307
g80
g81
ssg62
g296
sg55
(lp308
S':'
asbag48
(g69
g50
NtRp309
(dp310
g53
(dp311
sg62
g296
sg55
(lp312
g48
(g49
g50
NtRp313
(dp314
g53
(dp315
g61
I3
ssg62
g309
sg55
(lp316
S''
asbasbasbag48
(g64
g50
NtRp317
(dp318
g53
(dp319
sg62
g250
sg55
(lp320
g48
(g69
g50
NtRp321
(dp322
g53
(dp323
g73
g74
ssg62
g317
sg55
(lp324
S'max-age'
p325
asbag48
(g69
g50
NtRp326
(dp327
g53
(dp328
g80
g81
ssg62
g317
sg55
(lp329
S':'
asbag48
(g69
g50
NtRp330
(dp331
g53
(dp332
sg62
g317
sg55
(lp333
g48
(g49
g50
NtRp334
(dp335
g53
(dp336
g61
I3
ssg62
g330
sg55
(lp337
S''
asbasbasbag48
(g64
g50
NtRp338
(dp339
g53
(dp340
sg62
g250
sg55
(lp341
g48
(g69
g50
NtRp342
(dp343
g53
(dp344
g73
g74
ssg62
g338
sg55
(lp345
S'path'
p346
asbag48
(g69
g50
NtRp347
(dp348
g53
(dp349
g80
g81
ssg62
g338
sg55
(lp350
S':'
asbag48
(g69
g50
NtRp351
(dp352
g53
(dp353
sg62
g338
sg55
(lp354
g48
(g49
g50
NtRp355
(dp356
g53
(dp357
g61
I3
ssg62
g351
sg55
(lp358
S''
asbasbasbag48
(g64
g50
NtRp359
(dp360
g53
(dp361
sg62
g250
sg55
(lp362
g48
(g69
g50
NtRp363
(dp364
g53
(dp365
g73
g74
ssg62
g359
sg55
(lp366
S'secure'
p367
asbag48
(g69
g50
NtRp368
(dp369
g53
(dp370
g80
g81
ssg62
g359
sg55
(lp371
S':'
asbag48
(g69
g50
NtRp372
(dp373
g53
(dp374
sg62
g359
sg55
(lp375
g48
(g49
g50
NtRp376
(dp377
g53
(dp378
g61
I3
ssg62
g372
sg55
(lp379
S''
asbasbasbag48
(g64
g50
NtRp380
(dp381
g53
(dp382
sg62
g250
sg55
(lp383
g48
(g69
g50
NtRp384
(dp385
g53
(dp386
g73
g74
ssg62
g380
sg55
(lp387
S'version'
p388
asbag48
(g69
g50
NtRp389
(dp390
g53
(dp391
g80
g81
ssg62
g380
sg55
(lp392
S':'
asbag48
(g69
g50
NtRp393
(dp394
g53
(dp395
sg62
g380
sg55
(lp396
g48
(g49
g50
NtRp397
(dp398
g53
(dp399
g61
I3
ssg62
g393
sg55
(lp400
S''
asbasbasbasbasbasbasbag48
(g64
g50
NtRp401
(dp402
g53
(dp403
sg62
g225
sg55
(lp404
g48
(g69
g50
NtRp405
(dp406
g53
(dp407
g73
g74
ssg62
g401
sg55
(lp408
S'session_id_ojtest'
p409
asbag48
(g69
g50
NtRp410
(dp411
g53
(dp412
g80
g81
ssg62
g401
sg55
(lp413
S':'
asbag48
(g69
g50
NtRp414
(dp415
g53
(dp416
sg62
g401
sg55
(lp417
g48
(g49
g50
NtRp418
(dp419
g53
(dp420
g61
I4
ssg62
g414
sg55
(lp421
g48
(g57
g50
NtRp422
(dp423
g53
(dp424
g61
I3
ssg62
Nsg55
(lp425
g48
(g64
g50
NtRp426
(dp427
g53
(dp428
sg62
g422
sg55
(lp429
g48
(g69
g50
NtRp430
(dp431
g53
(dp432
g73
g74
ssg62
g426
sg55
(lp433
g262
asbag48
(g69
g50
NtRp434
(dp435
g53
(dp436
g80
g81
ssg62
g426
sg55
(lp437
S':'
asbag48
(g69
g50
NtRp438
(dp439
g53
(dp440
sg62
g426
sg55
(lp441
g48
(g49
g50
NtRp442
(dp443
g53
(dp444
g61
I3
ssg62
g438
sg55
(lp445
S''
asbasbasbag48
(g64
g50
NtRp446
(dp447
g53
(dp448
sg62
g422
sg55
(lp449
g48
(g69
g50
NtRp450
(dp451
g53
(dp452
g73
g74
ssg62
g446
sg55
(lp453
g283
asbag48
(g69
g50
NtRp454
(dp455
g53
(dp456
g80
g81
ssg62
g446
sg55
(lp457
S':'
asbag48
(g69
g50
NtRp458
(dp459
g53
(dp460
sg62
g446
sg55
(lp461
g48
(g49
g50
NtRp462
(dp463
g53
(dp464
g61
I3
ssg62
g458
sg55
(lp465
S''
asbasbasbag48
(g64
g50
NtRp466
(dp467
g53
(dp468
sg62
g422
sg55
(lp469
g48
(g69
g50
NtRp470
(dp471
g53
(dp472
g73
g74
ssg62
g466
sg55
(lp473
g304
asbag48
(g69
g50
NtRp474
(dp475
g53
(dp476
g80
g81
ssg62
g466
sg55
(lp477
S':'
asbag48
(g69
g50
NtRp478
(dp479
g53
(dp480
sg62
g466
sg55
(lp481
g48
(g49
g50
NtRp482
(dp483
g53
(dp484
g61
I3
ssg62
g478
sg55
(lp485
S''
asbasbasbag48
(g64
g50
NtRp486
(dp487
g53
(dp488
sg62
g422
sg55
(lp489
g48
(g69
g50
NtRp490
(dp491
g53
(dp492
g73
g74
ssg62
g486
sg55
(lp493
g325
asbag48
(g69
g50
NtRp494
(dp495
g53
(dp496
g80
g81
ssg62
g486
sg55
(lp497
S':'
asbag48
(g69
g50
NtRp498
(dp499
g53
(dp500
sg62
g486
sg55
(lp501
g48
(g49
g50
NtRp502
(dp503
g53
(dp504
g61
I3
ssg62
g498
sg55
(lp505
S''
asbasbasbag48
(g64
g50
NtRp506
(dp507
g53
(dp508
sg62
g422
sg55
(lp509
g48
(g69
g50
NtRp510
(dp511
g53
(dp512
g73
g74
ssg62
g506
sg55
(lp513
g346
asbag48
(g69
g50
NtRp514
(dp515
g53
(dp516
g80
g81
ssg62
g506
sg55
(lp517
S':'
asbag48
(g69
g50
NtRp518
(dp519
g53
(dp520
sg62
g506
sg55
(lp521
g48
(g49
g50
NtRp522
(dp523
g53
(dp524
g61
I3
ssg62
g518
sg55
(lp525
S''
asbasbasbag48
(g64
g50
NtRp526
(dp527
g53
(dp528
sg62
g422
sg55
(lp529
g48
(g69
g50
NtRp530
(dp531
g53
(dp532
g73
g74
ssg62
g526
sg55
(lp533
g367
asbag48
(g69
g50
NtRp534
(dp535
g53
(dp536
g80
g81
ssg62
g526
sg55
(lp537
S':'
asbag48
(g69
g50
NtRp538
(dp539
g53
(dp540
sg62
g526
sg55
(lp541
g48
(g49
g50
NtRp542
(dp543
g53
(dp544
g61
I3
ssg62
g538
sg55
(lp545
S''
asbasbasbag48
(g64
g50
NtRp546
(dp547
g53
(dp548
sg62
g422
sg55
(lp549
g48
(g69
g50
NtRp550
(dp551
g53
(dp552
g73
g74
ssg62
g546
sg55
(lp553
g388
asbag48
(g69
g50
NtRp554
(dp555
g53
(dp556
g80
g81
ssg62
g546
sg55
(lp557
S':'
asbag48
(g69
g50
NtRp558
(dp559
g53
(dp560
sg62
g546
sg55
(lp561
g48
(g49
g50
NtRp562
(dp563
g53
(dp564
g61
I3
ssg62
g558
sg55
(lp565
S''
asbasbasbasbasbasbasbasbasbasbasbag48
(g64
g50
NtRp566
(dp567
g53
(dp568
sg62
g58
sg55
(lp569
g48
(g69
g50
NtRp570
(dp571
g53
(dp572
g73
g74
ssg62
g566
sg55
(lp573
S'env'
p574
asbag48
(g69
g50
NtRp575
(dp576
g53
(dp577
g80
g81
ssg62
g566
sg55
(lp578
S':'
asbag48
(g69
g50
NtRp579
(dp580
g53
(dp581
sg62
g566
sg55
(lp582
g48
(g49
g50
NtRp583
(dp584
g53
(dp585
g61
I5
ssg62
g579
sg55
(lp586
g48
(g57
g50
NtRp587
(dp588
g53
(dp589
g61
I4
ssg62
Nsg55
(lp590
g48
(g64
g50
NtRp591
(dp592
g53
(dp593
sg62
g587
sg55
(lp594
g48
(g69
g50
NtRp595
(dp596
g53
(dp597
g73
g74
ssg62
g591
sg55
(lp598
S'app_folders'
p599
asbag48
(g69
g50
NtRp600
(dp601
g53
(dp602
g80
g81
ssg62
g591
sg55
(lp603
S':'
asbag48
(g69
g50
NtRp604
(dp605
g53
(dp606
sg62
g591
sg55
(lp607
g48
(g49
g50
NtRp608
(dp609
g53
(dp610
g61
I4
ssg62
g604
sg55
(lp611
S"set(['D:\\\\Dropbox\\\\Eclipse\\\\OJDevSourceProject\\\\project\\\\web2py\\\\applications\\\\admin\\\\', 'D:\\\\Dropbox\\\\Eclipse\\\\OJDevSourceProject\\\\project\\\\web2py\\\\applications\\\\OJTest\\\\', 'D:\\\\Dropbox\\\\Eclipse\\\\OJDevSourceProject\\\\project\\\\web2py\\\\applications\\\\OJTest_old\\\\', 'D:\\\\Dropbox\\\\Eclipse\\\\OJDevSourceProject\\\\project\\\\web2py\\\\applications\\\\ojtest\\\\', 'D:\\\\Dropbox\\\\Eclipse\\\\OJDevSourceProject\\\\project\\\\web2py\\\\applications\\\\OJtest\\\\'])"
p612
asbasbasbag48
(g64
g50
NtRp613
(dp614
g53
(dp615
sg62
g587
sg55
(lp616
g48
(g69
g50
NtRp617
(dp618
g53
(dp619
g73
g74
ssg62
g613
sg55
(lp620
S'applications_parent'
p621
asbag48
(g69
g50
NtRp622
(dp623
g53
(dp624
g80
g81
ssg62
g613
sg55
(lp625
S':'
asbag48
(g69
g50
NtRp626
(dp627
g53
(dp628
sg62
g613
sg55
(lp629
g48
(g49
g50
NtRp630
(dp631
g53
(dp632
g61
I4
ssg62
g626
sg55
(lp633
S'D:\\Dropbox\\Eclipse\\OJDevSourceProject\\project\\web2py'
p634
asbasbasbag48
(g64
g50
NtRp635
(dp636
g53
(dp637
sg62
g587
sg55
(lp638
g48
(g69
g50
NtRp639
(dp640
g53
(dp641
g73
g74
ssg62
g635
sg55
(lp642
S'cmd_args'
p643
asbag48
(g69
g50
NtRp644
(dp645
g53
(dp646
g80
g81
ssg62
g635
sg55
(lp647
S':'
asbag48
(g69
g50
NtRp648
(dp649
g53
(dp650
sg62
g635
sg55
(lp651
g48
(g49
g50
NtRp652
(dp653
g53
(dp654
g61
I4
ssg62
g648
sg55
(lp655
g48
(g57
g50
NtRp656
(dp657
g53
(dp658
g61
I3
ssg62
Nsg55
(lp659
sbasbasbasbag48
(g64
g50
NtRp660
(dp661
g53
(dp662
sg62
g587
sg55
(lp663
g48
(g69
g50
NtRp664
(dp665
g53
(dp666
g73
g74
ssg62
g660
sg55
(lp667
S'cmd_options'
p668
asbag48
(g69
g50
NtRp669
(dp670
g53
(dp671
g80
g81
ssg62
g660
sg55
(lp672
S':'
asbag48
(g69
g50
NtRp673
(dp674
g53
(dp675
sg62
g660
sg55
(lp676
g48
(g49
g50
NtRp677
(dp678
g53
(dp679
g61
I4
ssg62
g673
sg55
(lp680
S"<Values at 0x3693788: {'verbose': False, 'ip': '127.0.0.1', 'shutdown_timeout': 5, 'taskbar': False, 'nocron': False, 'pid_filename': 'httpserver.pid', 'maxthreads': None, 'softcron': False, 'server_name': 'John-PC', 'bpython': False, 'nogui': False, 'port': 8000, 'extcron': False, 'debuglevel': 30, 'test': None, 'folder': 'D:\\\\Dropbox\\\\Eclipse\\\\OJDevSourceProject\\\\project\\\\web2py', 'config': '', 'import_models': False, 'winservice': '', 'shell': None, 'run': '', 'log_filename': 'httpserver.log', 'args': [''], 'ssl_ca_certificate': None, 'scheduler': None, 'profiler_filename': None, 'ssl_private_key': '', 'password': '<ask>', 'request_queue_size': 5, 'ssl_certificate': '', 'cronjob': False, 'plain': False, 'quiet': False, 'interfaces': None, 'minthreads': None, 'timeout': 10, 'numthreads': None, 'nobanner': False}>"
p681
asbasbasbag48
(g64
g50
NtRp682
(dp683
g53
(dp684
sg62
g587
sg55
(lp685
g48
(g69
g50
NtRp686
(dp687
g53
(dp688
g73
g74
ssg62
g682
sg55
(lp689
S'content_length'
p690
asbag48
(g69
g50
NtRp691
(dp692
g53
(dp693
g80
g81
ssg62
g682
sg55
(lp694
S':'
asbag48
(g69
g50
NtRp695
(dp696
g53
(dp697
sg62
g682
sg55
(lp698
g48
(g49
g50
NtRp699
(dp700
g53
(dp701
g61
I4
ssg62
g695
sg55
(lp702
S'0'
asbasbasbag48
(g64
g50
NtRp703
(dp704
g53
(dp705
sg62
g587
sg55
(lp706
g48
(g69
g50
NtRp707
(dp708
g53
(dp709
g73
g74
ssg62
g703
sg55
(lp710
S'db_sessions'
p711
asbag48
(g69
g50
NtRp712
(dp713
g53
(dp714
g80
g81
ssg62
g703
sg55
(lp715
S':'
asbag48
(g69
g50
NtRp716
(dp717
g53
(dp718
sg62
g703
sg55
(lp719
g48
(g49
g50
NtRp720
(dp721
g53
(dp722
g61
I4
ssg62
g716
sg55
(lp723
S'set([])'
p724
asbasbasbag48
(g64
g50
NtRp725
(dp726
g53
(dp727
sg62
g587
sg55
(lp728
g48
(g69
g50
NtRp729
(dp730
g53
(dp731
g73
g74
ssg62
g725
sg55
(lp732
S'debugging'
p733
asbag48
(g69
g50
NtRp734
(dp735
g53
(dp736
g80
g81
ssg62
g725
sg55
(lp737
S':'
asbag48
(g69
g50
NtRp738
(dp739
g53
(dp740
sg62
g725
sg55
(lp741
g48
(g49
g50
NtRp742
(dp743
g53
(dp744
g61
I4
ssg62
g738
sg55
(lp745
S'False'
p746
asbasbasbag48
(g64
g50
NtRp747
(dp748
g53
(dp749
sg62
g587
sg55
(lp750
g48
(g69
g50
NtRp751
(dp752
g53
(dp753
g73
g74
ssg62
g747
sg55
(lp754
S'gluon_parent'
p755
asbag48
(g69
g50
NtRp756
(dp757
g53
(dp758
g80
g81
ssg62
g747
sg55
(lp759
S':'
asbag48
(g69
g50
NtRp760
(dp761
g53
(dp762
sg62
g747
sg55
(lp763
g48
(g49
g50
NtRp764
(dp765
g53
(dp766
g61
I4
ssg62
g760
sg55
(lp767
S'D:\\Dropbox\\Eclipse\\OJDevSourceProject\\project\\web2py'
p768
asbasbasbag48
(g64
g50
NtRp769
(dp770
g53
(dp771
sg62
g587
sg55
(lp772
g48
(g69
g50
NtRp773
(dp774
g53
(dp775
g73
g74
ssg62
g769
sg55
(lp776
S'http_accept'
p777
asbag48
(g69
g50
NtRp778
(dp779
g53
(dp780
g80
g81
ssg62
g769
sg55
(lp781
S':'
asbag48
(g69
g50
NtRp782
(dp783
g53
(dp784
sg62
g769
sg55
(lp785
g48
(g49
g50
NtRp786
(dp787
g53
(dp788
g61
I4
ssg62
g782
sg55
(lp789
S'*/*'
p790
asbasbasbag48
(g64
g50
NtRp791
(dp792
g53
(dp793
sg62
g587
sg55
(lp794
g48
(g69
g50
NtRp795
(dp796
g53
(dp797
g73
g74
ssg62
g791
sg55
(lp798
S'http_accept_charset'
p799
asbag48
(g69
g50
NtRp800
(dp801
g53
(dp802
g80
g81
ssg62
g791
sg55
(lp803
S':'
asbag48
(g69
g50
NtRp804
(dp805
g53
(dp806
sg62
g791
sg55
(lp807
g48
(g49
g50
NtRp808
(dp809
g53
(dp810
g61
I4
ssg62
g804
sg55
(lp811
S'ISO-8859-1,utf-8;q=0.7,*;q=0.7'
p812
asbasbasbag48
(g64
g50
NtRp813
(dp814
g53
(dp815
sg62
g587
sg55
(lp816
g48
(g69
g50
NtRp817
(dp818
g53
(dp819
g73
g74
ssg62
g813
sg55
(lp820
S'http_accept_encoding'
p821
asbag48
(g69
g50
NtRp822
(dp823
g53
(dp824
g80
g81
ssg62
g813
sg55
(lp825
S':'
asbag48
(g69
g50
NtRp826
(dp827
g53
(dp828
sg62
g813
sg55
(lp829
g48
(g49
g50
NtRp830
(dp831
g53
(dp832
g61
I4
ssg62
g826
sg55
(lp833
S'gzip, deflate'
p834
asbasbasbag48
(g64
g50
NtRp835
(dp836
g53
(dp837
sg62
g587
sg55
(lp838
g48
(g69
g50
NtRp839
(dp840
g53
(dp841
g73
g74
ssg62
g835
sg55
(lp842
S'http_accept_language'
p843
asbag48
(g69
g50
NtRp844
(dp845
g53
(dp846
g80
g81
ssg62
g835
sg55
(lp847
S':'
asbag48
(g69
g50
NtRp848
(dp849
g53
(dp850
sg62
g835
sg55
(lp851
g48
(g49
g50
NtRp852
(dp853
g53
(dp854
g61
I4
ssg62
g848
sg55
(lp855
S'en-us,en;q=0.5'
p856
asbasbasbag48
(g64
g50
NtRp857
(dp858
g53
(dp859
sg62
g587
sg55
(lp860
g48
(g69
g50
NtRp861
(dp862
g53
(dp863
g73
g74
ssg62
g857
sg55
(lp864
S'http_cache_control'
p865
asbag48
(g69
g50
NtRp866
(dp867
g53
(dp868
g80
g81
ssg62
g857
sg55
(lp869
S':'
asbag48
(g69
g50
NtRp870
(dp871
g53
(dp872
sg62
g857
sg55
(lp873
g48
(g49
g50
NtRp874
(dp875
g53
(dp876
g61
I4
ssg62
g870
sg55
(lp877
S'no-cache'
p878
asbasbasbag48
(g64
g50
NtRp879
(dp880
g53
(dp881
sg62
g587
sg55
(lp882
g48
(g69
g50
NtRp883
(dp884
g53
(dp885
g73
g74
ssg62
g879
sg55
(lp886
S'http_connection'
p887
asbag48
(g69
g50
NtRp888
(dp889
g53
(dp890
g80
g81
ssg62
g879
sg55
(lp891
S':'
asbag48
(g69
g50
NtRp892
(dp893
g53
(dp894
sg62
g879
sg55
(lp895
g48
(g49
g50
NtRp896
(dp897
g53
(dp898
g61
I4
ssg62
g892
sg55
(lp899
S'keep-alive'
p900
asbasbasbag48
(g64
g50
NtRp901
(dp902
g53
(dp903
sg62
g587
sg55
(lp904
g48
(g69
g50
NtRp905
(dp906
g53
(dp907
g73
g74
ssg62
g901
sg55
(lp908
S'http_content_length'
p909
asbag48
(g69
g50
NtRp910
(dp911
g53
(dp912
g80
g81
ssg62
g901
sg55
(lp913
S':'
asbag48
(g69
g50
NtRp914
(dp915
g53
(dp916
sg62
g901
sg55
(lp917
g48
(g49
g50
NtRp918
(dp919
g53
(dp920
g61
I4
ssg62
g914
sg55
(lp921
S'0'
asbasbasbag48
(g64
g50
NtRp922
(dp923
g53
(dp924
sg62
g587
sg55
(lp925
g48
(g69
g50
NtRp926
(dp927
g53
(dp928
g73
g74
ssg62
g922
sg55
(lp929
S'http_cookie'
p930
asbag48
(g69
g50
NtRp931
(dp932
g53
(dp933
g80
g81
ssg62
g922
sg55
(lp934
S':'
asbag48
(g69
g50
NtRp935
(dp936
g53
(dp937
sg62
g922
sg55
(lp938
g48
(g49
g50
NtRp939
(dp940
g53
(dp941
g61
I4
ssg62
g935
sg55
(lp942
S'session_id_ojtest=127.0.0.1-2961a9e5-5fba-4873-91bb-54203db9c2b1; session_id_admin=127.0.0.1-cbebe7ec-c67b-4b25-a560-3bb4d45521b3'
p943
asbasbasbag48
(g64
g50
NtRp944
(dp945
g53
(dp946
sg62
g587
sg55
(lp947
g48
(g69
g50
NtRp948
(dp949
g53
(dp950
g73
g74
ssg62
g944
sg55
(lp951
S'http_dnt'
p952
asbag48
(g69
g50
NtRp953
(dp954
g53
(dp955
g80
g81
ssg62
g944
sg55
(lp956
S':'
asbag48
(g69
g50
NtRp957
(dp958
g53
(dp959
sg62
g944
sg55
(lp960
g48
(g49
g50
NtRp961
(dp962
g53
(dp963
g61
I4
ssg62
g957
sg55
(lp964
S'1'
asbasbasbag48
(g64
g50
NtRp965
(dp966
g53
(dp967
sg62
g587
sg55
(lp968
g48
(g69
g50
NtRp969
(dp970
g53
(dp971
g73
g74
ssg62
g965
sg55
(lp972
S'http_host'
p973
asbag48
(g69
g50
NtRp974
(dp975
g53
(dp976
g80
g81
ssg62
g965
sg55
(lp977
S':'
asbag48
(g69
g50
NtRp978
(dp979
g53
(dp980
sg62
g965
sg55
(lp981
g48
(g49
g50
NtRp982
(dp983
g53
(dp984
g61
I4
ssg62
g978
sg55
(lp985
S'127.0.0.1:8000'
p986
asbasbasbag48
(g64
g50
NtRp987
(dp988
g53
(dp989
sg62
g587
sg55
(lp990
g48
(g69
g50
NtRp991
(dp992
g53
(dp993
g73
g74
ssg62
g987
sg55
(lp994
S'http_pragma'
p995
asbag48
(g69
g50
NtRp996
(dp997
g53
(dp998
g80
g81
ssg62
g987
sg55
(lp999
S':'
asbag48
(g69
g50
NtRp1000
(dp1001
g53
(dp1002
sg62
g987
sg55
(lp1003
g48
(g49
g50
NtRp1004
(dp1005
g53
(dp1006
g61
I4
ssg62
g1000
sg55
(lp1007
S'no-cache'
p1008
asbasbasbag48
(g64
g50
NtRp1009
(dp1010
g53
(dp1011
sg62
g587
sg55
(lp1012
g48
(g69
g50
NtRp1013
(dp1014
g53
(dp1015
g73
g74
ssg62
g1009
sg55
(lp1016
S'http_referer'
p1017
asbag48
(g69
g50
NtRp1018
(dp1019
g53
(dp1020
g80
g81
ssg62
g1009
sg55
(lp1021
S':'
asbag48
(g69
g50
NtRp1022
(dp1023
g53
(dp1024
sg62
g1009
sg55
(lp1025
g48
(g49
g50
NtRp1026
(dp1027
g53
(dp1028
g61
I4
ssg62
g1022
sg55
(lp1029
S'http://127.0.0.1:8000/admin/default/site'
p1030
asbasbasbag48
(g64
g50
NtRp1031
(dp1032
g53
(dp1033
sg62
g587
sg55
(lp1034
g48
(g69
g50
NtRp1035
(dp1036
g53
(dp1037
g73
g74
ssg62
g1031
sg55
(lp1038
S'http_user_agent'
p1039
asbag48
(g69
g50
NtRp1040
(dp1041
g53
(dp1042
g80
g81
ssg62
g1031
sg55
(lp1043
S':'
asbag48
(g69
g50
NtRp1044
(dp1045
g53
(dp1046
sg62
g1031
sg55
(lp1047
g48
(g49
g50
NtRp1048
(dp1049
g53
(dp1050
g61
I4
ssg62
g1044
sg55
(lp1051
S'Mozilla/5.0 (Windows NT 6.1; WOW64; rv:8.0.1) Gecko/20100101 Firefox/8.0.1'
p1052
asbasbasbag48
(g64
g50
NtRp1053
(dp1054
g53
(dp1055
sg62
g587
sg55
(lp1056
g48
(g69
g50
NtRp1057
(dp1058
g53
(dp1059
g73
g74
ssg62
g1053
sg55
(lp1060
S'http_x_requested_with'
p1061
asbag48
(g69
g50
NtRp1062
(dp1063
g53
(dp1064
g80
g81
ssg62
g1053
sg55
(lp1065
S':'
asbag48
(g69
g50
NtRp1066
(dp1067
g53
(dp1068
sg62
g1053
sg55
(lp1069
g48
(g49
g50
NtRp1070
(dp1071
g53
(dp1072
g61
I4
ssg62
g1066
sg55
(lp1073
S'XMLHttpRequest'
p1074
asbasbasbag48
(g64
g50
NtRp1075
(dp1076
g53
(dp1077
sg62
g587
sg55
(lp1078
g48
(g69
g50
NtRp1079
(dp1080
g53
(dp1081
g73
g74
ssg62
g1075
sg55
(lp1082
S'is_jython'
p1083
asbag48
(g69
g50
NtRp1084
(dp1085
g53
(dp1086
g80
g81
ssg62
g1075
sg55
(lp1087
S':'
asbag48
(g69
g50
NtRp1088
(dp1089
g53
(dp1090
sg62
g1075
sg55
(lp1091
g48
(g49
g50
NtRp1092
(dp1093
g53
(dp1094
g61
I4
ssg62
g1088
sg55
(lp1095
g746
asbasbasbag48
(g64
g50
NtRp1096
(dp1097
g53
(dp1098
sg62
g587
sg55
(lp1099
g48
(g69
g50
NtRp1100
(dp1101
g53
(dp1102
g73
g74
ssg62
g1096
sg55
(lp1103
S'path_info'
p1104
asbag48
(g69
g50
NtRp1105
(dp1106
g53
(dp1107
g80
g81
ssg62
g1096
sg55
(lp1108
S':'
asbag48
(g69
g50
NtRp1109
(dp1110
g53
(dp1111
sg62
g1096
sg55
(lp1112
g48
(g49
g50
NtRp1113
(dp1114
g53
(dp1115
g61
I4
ssg62
g1109
sg55
(lp1116
S'/admin/default/check_version'
p1117
asbasbasbag48
(g64
g50
NtRp1118
(dp1119
g53
(dp1120
sg62
g587
sg55
(lp1121
g48
(g69
g50
NtRp1122
(dp1123
g53
(dp1124
g73
g74
ssg62
g1118
sg55
(lp1125
S'query_string'
p1126
asbag48
(g69
g50
NtRp1127
(dp1128
g53
(dp1129
g80
g81
ssg62
g1118
sg55
(lp1130
S':'
asbag48
(g69
g50
NtRp1131
(dp1132
g53
(dp1133
sg62
g1118
sg55
(lp1134
g48
(g49
g50
NtRp1135
(dp1136
g53
(dp1137
g61
I4
ssg62
g1131
sg55
(lp1138
S''
asbasbasbag48
(g64
g50
NtRp1139
(dp1140
g53
(dp1141
sg62
g587
sg55
(lp1142
g48
(g69
g50
NtRp1143
(dp1144
g53
(dp1145
g73
g74
ssg62
g1139
sg55
(lp1146
S'remote_addr'
p1147
asbag48
(g69
g50
NtRp1148
(dp1149
g53
(dp1150
g80
g81
ssg62
g1139
sg55
(lp1151
S':'
asbag48
(g69
g50
NtRp1152
(dp1153
g53
(dp1154
sg62
g1139
sg55
(lp1155
g48
(g49
g50
NtRp1156
(dp1157
g53
(dp1158
g61
I4
ssg62
g1152
sg55
(lp1159
g181
asbasbasbag48
(g64
g50
NtRp1160
(dp1161
g53
(dp1162
sg62
g587
sg55
(lp1163
g48
(g69
g50
NtRp1164
(dp1165
g53
(dp1166
g73
g74
ssg62
g1160
sg55
(lp1167
S'remote_port'
p1168
asbag48
(g69
g50
NtRp1169
(dp1170
g53
(dp1171
g80
g81
ssg62
g1160
sg55
(lp1172
S':'
asbag48
(g69
g50
NtRp1173
(dp1174
g53
(dp1175
sg62
g1160
sg55
(lp1176
g48
(g49
g50
NtRp1177
(dp1178
g53
(dp1179
g61
I4
ssg62
g1173
sg55
(lp1180
S'57428'
p1181
asbasbasbag48
(g64
g50
NtRp1182
(dp1183
g53
(dp1184
sg62
g587
sg55
(lp1185
g48
(g69
g50
NtRp1186
(dp1187
g53
(dp1188
g73
g74
ssg62
g1182
sg55
(lp1189
S'request_method'
p1190
asbag48
(g69
g50
NtRp1191
(dp1192
g53
(dp1193
g80
g81
ssg62
g1182
sg55
(lp1194
S':'
asbag48
(g69
g50
NtRp1195
(dp1196
g53
(dp1197
sg62
g1182
sg55
(lp1198
g48
(g49
g50
NtRp1199
(dp1200
g53
(dp1201
g61
I4
ssg62
g1195
sg55
(lp1202
S'POST'
p1203
asbasbasbag48
(g64
g50
NtRp1204
(dp1205
g53
(dp1206
sg62
g587
sg55
(lp1207
g48
(g69
g50
NtRp1208
(dp1209
g53
(dp1210
g73
g74
ssg62
g1204
sg55
(lp1211
S'request_uri'
p1212
asbag48
(g69
g50
NtRp1213
(dp1214
g53
(dp1215
g80
g81
ssg62
g1204
sg55
(lp1216
S':'
asbag48
(g69
g50
NtRp1217
(dp1218
g53
(dp1219
sg62
g1204
sg55
(lp1220
g48
(g49
g50
NtRp1221
(dp1222
g53
(dp1223
g61
I4
ssg62
g1217
sg55
(lp1224
g1117
asbasbasbag48
(g64
g50
NtRp1225
(dp1226
g53
(dp1227
sg62
g587
sg55
(lp1228
g48
(g69
g50
NtRp1229
(dp1230
g53
(dp1231
g73
g74
ssg62
g1225
sg55
(lp1232
S'script_name'
p1233
asbag48
(g69
g50
NtRp1234
(dp1235
g53
(dp1236
g80
g81
ssg62
g1225
sg55
(lp1237
S':'
asbag48
(g69
g50
NtRp1238
(dp1239
g53
(dp1240
sg62
g1225
sg55
(lp1241
g48
(g49
g50
NtRp1242
(dp1243
g53
(dp1244
g61
I4
ssg62
g1238
sg55
(lp1245
S''
asbasbasbag48
(g64
g50
NtRp1246
(dp1247
g53
(dp1248
sg62
g587
sg55
(lp1249
g48
(g69
g50
NtRp1250
(dp1251
g53
(dp1252
g73
g74
ssg62
g1246
sg55
(lp1253
S'server_name'
p1254
asbag48
(g69
g50
NtRp1255
(dp1256
g53
(dp1257
g80
g81
ssg62
g1246
sg55
(lp1258
S':'
asbag48
(g69
g50
NtRp1259
(dp1260
g53
(dp1261
sg62
g1246
sg55
(lp1262
g48
(g49
g50
NtRp1263
(dp1264
g53
(dp1265
g61
I4
ssg62
g1259
sg55
(lp1266
S'John-PC'
p1267
asbasbasbag48
(g64
g50
NtRp1268
(dp1269
g53
(dp1270
sg62
g587
sg55
(lp1271
g48
(g69
g50
NtRp1272
(dp1273
g53
(dp1274
g73
g74
ssg62
g1268
sg55
(lp1275
S'server_port'
p1276
asbag48
(g69
g50
NtRp1277
(dp1278
g53
(dp1279
g80
g81
ssg62
g1268
sg55
(lp1280
S':'
asbag48
(g69
g50
NtRp1281
(dp1282
g53
(dp1283
sg62
g1268
sg55
(lp1284
g48
(g49
g50
NtRp1285
(dp1286
g53
(dp1287
g61
I4
ssg62
g1281
sg55
(lp1288
S'8000'
p1289
asbasbasbag48
(g64
g50
NtRp1290
(dp1291
g53
(dp1292
sg62
g587
sg55
(lp1293
g48
(g69
g50
NtRp1294
(dp1295
g53
(dp1296
g73
g74
ssg62
g1290
sg55
(lp1297
S'server_protocol'
p1298
asbag48
(g69
g50
NtRp1299
(dp1300
g53
(dp1301
g80
g81
ssg62
g1290
sg55
(lp1302
S':'
asbag48
(g69
g50
NtRp1303
(dp1304
g53
(dp1305
sg62
g1290
sg55
(lp1306
g48
(g49
g50
NtRp1307
(dp1308
g53
(dp1309
g61
I4
ssg62
g1303
sg55
(lp1310
S'HTTP/1.1'
p1311
asbasbasbag48
(g64
g50
NtRp1312
(dp1313
g53
(dp1314
sg62
g587
sg55
(lp1315
g48
(g69
g50
NtRp1316
(dp1317
g53
(dp1318
g73
g74
ssg62
g1312
sg55
(lp1319
S'server_software'
p1320
asbag48
(g69
g50
NtRp1321
(dp1322
g53
(dp1323
g80
g81
ssg62
g1312
sg55
(lp1324
S':'
asbag48
(g69
g50
NtRp1325
(dp1326
g53
(dp1327
sg62
g1312
sg55
(lp1328
g48
(g49
g50
NtRp1329
(dp1330
g53
(dp1331
g61
I4
ssg62
g1325
sg55
(lp1332
S'Rocket 1.2.4'
p1333
asbasbasbag48
(g64
g50
NtRp1334
(dp1335
g53
(dp1336
sg62
g587
sg55
(lp1337
g48
(g69
g50
NtRp1338
(dp1339
g53
(dp1340
g73
g74
ssg62
g1334
sg55
(lp1341
S'web2py_crontype'
p1342
asbag48
(g69
g50
NtRp1343
(dp1344
g53
(dp1345
g80
g81
ssg62
g1334
sg55
(lp1346
S':'
asbag48
(g69
g50
NtRp1347
(dp1348
g53
(dp1349
sg62
g1334
sg55
(lp1350
g48
(g49
g50
NtRp1351
(dp1352
g53
(dp1353
g61
I4
ssg62
g1347
sg55
(lp1354
S'hard'
p1355
asbasbasbag48
(g64
g50
NtRp1356
(dp1357
g53
(dp1358
sg62
g587
sg55
(lp1359
g48
(g69
g50
NtRp1360
(dp1361
g53
(dp1362
g73
g74
ssg62
g1356
sg55
(lp1363
S'web2py_original_uri'
p1364
asbag48
(g69
g50
NtRp1365
(dp1366
g53
(dp1367
g80
g81
ssg62
g1356
sg55
(lp1368
S':'
asbag48
(g69
g50
NtRp1369
(dp1370
g53
(dp1371
sg62
g1356
sg55
(lp1372
g48
(g49
g50
NtRp1373
(dp1374
g53
(dp1375
g61
I4
ssg62
g1369
sg55
(lp1376
S'/admin/default/check_version'
p1377
asbasbasbag48
(g64
g50
NtRp1378
(dp1379
g53
(dp1380
sg62
g587
sg55
(lp1381
g48
(g69
g50
NtRp1382
(dp1383
g53
(dp1384
g73
g74
ssg62
g1378
sg55
(lp1385
S'web2py_path'
p1386
asbag48
(g69
g50
NtRp1387
(dp1388
g53
(dp1389
g80
g81
ssg62
g1378
sg55
(lp1390
S':'
asbag48
(g69
g50
NtRp1391
(dp1392
g53
(dp1393
sg62
g1378
sg55
(lp1394
g48
(g49
g50
NtRp1395
(dp1396
g53
(dp1397
g61
I4
ssg62
g1391
sg55
(lp1398
g634
asbasbasbag48
(g64
g50
NtRp1399
(dp1400
g53
(dp1401
sg62
g587
sg55
(lp1402
g48
(g69
g50
NtRp1403
(dp1404
g53
(dp1405
g73
g74
ssg62
g1399
sg55
(lp1406
S'web2py_version'
p1407
asbag48
(g69
g50
NtRp1408
(dp1409
g53
(dp1410
g80
g81
ssg62
g1399
sg55
(lp1411
S':'
asbag48
(g69
g50
NtRp1412
(dp1413
g53
(dp1414
sg62
g1399
sg55
(lp1415
g48
(g49
g50
NtRp1416
(dp1417
g53
(dp1418
g61
I4
ssg62
g1412
sg55
(lp1419
g48
(g57
g50
NtRp1420
(dp1421
g53
(dp1422
g61
I3
ssg62
Nsg55
(lp1423
g48
(g64
g50
NtRp1424
(dp1425
g53
(dp1426
sg62
g1420
sg55
(lp1427
g48
(g69
g50
NtRp1428
(dp1429
g53
(dp1430
sg62
g1424
sg55
(lp1431
g48
(g49
g50
NtRp1432
(dp1433
g53
(dp1434
g61
I3
ssg62
g1428
sg55
(lp1435
S'1'
asbasbasbag48
(g64
g50
NtRp1436
(dp1437
g53
(dp1438
sg62
g1420
sg55
(lp1439
g48
(g69
g50
NtRp1440
(dp1441
g53
(dp1442
sg62
g1436
sg55
(lp1443
g48
(g49
g50
NtRp1444
(dp1445
g53
(dp1446
g61
I3
ssg62
g1440
sg55
(lp1447
S'99'
p1448
asbasbasbag48
(g64
g50
NtRp1449
(dp1450
g53
(dp1451
sg62
g1420
sg55
(lp1452
g48
(g69
g50
NtRp1453
(dp1454
g53
(dp1455
sg62
g1449
sg55
(lp1456
g48
(g49
g50
NtRp1457
(dp1458
g53
(dp1459
g61
I3
ssg62
g1453
sg55
(lp1460
S'2'
asbasbasbag48
(g64
g50
NtRp1461
(dp1462
g53
(dp1463
sg62
g1420
sg55
(lp1464
g48
(g69
g50
NtRp1465
(dp1466
g53
(dp1467
sg62
g1461
sg55
(lp1468
g48
(g49
g50
NtRp1469
(dp1470
g53
(dp1471
g61
I3
ssg62
g1465
sg55
(lp1472
S'datetime.datetime(2011, 9, 26, 6, 55, 33)'
p1473
asbasbasbag48
(g64
g50
NtRp1474
(dp1475
g53
(dp1476
sg62
g1420
sg55
(lp1477
g48
(g69
g50
NtRp1478
(dp1479
g53
(dp1480
sg62
g1474
sg55
(lp1481
g48
(g49
g50
NtRp1482
(dp1483
g53
(dp1484
g61
I3
ssg62
g1478
sg55
(lp1485
S'stable'
p1486
asbasbasbasbasbasbasbag48
(g64
g50
NtRp1487
(dp1488
g53
(dp1489
sg62
g587
sg55
(lp1490
g48
(g69
g50
NtRp1491
(dp1492
g53
(dp1493
g73
g74
ssg62
g1487
sg55
(lp1494
S'wsgi_errors'
p1495
asbag48
(g69
g50
NtRp1496
(dp1497
g53
(dp1498
g80
g81
ssg62
g1487
sg55
(lp1499
S':'
asbag48
(g69
g50
NtRp1500
(dp1501
g53
(dp1502
sg62
g1487
sg55
(lp1503
g48
(g49
g50
NtRp1504
(dp1505
g53
(dp1506
g61
I4
ssg62
g1500
sg55
(lp1507
S"<open file '<stderr>', mode 'w' at 0x005C00B0>"
p1508
asbasbasbag48
(g64
g50
NtRp1509
(dp1510
g53
(dp1511
sg62
g587
sg55
(lp1512
g48
(g69
g50
NtRp1513
(dp1514
g53
(dp1515
g73
g74
ssg62
g1509
sg55
(lp1516
S'wsgi_file_wrapper'
p1517
asbag48
(g69
g50
NtRp1518
(dp1519
g53
(dp1520
g80
g81
ssg62
g1509
sg55
(lp1521
S':'
asbag48
(g69
g50
NtRp1522
(dp1523
g53
(dp1524
sg62
g1509
sg55
(lp1525
g48
(g49
g50
NtRp1526
(dp1527
g53
(dp1528
g61
I4
ssg62
g1522
sg55
(lp1529
S'<class wsgiref.util.FileWrapper at 0x035B5570>'
p1530
asbasbasbag48
(g64
g50
NtRp1531
(dp1532
g53
(dp1533
sg62
g587
sg55
(lp1534
g48
(g69
g50
NtRp1535
(dp1536
g53
(dp1537
g73
g74
ssg62
g1531
sg55
(lp1538
S'wsgi_input'
p1539
asbag48
(g69
g50
NtRp1540
(dp1541
g53
(dp1542
g80
g81
ssg62
g1531
sg55
(lp1543
S':'
asbag48
(g69
g50
NtRp1544
(dp1545
g53
(dp1546
sg62
g1531
sg55
(lp1547
g48
(g49
g50
NtRp1548
(dp1549
g53
(dp1550
g61
I4
ssg62
g1544
sg55
(lp1551
S'<socket._fileobject object at 0x0824E1F0>'
p1552
asbasbasbag48
(g64
g50
NtRp1553
(dp1554
g53
(dp1555
sg62
g587
sg55
(lp1556
g48
(g69
g50
NtRp1557
(dp1558
g53
(dp1559
g73
g74
ssg62
g1553
sg55
(lp1560
S'wsgi_multiprocess'
p1561
asbag48
(g69
g50
NtRp1562
(dp1563
g53
(dp1564
g80
g81
ssg62
g1553
sg55
(lp1565
S':'
asbag48
(g69
g50
NtRp1566
(dp1567
g53
(dp1568
sg62
g1553
sg55
(lp1569
g48
(g49
g50
NtRp1570
(dp1571
g53
(dp1572
g61
I4
ssg62
g1566
sg55
(lp1573
g746
asbasbasbag48
(g64
g50
NtRp1574
(dp1575
g53
(dp1576
sg62
g587
sg55
(lp1577
g48
(g69
g50
NtRp1578
(dp1579
g53
(dp1580
g73
g74
ssg62
g1574
sg55
(lp1581
S'wsgi_multithread'
p1582
asbag48
(g69
g50
NtRp1583
(dp1584
g53
(dp1585
g80
g81
ssg62
g1574
sg55
(lp1586
S':'
asbag48
(g69
g50
NtRp1587
(dp1588
g53
(dp1589
sg62
g1574
sg55
(lp1590
g48
(g49
g50
NtRp1591
(dp1592
g53
(dp1593
g61
I4
ssg62
g1587
sg55
(lp1594
g91
asbasbasbag48
(g64
g50
NtRp1595
(dp1596
g53
(dp1597
sg62
g587
sg55
(lp1598
g48
(g69
g50
NtRp1599
(dp1600
g53
(dp1601
g73
g74
ssg62
g1595
sg55
(lp1602
S'wsgi_run_once'
p1603
asbag48
(g69
g50
NtRp1604
(dp1605
g53
(dp1606
g80
g81
ssg62
g1595
sg55
(lp1607
S':'
asbag48
(g69
g50
NtRp1608
(dp1609
g53
(dp1610
sg62
g1595
sg55
(lp1611
g48
(g49
g50
NtRp1612
(dp1613
g53
(dp1614
g61
I4
ssg62
g1608
sg55
(lp1615
g746
asbasbasbag48
(g64
g50
NtRp1616
(dp1617
g53
(dp1618
sg62
g587
sg55
(lp1619
g48
(g69
g50
NtRp1620
(dp1621
g53
(dp1622
g73
g74
ssg62
g1616
sg55
(lp1623
S'wsgi_url_scheme'
p1624
asbag48
(g69
g50
NtRp1625
(dp1626
g53
(dp1627
g80
g81
ssg62
g1616
sg55
(lp1628
S':'
asbag48
(g69
g50
NtRp1629
(dp1630
g53
(dp1631
sg62
g1616
sg55
(lp1632
g48
(g49
g50
NtRp1633
(dp1634
g53
(dp1635
g61
I4
ssg62
g1629
sg55
(lp1636
S'http'
p1637
asbasbasbag48
(g64
g50
NtRp1638
(dp1639
g53
(dp1640
sg62
g587
sg55
(lp1641
g48
(g69
g50
NtRp1642
(dp1643
g53
(dp1644
g73
g74
ssg62
g1638
sg55
(lp1645
S'wsgi_version'
p1646
asbag48
(g69
g50
NtRp1647
(dp1648
g53
(dp1649
g80
g81
ssg62
g1638
sg55
(lp1650
S':'
asbag48
(g69
g50
NtRp1651
(dp1652
g53
(dp1653
sg62
g1638
sg55
(lp1654
g48
(g49
g50
NtRp1655
(dp1656
g53
(dp1657
g61
I4
ssg62
g1651
sg55
(lp1658
g48
(g57
g50
NtRp1659
(dp1660
g53
(dp1661
g61
I3
ssg62
Nsg55
(lp1662
g48
(g64
g50
NtRp1663
(dp1664
g53
(dp1665
sg62
g1659
sg55
(lp1666
g48
(g69
g50
NtRp1667
(dp1668
g53
(dp1669
sg62
g1663
sg55
(lp1670
g48
(g49
g50
NtRp1671
(dp1672
g53
(dp1673
g61
I3
ssg62
g1667
sg55
(lp1674
S'1'
asbasbasbag48
(g64
g50
NtRp1675
(dp1676
g53
(dp1677
sg62
g1659
sg55
(lp1678
g48
(g69
g50
NtRp1679
(dp1680
g53
(dp1681
sg62
g1675
sg55
(lp1682
g48
(g49
g50
NtRp1683
(dp1684
g53
(dp1685
g61
I3
ssg62
g1679
sg55
(lp1686
S'0'
asbasbasbasbasbasbasbasbasbasbasbag48
(g64
g50
NtRp1687
(dp1688
g53
(dp1689
sg62
g58
sg55
(lp1690
g48
(g69
g50
NtRp1691
(dp1692
g53
(dp1693
g73
g74
ssg62
g1687
sg55
(lp1694
S'extension'
p1695
asbag48
(g69
g50
NtRp1696
(dp1697
g53
(dp1698
g80
g81
ssg62
g1687
sg55
(lp1699
S':'
asbag48
(g69
g50
NtRp1700
(dp1701
g53
(dp1702
sg62
g1687
sg55
(lp1703
g48
(g49
g50
NtRp1704
(dp1705
g53
(dp1706
g61
I5
ssg62
g1700
sg55
(lp1707
S'html'
p1708
asbasbasbag48
(g64
g50
NtRp1709
(dp1710
g53
(dp1711
sg62
g58
sg55
(lp1712
g48
(g69
g50
NtRp1713
(dp1714
g53
(dp1715
g73
g74
ssg62
g1709
sg55
(lp1716
S'folder'
p1717
asbag48
(g69
g50
NtRp1718
(dp1719
g53
(dp1720
g80
g81
ssg62
g1709
sg55
(lp1721
S':'
asbag48
(g69
g50
NtRp1722
(dp1723
g53
(dp1724
sg62
g1709
sg55
(lp1725
g48
(g49
g50
NtRp1726
(dp1727
g53
(dp1728
g61
I5
ssg62
g1722
sg55
(lp1729
S'D:\\Dropbox\\Eclipse\\OJDevSourceProject\\project\\web2py\\applications\\admin\\'
p1730
asbasbasbag48
(g64
g50
NtRp1731
(dp1732
g53
(dp1733
sg62
g58
sg55
(lp1734
g48
(g69
g50
NtRp1735
(dp1736
g53
(dp1737
g73
g74
ssg62
g1731
sg55
(lp1738
S'function'
p1739
asbag48
(g69
g50
NtRp1740
(dp1741
g53
(dp1742
g80
g81
ssg62
g1731
sg55
(lp1743
S':'
asbag48
(g69
g50
NtRp1744
(dp1745
g53
(dp1746
sg62
g1731
sg55
(lp1747
g48
(g49
g50
NtRp1748
(dp1749
g53
(dp1750
g61
I5
ssg62
g1744
sg55
(lp1751
S'check_version'
p1752
asbasbasbag48
(g64
g50
NtRp1753
(dp1754
g53
(dp1755
sg62
g58
sg55
(lp1756
g48
(g69
g50
NtRp1757
(dp1758
g53
(dp1759
g73
g74
ssg62
g1753
sg55
(lp1760
S'get_vars'
p1761
asbag48
(g69
g50
NtRp1762
(dp1763
g53
(dp1764
g80
g81
ssg62
g1753
sg55
(lp1765
S':'
asbag48
(g69
g50
NtRp1766
(dp1767
g53
(dp1768
sg62
g1753
sg55
(lp1769
g48
(g49
g50
NtRp1770
(dp1771
g53
(dp1772
g61
I5
ssg62
g1766
sg55
(lp1773
g48
(g57
g50
NtRp1774
(dp1775
g53
(dp1776
g61
I4
ssg62
Nsg55
(lp1777
sbasbasbasbag48
(g64
g50
NtRp1778
(dp1779
g53
(dp1780
sg62
g58
sg55
(lp1781
g48
(g69
g50
NtRp1782
(dp1783
g53
(dp1784
g73
g74
ssg62
g1778
sg55
(lp1785
S'global_settings'
p1786
asbag48
(g69
g50
NtRp1787
(dp1788
g53
(dp1789
g80
g81
ssg62
g1778
sg55
(lp1790
S':'
asbag48
(g69
g50
NtRp1791
(dp1792
g53
(dp1793
sg62
g1778
sg55
(lp1794
g48
(g49
g50
NtRp1795
(dp1796
g53
(dp1797
g61
I5
ssg62
g1791
sg55
(lp1798
g48
(g57
g50
NtRp1799
(dp1800
g53
(dp1801
g61
I4
ssg62
Nsg55
(lp1802
g48
(g64
g50
NtRp1803
(dp1804
g53
(dp1805
sg62
g1799
sg55
(lp1806
g48
(g69
g50
NtRp1807
(dp1808
g53
(dp1809
g73
g74
ssg62
g1803
sg55
(lp1810
g599
asbag48
(g69
g50
NtRp1811
(dp1812
g53
(dp1813
g80
g81
ssg62
g1803
sg55
(lp1814
S':'
asbag48
(g69
g50
NtRp1815
(dp1816
g53
(dp1817
sg62
g1803
sg55
(lp1818
g48
(g49
g50
NtRp1819
(dp1820
g53
(dp1821
g61
I4
ssg62
g1815
sg55
(lp1822
S"set(['D:\\\\Dropbox\\\\Eclipse\\\\OJDevSourceProject\\\\project\\\\web2py\\\\applications\\\\admin\\\\', 'D:\\\\Dropbox\\\\Eclipse\\\\OJDevSourceProject\\\\project\\\\web2py\\\\applications\\\\OJTest\\\\', 'D:\\\\Dropbox\\\\Eclipse\\\\OJDevSourceProject\\\\project\\\\web2py\\\\applications\\\\OJTest_old\\\\', 'D:\\\\Dropbox\\\\Eclipse\\\\OJDevSourceProject\\\\project\\\\web2py\\\\applications\\\\ojtest\\\\', 'D:\\\\Dropbox\\\\Eclipse\\\\OJDevSourceProject\\\\project\\\\web2py\\\\applications\\\\OJtest\\\\'])"
p1823
asbasbasbag48
(g64
g50
NtRp1824
(dp1825
g53
(dp1826
sg62
g1799
sg55
(lp1827
g48
(g69
g50
NtRp1828
(dp1829
g53
(dp1830
g73
g74
ssg62
g1824
sg55
(lp1831
g621
asbag48
(g69
g50
NtRp1832
(dp1833
g53
(dp1834
g80
g81
ssg62
g1824
sg55
(lp1835
S':'
asbag48
(g69
g50
NtRp1836
(dp1837
g53
(dp1838
sg62
g1824
sg55
(lp1839
g48
(g49
g50
NtRp1840
(dp1841
g53
(dp1842
g61
I4
ssg62
g1836
sg55
(lp1843
g634
asbasbasbag48
(g64
g50
NtRp1844
(dp1845
g53
(dp1846
sg62
g1799
sg55
(lp1847
g48
(g69
g50
NtRp1848
(dp1849
g53
(dp1850
g73
g74
ssg62
g1844
sg55
(lp1851
g643
asbag48
(g69
g50
NtRp1852
(dp1853
g53
(dp1854
g80
g81
ssg62
g1844
sg55
(lp1855
S':'
asbag48
(g69
g50
NtRp1856
(dp1857
g53
(dp1858
sg62
g1844
sg55
(lp1859
g48
(g49
g50
NtRp1860
(dp1861
g53
(dp1862
g61
I4
ssg62
g1856
sg55
(lp1863
g48
(g57
g50
NtRp1864
(dp1865
g53
(dp1866
g61
I3
ssg62
Nsg55
(lp1867
sbasbasbasbag48
(g64
g50
NtRp1868
(dp1869
g53
(dp1870
sg62
g1799
sg55
(lp1871
g48
(g69
g50
NtRp1872
(dp1873
g53
(dp1874
g73
g74
ssg62
g1868
sg55
(lp1875
g668
asbag48
(g69
g50
NtRp1876
(dp1877
g53
(dp1878
g80
g81
ssg62
g1868
sg55
(lp1879
S':'
asbag48
(g69
g50
NtRp1880
(dp1881
g53
(dp1882
sg62
g1868
sg55
(lp1883
g48
(g49
g50
NtRp1884
(dp1885
g53
(dp1886
g61
I4
ssg62
g1880
sg55
(lp1887
S"<Values at 0x3693788: {'verbose': False, 'ip': '127.0.0.1', 'shutdown_timeout': 5, 'taskbar': False, 'nocron': False, 'pid_filename': 'httpserver.pid', 'maxthreads': None, 'softcron': False, 'server_name': 'John-PC', 'bpython': False, 'nogui': False, 'port': 8000, 'extcron': False, 'debuglevel': 30, 'test': None, 'folder': 'D:\\\\Dropbox\\\\Eclipse\\\\OJDevSourceProject\\\\project\\\\web2py', 'config': '', 'import_models': False, 'winservice': '', 'shell': None, 'run': '', 'log_filename': 'httpserver.log', 'args': [''], 'ssl_ca_certificate': None, 'scheduler': None, 'profiler_filename': None, 'ssl_private_key': '', 'password': '<ask>', 'request_queue_size': 5, 'ssl_certificate': '', 'cronjob': False, 'plain': False, 'quiet': False, 'interfaces': None, 'minthreads': None, 'timeout': 10, 'numthreads': None, 'nobanner': False}>"
p1888
asbasbasbag48
(g64
g50
NtRp1889
(dp1890
g53
(dp1891
sg62
g1799
sg55
(lp1892
g48
(g69
g50
NtRp1893
(dp1894
g53
(dp1895
g73
g74
ssg62
g1889
sg55
(lp1896
g711
asbag48
(g69
g50
NtRp1897
(dp1898
g53
(dp1899
g80
g81
ssg62
g1889
sg55
(lp1900
S':'
asbag48
(g69
g50
NtRp1901
(dp1902
g53
(dp1903
sg62
g1889
sg55
(lp1904
g48
(g49
g50
NtRp1905
(dp1906
g53
(dp1907
g61
I4
ssg62
g1901
sg55
(lp1908
S'set([])'
p1909
asbasbasbag48
(g64
g50
NtRp1910
(dp1911
g53
(dp1912
sg62
g1799
sg55
(lp1913
g48
(g69
g50
NtRp1914
(dp1915
g53
(dp1916
g73
g74
ssg62
g1910
sg55
(lp1917
g733
asbag48
(g69
g50
NtRp1918
(dp1919
g53
(dp1920
g80
g81
ssg62
g1910
sg55
(lp1921
S':'
asbag48
(g69
g50
NtRp1922
(dp1923
g53
(dp1924
sg62
g1910
sg55
(lp1925
g48
(g49
g50
NtRp1926
(dp1927
g53
(dp1928
g61
I4
ssg62
g1922
sg55
(lp1929
g746
asbasbasbag48
(g64
g50
NtRp1930
(dp1931
g53
(dp1932
sg62
g1799
sg55
(lp1933
g48
(g69
g50
NtRp1934
(dp1935
g53
(dp1936
g73
g74
ssg62
g1930
sg55
(lp1937
g755
asbag48
(g69
g50
NtRp1938
(dp1939
g53
(dp1940
g80
g81
ssg62
g1930
sg55
(lp1941
S':'
asbag48
(g69
g50
NtRp1942
(dp1943
g53
(dp1944
sg62
g1930
sg55
(lp1945
g48
(g49
g50
NtRp1946
(dp1947
g53
(dp1948
g61
I4
ssg62
g1942
sg55
(lp1949
g768
asbasbasbag48
(g64
g50
NtRp1950
(dp1951
g53
(dp1952
sg62
g1799
sg55
(lp1953
g48
(g69
g50
NtRp1954
(dp1955
g53
(dp1956
g73
g74
ssg62
g1950
sg55
(lp1957
g1083
asbag48
(g69
g50
NtRp1958
(dp1959
g53
(dp1960
g80
g81
ssg62
g1950
sg55
(lp1961
S':'
asbag48
(g69
g50
NtRp1962
(dp1963
g53
(dp1964
sg62
g1950
sg55
(lp1965
g48
(g49
g50
NtRp1966
(dp1967
g53
(dp1968
g61
I4
ssg62
g1962
sg55
(lp1969
g746
asbasbasbag48
(g64
g50
NtRp1970
(dp1971
g53
(dp1972
sg62
g1799
sg55
(lp1973
g48
(g69
g50
NtRp1974
(dp1975
g53
(dp1976
g73
g74
ssg62
g1970
sg55
(lp1977
g1342
asbag48
(g69
g50
NtRp1978
(dp1979
g53
(dp1980
g80
g81
ssg62
g1970
sg55
(lp1981
S':'
asbag48
(g69
g50
NtRp1982
(dp1983
g53
(dp1984
sg62
g1970
sg55
(lp1985
g48
(g49
g50
NtRp1986
(dp1987
g53
(dp1988
g61
I4
ssg62
g1982
sg55
(lp1989
g1355
asbasbasbag48
(g64
g50
NtRp1990
(dp1991
g53
(dp1992
sg62
g1799
sg55
(lp1993
g48
(g69
g50
NtRp1994
(dp1995
g53
(dp1996
g73
g74
ssg62
g1990
sg55
(lp1997
g1407
asbag48
(g69
g50
NtRp1998
(dp1999
g53
(dp2000
g80
g81
ssg62
g1990
sg55
(lp2001
S':'
asbag48
(g69
g50
NtRp2002
(dp2003
g53
(dp2004
sg62
g1990
sg55
(lp2005
g48
(g49
g50
NtRp2006
(dp2007
g53
(dp2008
g61
I4
ssg62
g2002
sg55
(lp2009
g48
(g57
g50
NtRp2010
(dp2011
g53
(dp2012
g61
I3
ssg62
Nsg55
(lp2013
g48
(g64
g50
NtRp2014
(dp2015
g53
(dp2016
sg62
g2010
sg55
(lp2017
g48
(g69
g50
NtRp2018
(dp2019
g53
(dp2020
sg62
g2014
sg55
(lp2021
g48
(g49
g50
NtRp2022
(dp2023
g53
(dp2024
g61
I3
ssg62
g2018
sg55
(lp2025
S'1'
asbasbasbag48
(g64
g50
NtRp2026
(dp2027
g53
(dp2028
sg62
g2010
sg55
(lp2029
g48
(g69
g50
NtRp2030
(dp2031
g53
(dp2032
sg62
g2026
sg55
(lp2033
g48
(g49
g50
NtRp2034
(dp2035
g53
(dp2036
g61
I3
ssg62
g2030
sg55
(lp2037
S'99'
p2038
asbasbasbag48
(g64
g50
NtRp2039
(dp2040
g53
(dp2041
sg62
g2010
sg55
(lp2042
g48
(g69
g50
NtRp2043
(dp2044
g53
(dp2045
sg62
g2039
sg55
(lp2046
g48
(g49
g50
NtRp2047
(dp2048
g53
(dp2049
g61
I3
ssg62
g2043
sg55
(lp2050
S'2'
asbasbasbag48
(g64
g50
NtRp2051
(dp2052
g53
(dp2053
sg62
g2010
sg55
(lp2054
g48
(g69
g50
NtRp2055
(dp2056
g53
(dp2057
sg62
g2051
sg55
(lp2058
g48
(g49
g50
NtRp2059
(dp2060
g53
(dp2061
g61
I3
ssg62
g2055
sg55
(lp2062
S'datetime.datetime(2011, 9, 26, 6, 55, 33)'
p2063
asbasbasbag48
(g64
g50
NtRp2064
(dp2065
g53
(dp2066
sg62
g2010
sg55
(lp2067
g48
(g69
g50
NtRp2068
(dp2069
g53
(dp2070
sg62
g2064
sg55
(lp2071
g48
(g49
g50
NtRp2072
(dp2073
g53
(dp2074
g61
I3
ssg62
g2068
sg55
(lp2075
g1486
asbasbasbasbasbasbasbasbasbasbasbag48
(g64
g50
NtRp2076
(dp2077
g53
(dp2078
sg62
g58
sg55
(lp2079
g48
(g69
g50
NtRp2080
(dp2081
g53
(dp2082
g73
g74
ssg62
g2076
sg55
(lp2083
S'is_https'
p2084
asbag48
(g69
g50
NtRp2085
(dp2086
g53
(dp2087
g80
g81
ssg62
g2076
sg55
(lp2088
S':'
asbag48
(g69
g50
NtRp2089
(dp2090
g53
(dp2091
sg62
g2076
sg55
(lp2092
g48
(g49
g50
NtRp2093
(dp2094
g53
(dp2095
g61
I5
ssg62
g2089
sg55
(lp2096
g746
asbasbasbag48
(g64
g50
NtRp2097
(dp2098
g53
(dp2099
sg62
g58
sg55
(lp2100
g48
(g69
g50
NtRp2101
(dp2102
g53
(dp2103
g73
g74
ssg62
g2097
sg55
(lp2104
S'is_local'
p2105
asbag48
(g69
g50
NtRp2106
(dp2107
g53
(dp2108
g80
g81
ssg62
g2097
sg55
(lp2109
S':'
asbag48
(g69
g50
NtRp2110
(dp2111
g53
(dp2112
sg62
g2097
sg55
(lp2113
g48
(g49
g50
NtRp2114
(dp2115
g53
(dp2116
g61
I5
ssg62
g2110
sg55
(lp2117
g91
asbasbasbag48
(g64
g50
NtRp2118
(dp2119
g53
(dp2120
sg62
g58
sg55
(lp2121
g48
(g69
g50
NtRp2122
(dp2123
g53
(dp2124
g73
g74
ssg62
g2118
sg55
(lp2125
S'is_restful'
p2126
asbag48
(g69
g50
NtRp2127
(dp2128
g53
(dp2129
g80
g81
ssg62
g2118
sg55
(lp2130
S':'
asbag48
(g69
g50
NtRp2131
(dp2132
g53
(dp2133
sg62
g2118
sg55
(lp2134
g48
(g49
g50
NtRp2135
(dp2136
g53
(dp2137
g61
I5
ssg62
g2131
sg55
(lp2138
g746
asbasbasbag48
(g64
g50
NtRp2139
(dp2140
g53
(dp2141
sg62
g58
sg55
(lp2142
g48
(g69
g50
NtRp2143
(dp2144
g53
(dp2145
g73
g74
ssg62
g2139
sg55
(lp2146
S'now'
p2147
asbag48
(g69
g50
NtRp2148
(dp2149
g53
(dp2150
g80
g81
ssg62
g2139
sg55
(lp2151
S':'
asbag48
(g69
g50
NtRp2152
(dp2153
g53
(dp2154
sg62
g2139
sg55
(lp2155
g48
(g49
g50
NtRp2156
(dp2157
g53
(dp2158
g61
I5
ssg62
g2152
sg55
(lp2159
S'datetime.datetime(2012, 1, 12, 23, 51, 14, 932000)'
p2160
asbasbasbag48
(g64
g50
NtRp2161
(dp2162
g53
(dp2163
sg62
g58
sg55
(lp2164
g48
(g69
g50
NtRp2165
(dp2166
g53
(dp2167
g73
g74
ssg62
g2161
sg55
(lp2168
S'post_vars'
p2169
asbag48
(g69
g50
NtRp2170
(dp2171
g53
(dp2172
g80
g81
ssg62
g2161
sg55
(lp2173
S':'
asbag48
(g69
g50
NtRp2174
(dp2175
g53
(dp2176
sg62
g2161
sg55
(lp2177
g48
(g49
g50
NtRp2178
(dp2179
g53
(dp2180
g61
I5
ssg62
g2174
sg55
(lp2181
g48
(g57
g50
NtRp2182
(dp2183
g53
(dp2184
g61
I4
ssg62
Nsg55
(lp2185
sbasbasbasbag48
(g64
g50
NtRp2186
(dp2187
g53
(dp2188
sg62
g58
sg55
(lp2189
g48
(g69
g50
NtRp2190
(dp2191
g53
(dp2192
g73
g74
ssg62
g2186
sg55
(lp2193
S'url'
p2194
asbag48
(g69
g50
NtRp2195
(dp2196
g53
(dp2197
g80
g81
ssg62
g2186
sg55
(lp2198
S':'
asbag48
(g69
g50
NtRp2199
(dp2200
g53
(dp2201
sg62
g2186
sg55
(lp2202
g48
(g49
g50
NtRp2203
(dp2204
g53
(dp2205
g61
I5
ssg62
g2199
sg55
(lp2206
S'/admin/default/check_version'
p2207
asbasbasbag48
(g64
g50
NtRp2208
(dp2209
g53
(dp2210
sg62
g58
sg55
(lp2211
g48
(g69
g50
NtRp2212
(dp2213
g53
(dp2214
g73
g74
ssg62
g2208
sg55
(lp2215
S'utcnow'
p2216
asbag48
(g69
g50
NtRp2217
(dp2218
g53
(dp2219
g80
g81
ssg62
g2208
sg55
(lp2220
S':'
asbag48
(g69
g50
NtRp2221
(dp2222
g53
(dp2223
sg62
g2208
sg55
(lp2224
g48
(g49
g50
NtRp2225
(dp2226
g53
(dp2227
g61
I5
ssg62
g2221
sg55
(lp2228
S'datetime.datetime(2012, 1, 12, 12, 51, 14, 932000)'
p2229
asbasbasbag48
(g64
g50
NtRp2230
(dp2231
g53
(dp2232
sg62
g58
sg55
(lp2233
g48
(g69
g50
NtRp2234
(dp2235
g53
(dp2236
g73
g74
ssg62
g2230
sg55
(lp2237
S'uuid'
p2238
asbag48
(g69
g50
NtRp2239
(dp2240
g53
(dp2241
g80
g81
ssg62
g2230
sg55
(lp2242
S':'
asbag48
(g69
g50
NtRp2243
(dp2244
g53
(dp2245
sg62
g2230
sg55
(lp2246
g48
(g49
g50
NtRp2247
(dp2248
g53
(dp2249
g61
I5
ssg62
g2243
sg55
(lp2250
S'admin/127.0.0.1.2012-01-12.23-51-14.7aa0cae9-e1b0-4133-8092-7ddcbf0e3c0e'
p2251
asbasbasbag48
(g64
g50
NtRp2252
(dp2253
g53
(dp2254
sg62
g58
sg55
(lp2255
g48
(g69
g50
NtRp2256
(dp2257
g53
(dp2258
g73
g74
ssg62
g2252
sg55
(lp2259
S'vars'
p2260
asbag48
(g69
g50
NtRp2261
(dp2262
g53
(dp2263
g80
g81
ssg62
g2252
sg55
(lp2264
S':'
asbag48
(g69
g50
NtRp2265
(dp2266
g53
(dp2267
sg62
g2252
sg55
(lp2268
g48
(g49
g50
NtRp2269
(dp2270
g53
(dp2271
g61
I5
ssg62
g2265
sg55
(lp2272
g48
(g57
g50
NtRp2273
(dp2274
g53
(dp2275
g61
I4
ssg62
Nsg55
(lp2276
sbasbasbasbag48
(g64
g50
NtRp2277
(dp2278
g53
(dp2279
sg62
g58
sg55
(lp2280
g48
(g69
g50
NtRp2281
(dp2282
g53
(dp2283
g73
g74
ssg62
g2277
sg55
(lp2284
S'wsgi'
p2285
asbag48
(g69
g50
NtRp2286
(dp2287
g53
(dp2288
g80
g81
ssg62
g2277
sg55
(lp2289
S':'
asbag48
(g69
g50
NtRp2290
(dp2291
g53
(dp2292
sg62
g2277
sg55
(lp2293
g48
(g49
g50
NtRp2294
(dp2295
g53
(dp2296
g61
I5
ssg62
g2290
sg55
(lp2297
g48
(g57
g50
NtRp2298
(dp2299
g53
(dp2300
g61
I4
ssg62
Nsg55
(lp2301
g48
(g64
g50
NtRp2302
(dp2303
g53
(dp2304
sg62
g2298
sg55
(lp2305
g48
(g69
g50
NtRp2306
(dp2307
g53
(dp2308
g73
g74
ssg62
g2302
sg55
(lp2309
S'environ'
p2310
asbag48
(g69
g50
NtRp2311
(dp2312
g53
(dp2313
g80
g81
ssg62
g2302
sg55
(lp2314
S':'
asbag48
(g69
g50
NtRp2315
(dp2316
g53
(dp2317
sg62
g2302
sg55
(lp2318
g48
(g49
g50
NtRp2319
(dp2320
g53
(dp2321
g61
I4
ssg62
g2315
sg55
(lp2322
g48
(g57
g50
NtRp2323
(dp2324
g53
(dp2325
g61
I3
ssg62
Nsg55
(lp2326
g48
(g64
g50
NtRp2327
(dp2328
g53
(dp2329
sg62
g2323
sg55
(lp2330
g48
(g69
g50
NtRp2331
(dp2332
g53
(dp2333
g73
g74
ssg62
g2327
sg55
(lp2334
S'CONTENT_LENGTH'
p2335
asbag48
(g69
g50
NtRp2336
(dp2337
g53
(dp2338
g80
g81
ssg62
g2327
sg55
(lp2339
S':'
asbag48
(g69
g50
NtRp2340
(dp2341
g53
(dp2342
sg62
g2327
sg55
(lp2343
g48
(g49
g50
NtRp2344
(dp2345
g53
(dp2346
g61
I3
ssg62
g2340
sg55
(lp2347
S'0'
asbasbasbag48
(g64
g50
NtRp2348
(dp2349
g53
(dp2350
sg62
g2323
sg55
(lp2351
g48
(g69
g50
NtRp2352
(dp2353
g53
(dp2354
g73
g74
ssg62
g2348
sg55
(lp2355
S'HTTP_ACCEPT'
p2356
asbag48
(g69
g50
NtRp2357
(dp2358
g53
(dp2359
g80
g81
ssg62
g2348
sg55
(lp2360
S':'
asbag48
(g69
g50
NtRp2361
(dp2362
g53
(dp2363
sg62
g2348
sg55
(lp2364
g48
(g49
g50
NtRp2365
(dp2366
g53
(dp2367
g61
I3
ssg62
g2361
sg55
(lp2368
g790
asbasbasbag48
(g64
g50
NtRp2369
(dp2370
g53
(dp2371
sg62
g2323
sg55
(lp2372
g48
(g69
g50
NtRp2373
(dp2374
g53
(dp2375
g73
g74
ssg62
g2369
sg55
(lp2376
S'HTTP_ACCEPT_CHARSET'
p2377
asbag48
(g69
g50
NtRp2378
(dp2379
g53
(dp2380
g80
g81
ssg62
g2369
sg55
(lp2381
S':'
asbag48
(g69
g50
NtRp2382
(dp2383
g53
(dp2384
sg62
g2369
sg55
(lp2385
g48
(g49
g50
NtRp2386
(dp2387
g53
(dp2388
g61
I3
ssg62
g2382
sg55
(lp2389
g812
asbasbasbag48
(g64
g50
NtRp2390
(dp2391
g53
(dp2392
sg62
g2323
sg55
(lp2393
g48
(g69
g50
NtRp2394
(dp2395
g53
(dp2396
g73
g74
ssg62
g2390
sg55
(lp2397
S'HTTP_ACCEPT_ENCODING'
p2398
asbag48
(g69
g50
NtRp2399
(dp2400
g53
(dp2401
g80
g81
ssg62
g2390
sg55
(lp2402
S':'
asbag48
(g69
g50
NtRp2403
(dp2404
g53
(dp2405
sg62
g2390
sg55
(lp2406
g48
(g49
g50
NtRp2407
(dp2408
g53
(dp2409
g61
I3
ssg62
g2403
sg55
(lp2410
g834
asbasbasbag48
(g64
g50
NtRp2411
(dp2412
g53
(dp2413
sg62
g2323
sg55
(lp2414
g48
(g69
g50
NtRp2415
(dp2416
g53
(dp2417
g73
g74
ssg62
g2411
sg55
(lp2418
S'HTTP_ACCEPT_LANGUAGE'
p2419
asbag48
(g69
g50
NtRp2420
(dp2421
g53
(dp2422
g80
g81
ssg62
g2411
sg55
(lp2423
S':'
asbag48
(g69
g50
NtRp2424
(dp2425
g53
(dp2426
sg62
g2411
sg55
(lp2427
g48
(g49
g50
NtRp2428
(dp2429
g53
(dp2430
g61
I3
ssg62
g2424
sg55
(lp2431
g856
asbasbasbag48
(g64
g50
NtRp2432
(dp2433
g53
(dp2434
sg62
g2323
sg55
(lp2435
g48
(g69
g50
NtRp2436
(dp2437
g53
(dp2438
g73
g74
ssg62
g2432
sg55
(lp2439
S'HTTP_CACHE_CONTROL'
p2440
asbag48
(g69
g50
NtRp2441
(dp2442
g53
(dp2443
g80
g81
ssg62
g2432
sg55
(lp2444
S':'
asbag48
(g69
g50
NtRp2445
(dp2446
g53
(dp2447
sg62
g2432
sg55
(lp2448
g48
(g49
g50
NtRp2449
(dp2450
g53
(dp2451
g61
I3
ssg62
g2445
sg55
(lp2452
g878
asbasbasbag48
(g64
g50
NtRp2453
(dp2454
g53
(dp2455
sg62
g2323
sg55
(lp2456
g48
(g69
g50
NtRp2457
(dp2458
g53
(dp2459
g73
g74
ssg62
g2453
sg55
(lp2460
S'HTTP_CONNECTION'
p2461
asbag48
(g69
g50
NtRp2462
(dp2463
g53
(dp2464
g80
g81
ssg62
g2453
sg55
(lp2465
S':'
asbag48
(g69
g50
NtRp2466
(dp2467
g53
(dp2468
sg62
g2453
sg55
(lp2469
g48
(g49
g50
NtRp2470
(dp2471
g53
(dp2472
g61
I3
ssg62
g2466
sg55
(lp2473
g900
asbasbasbag48
(g64
g50
NtRp2474
(dp2475
g53
(dp2476
sg62
g2323
sg55
(lp2477
g48
(g69
g50
NtRp2478
(dp2479
g53
(dp2480
g73
g74
ssg62
g2474
sg55
(lp2481
S'HTTP_CONTENT_LENGTH'
p2482
asbag48
(g69
g50
NtRp2483
(dp2484
g53
(dp2485
g80
g81
ssg62
g2474
sg55
(lp2486
S':'
asbag48
(g69
g50
NtRp2487
(dp2488
g53
(dp2489
sg62
g2474
sg55
(lp2490
g48
(g49
g50
NtRp2491
(dp2492
g53
(dp2493
g61
I3
ssg62
g2487
sg55
(lp2494
S'0'
asbasbasbag48
(g64
g50
NtRp2495
(dp2496
g53
(dp2497
sg62
g2323
sg55
(lp2498
g48
(g69
g50
NtRp2499
(dp2500
g53
(dp2501
g73
g74
ssg62
g2495
sg55
(lp2502
S'HTTP_COOKIE'
p2503
asbag48
(g69
g50
NtRp2504
(dp2505
g53
(dp2506
g80
g81
ssg62
g2495
sg55
(lp2507
S':'
asbag48
(g69
g50
NtRp2508
(dp2509
g53
(dp2510
sg62
g2495
sg55
(lp2511
g48
(g49
g50
NtRp2512
(dp2513
g53
(dp2514
g61
I3
ssg62
g2508
sg55
(lp2515
g943
asbasbasbag48
(g64
g50
NtRp2516
(dp2517
g53
(dp2518
sg62
g2323
sg55
(lp2519
g48
(g69
g50
NtRp2520
(dp2521
g53
(dp2522
g73
g74
ssg62
g2516
sg55
(lp2523
S'HTTP_DNT'
p2524
asbag48
(g69
g50
NtRp2525
(dp2526
g53
(dp2527
g80
g81
ssg62
g2516
sg55
(lp2528
S':'
asbag48
(g69
g50
NtRp2529
(dp2530
g53
(dp2531
sg62
g2516
sg55
(lp2532
g48
(g49
g50
NtRp2533
(dp2534
g53
(dp2535
g61
I3
ssg62
g2529
sg55
(lp2536
S'1'
asbasbasbag48
(g64
g50
NtRp2537
(dp2538
g53
(dp2539
sg62
g2323
sg55
(lp2540
g48
(g69
g50
NtRp2541
(dp2542
g53
(dp2543
g73
g74
ssg62
g2537
sg55
(lp2544
S'HTTP_HOST'
p2545
asbag48
(g69
g50
NtRp2546
(dp2547
g53
(dp2548
g80
g81
ssg62
g2537
sg55
(lp2549
S':'
asbag48
(g69
g50
NtRp2550
(dp2551
g53
(dp2552
sg62
g2537
sg55
(lp2553
g48
(g49
g50
NtRp2554
(dp2555
g53
(dp2556
g61
I3
ssg62
g2550
sg55
(lp2557
g986
asbasbasbag48
(g64
g50
NtRp2558
(dp2559
g53
(dp2560
sg62
g2323
sg55
(lp2561
g48
(g69
g50
NtRp2562
(dp2563
g53
(dp2564
g73
g74
ssg62
g2558
sg55
(lp2565
S'HTTP_PRAGMA'
p2566
asbag48
(g69
g50
NtRp2567
(dp2568
g53
(dp2569
g80
g81
ssg62
g2558
sg55
(lp2570
S':'
asbag48
(g69
g50
NtRp2571
(dp2572
g53
(dp2573
sg62
g2558
sg55
(lp2574
g48
(g49
g50
NtRp2575
(dp2576
g53
(dp2577
g61
I3
ssg62
g2571
sg55
(lp2578
g1008
asbasbasbag48
(g64
g50
NtRp2579
(dp2580
g53
(dp2581
sg62
g2323
sg55
(lp2582
g48
(g69
g50
NtRp2583
(dp2584
g53
(dp2585
g73
g74
ssg62
g2579
sg55
(lp2586
S'HTTP_REFERER'
p2587
asbag48
(g69
g50
NtRp2588
(dp2589
g53
(dp2590
g80
g81
ssg62
g2579
sg55
(lp2591
S':'
asbag48
(g69
g50
NtRp2592
(dp2593
g53
(dp2594
sg62
g2579
sg55
(lp2595
g48
(g49
g50
NtRp2596
(dp2597
g53
(dp2598
g61
I3
ssg62
g2592
sg55
(lp2599
g1030
asbasbasbag48
(g64
g50
NtRp2600
(dp2601
g53
(dp2602
sg62
g2323
sg55
(lp2603
g48
(g69
g50
NtRp2604
(dp2605
g53
(dp2606
g73
g74
ssg62
g2600
sg55
(lp2607
S'HTTP_USER_AGENT'
p2608
asbag48
(g69
g50
NtRp2609
(dp2610
g53
(dp2611
g80
g81
ssg62
g2600
sg55
(lp2612
S':'
asbag48
(g69
g50
NtRp2613
(dp2614
g53
(dp2615
sg62
g2600
sg55
(lp2616
g48
(g49
g50
NtRp2617
(dp2618
g53
(dp2619
g61
I3
ssg62
g2613
sg55
(lp2620
g1052
asbasbasbag48
(g64
g50
NtRp2621
(dp2622
g53
(dp2623
sg62
g2323
sg55
(lp2624
g48
(g69
g50
NtRp2625
(dp2626
g53
(dp2627
g73
g74
ssg62
g2621
sg55
(lp2628
S'HTTP_X_REQUESTED_WITH'
p2629
asbag48
(g69
g50
NtRp2630
(dp2631
g53
(dp2632
g80
g81
ssg62
g2621
sg55
(lp2633
S':'
asbag48
(g69
g50
NtRp2634
(dp2635
g53
(dp2636
sg62
g2621
sg55
(lp2637
g48
(g49
g50
NtRp2638
(dp2639
g53
(dp2640
g61
I3
ssg62
g2634
sg55
(lp2641
g1074
asbasbasbag48
(g64
g50
NtRp2642
(dp2643
g53
(dp2644
sg62
g2323
sg55
(lp2645
g48
(g69
g50
NtRp2646
(dp2647
g53
(dp2648
g73
g74
ssg62
g2642
sg55
(lp2649
S'PATH_INFO'
p2650
asbag48
(g69
g50
NtRp2651
(dp2652
g53
(dp2653
g80
g81
ssg62
g2642
sg55
(lp2654
S':'
asbag48
(g69
g50
NtRp2655
(dp2656
g53
(dp2657
sg62
g2642
sg55
(lp2658
g48
(g49
g50
NtRp2659
(dp2660
g53
(dp2661
g61
I3
ssg62
g2655
sg55
(lp2662
g1117
asbasbasbag48
(g64
g50
NtRp2663
(dp2664
g53
(dp2665
sg62
g2323
sg55
(lp2666
g48
(g69
g50
NtRp2667
(dp2668
g53
(dp2669
g73
g74
ssg62
g2663
sg55
(lp2670
S'QUERY_STRING'
p2671
asbag48
(g69
g50
NtRp2672
(dp2673
g53
(dp2674
g80
g81
ssg62
g2663
sg55
(lp2675
S':'
asbag48
(g69
g50
NtRp2676
(dp2677
g53
(dp2678
sg62
g2663
sg55
(lp2679
g48
(g49
g50
NtRp2680
(dp2681
g53
(dp2682
g61
I3
ssg62
g2676
sg55
(lp2683
S''
asbasbasbag48
(g64
g50
NtRp2684
(dp2685
g53
(dp2686
sg62
g2323
sg55
(lp2687
g48
(g69
g50
NtRp2688
(dp2689
g53
(dp2690
g73
g74
ssg62
g2684
sg55
(lp2691
S'REMOTE_ADDR'
p2692
asbag48
(g69
g50
NtRp2693
(dp2694
g53
(dp2695
g80
g81
ssg62
g2684
sg55
(lp2696
S':'
asbag48
(g69
g50
NtRp2697
(dp2698
g53
(dp2699
sg62
g2684
sg55
(lp2700
g48
(g49
g50
NtRp2701
(dp2702
g53
(dp2703
g61
I3
ssg62
g2697
sg55
(lp2704
g181
asbasbasbag48
(g64
g50
NtRp2705
(dp2706
g53
(dp2707
sg62
g2323
sg55
(lp2708
g48
(g69
g50
NtRp2709
(dp2710
g53
(dp2711
g73
g74
ssg62
g2705
sg55
(lp2712
S'REMOTE_PORT'
p2713
asbag48
(g69
g50
NtRp2714
(dp2715
g53
(dp2716
g80
g81
ssg62
g2705
sg55
(lp2717
S':'
asbag48
(g69
g50
NtRp2718
(dp2719
g53
(dp2720
sg62
g2705
sg55
(lp2721
g48
(g49
g50
NtRp2722
(dp2723
g53
(dp2724
g61
I3
ssg62
g2718
sg55
(lp2725
g1181
asbasbasbag48
(g64
g50
NtRp2726
(dp2727
g53
(dp2728
sg62
g2323
sg55
(lp2729
g48
(g69
g50
NtRp2730
(dp2731
g53
(dp2732
g73
g74
ssg62
g2726
sg55
(lp2733
S'REQUEST_METHOD'
p2734
asbag48
(g69
g50
NtRp2735
(dp2736
g53
(dp2737
g80
g81
ssg62
g2726
sg55
(lp2738
S':'
asbag48
(g69
g50
NtRp2739
(dp2740
g53
(dp2741
sg62
g2726
sg55
(lp2742
g48
(g49
g50
NtRp2743
(dp2744
g53
(dp2745
g61
I3
ssg62
g2739
sg55
(lp2746
g1203
asbasbasbag48
(g64
g50
NtRp2747
(dp2748
g53
(dp2749
sg62
g2323
sg55
(lp2750
g48
(g69
g50
NtRp2751
(dp2752
g53
(dp2753
g73
g74
ssg62
g2747
sg55
(lp2754
S'REQUEST_URI'
p2755
asbag48
(g69
g50
NtRp2756
(dp2757
g53
(dp2758
g80
g81
ssg62
g2747
sg55
(lp2759
S':'
asbag48
(g69
g50
NtRp2760
(dp2761
g53
(dp2762
sg62
g2747
sg55
(lp2763
g48
(g49
g50
NtRp2764
(dp2765
g53
(dp2766
g61
I3
ssg62
g2760
sg55
(lp2767
g1117
asbasbasbag48
(g64
g50
NtRp2768
(dp2769
g53
(dp2770
sg62
g2323
sg55
(lp2771
g48
(g69
g50
NtRp2772
(dp2773
g53
(dp2774
g73
g74
ssg62
g2768
sg55
(lp2775
S'SCRIPT_NAME'
p2776
asbag48
(g69
g50
NtRp2777
(dp2778
g53
(dp2779
g80
g81
ssg62
g2768
sg55
(lp2780
S':'
asbag48
(g69
g50
NtRp2781
(dp2782
g53
(dp2783
sg62
g2768
sg55
(lp2784
g48
(g49
g50
NtRp2785
(dp2786
g53
(dp2787
g61
I3
ssg62
g2781
sg55
(lp2788
S''
asbasbasbag48
(g64
g50
NtRp2789
(dp2790
g53
(dp2791
sg62
g2323
sg55
(lp2792
g48
(g69
g50
NtRp2793
(dp2794
g53
(dp2795
g73
g74
ssg62
g2789
sg55
(lp2796
S'SERVER_NAME'
p2797
asbag48
(g69
g50
NtRp2798
(dp2799
g53
(dp2800
g80
g81
ssg62
g2789
sg55
(lp2801
S':'
asbag48
(g69
g50
NtRp2802
(dp2803
g53
(dp2804
sg62
g2789
sg55
(lp2805
g48
(g49
g50
NtRp2806
(dp2807
g53
(dp2808
g61
I3
ssg62
g2802
sg55
(lp2809
g1267
asbasbasbag48
(g64
g50
NtRp2810
(dp2811
g53
(dp2812
sg62
g2323
sg55
(lp2813
g48
(g69
g50
NtRp2814
(dp2815
g53
(dp2816
g73
g74
ssg62
g2810
sg55
(lp2817
S'SERVER_PORT'
p2818
asbag48
(g69
g50
NtRp2819
(dp2820
g53
(dp2821
g80
g81
ssg62
g2810
sg55
(lp2822
S':'
asbag48
(g69
g50
NtRp2823
(dp2824
g53
(dp2825
sg62
g2810
sg55
(lp2826
g48
(g49
g50
NtRp2827
(dp2828
g53
(dp2829
g61
I3
ssg62
g2823
sg55
(lp2830
g1289
asbasbasbag48
(g64
g50
NtRp2831
(dp2832
g53
(dp2833
sg62
g2323
sg55
(lp2834
g48
(g69
g50
NtRp2835
(dp2836
g53
(dp2837
g73
g74
ssg62
g2831
sg55
(lp2838
S'SERVER_PROTOCOL'
p2839
asbag48
(g69
g50
NtRp2840
(dp2841
g53
(dp2842
g80
g81
ssg62
g2831
sg55
(lp2843
S':'
asbag48
(g69
g50
NtRp2844
(dp2845
g53
(dp2846
sg62
g2831
sg55
(lp2847
g48
(g49
g50
NtRp2848
(dp2849
g53
(dp2850
g61
I3
ssg62
g2844
sg55
(lp2851
g1311
asbasbasbag48
(g64
g50
NtRp2852
(dp2853
g53
(dp2854
sg62
g2323
sg55
(lp2855
g48
(g69
g50
NtRp2856
(dp2857
g53
(dp2858
g73
g74
ssg62
g2852
sg55
(lp2859
S'SERVER_SOFTWARE'
p2860
asbag48
(g69
g50
NtRp2861
(dp2862
g53
(dp2863
g80
g81
ssg62
g2852
sg55
(lp2864
S':'
asbag48
(g69
g50
NtRp2865
(dp2866
g53
(dp2867
sg62
g2852
sg55
(lp2868
g48
(g49
g50
NtRp2869
(dp2870
g53
(dp2871
g61
I3
ssg62
g2865
sg55
(lp2872
g1333
asbasbasbag48
(g64
g50
NtRp2873
(dp2874
g53
(dp2875
sg62
g2323
sg55
(lp2876
g48
(g69
g50
NtRp2877
(dp2878
g53
(dp2879
g73
g74
ssg62
g2873
sg55
(lp2880
S'WEB2PY_ORIGINAL_URI'
p2881
asbag48
(g69
g50
NtRp2882
(dp2883
g53
(dp2884
g80
g81
ssg62
g2873
sg55
(lp2885
S':'
asbag48
(g69
g50
NtRp2886
(dp2887
g53
(dp2888
sg62
g2873
sg55
(lp2889
g48
(g49
g50
NtRp2890
(dp2891
g53
(dp2892
g61
I3
ssg62
g2886
sg55
(lp2893
g1377
asbasbasbag48
(g64
g50
NtRp2894
(dp2895
g53
(dp2896
sg62
g2323
sg55
(lp2897
g48
(g69
g50
NtRp2898
(dp2899
g53
(dp2900
g73
g74
ssg62
g2894
sg55
(lp2901
S'wsgi.errors'
p2902
asbag48
(g69
g50
NtRp2903
(dp2904
g53
(dp2905
g80
g81
ssg62
g2894
sg55
(lp2906
S':'
asbag48
(g69
g50
NtRp2907
(dp2908
g53
(dp2909
sg62
g2894
sg55
(lp2910
g48
(g49
g50
NtRp2911
(dp2912
g53
(dp2913
g61
I3
ssg62
g2907
sg55
(lp2914
S"<open file '<stderr>', mode 'w' at 0x005C00B0>"
p2915
asbasbasbag48
(g64
g50
NtRp2916
(dp2917
g53
(dp2918
sg62
g2323
sg55
(lp2919
g48
(g69
g50
NtRp2920
(dp2921
g53
(dp2922
g73
g74
ssg62
g2916
sg55
(lp2923
S'wsgi.file_wrapper'
p2924
asbag48
(g69
g50
NtRp2925
(dp2926
g53
(dp2927
g80
g81
ssg62
g2916
sg55
(lp2928
S':'
asbag48
(g69
g50
NtRp2929
(dp2930
g53
(dp2931
sg62
g2916
sg55
(lp2932
g48
(g49
g50
NtRp2933
(dp2934
g53
(dp2935
g61
I3
ssg62
g2929
sg55
(lp2936
S'<class wsgiref.util.FileWrapper at 0x035B5570>'
p2937
asbasbasbag48
(g64
g50
NtRp2938
(dp2939
g53
(dp2940
sg62
g2323
sg55
(lp2941
g48
(g69
g50
NtRp2942
(dp2943
g53
(dp2944
g73
g74
ssg62
g2938
sg55
(lp2945
S'wsgi.input'
p2946
asbag48
(g69
g50
NtRp2947
(dp2948
g53
(dp2949
g80
g81
ssg62
g2938
sg55
(lp2950
S':'
asbag48
(g69
g50
NtRp2951
(dp2952
g53
(dp2953
sg62
g2938
sg55
(lp2954
g48
(g49
g50
NtRp2955
(dp2956
g53
(dp2957
g61
I3
ssg62
g2951
sg55
(lp2958
S"<open file '<fdopen>', mode 'w+b' at 0x03922890>"
p2959
asbasbasbag48
(g64
g50
NtRp2960
(dp2961
g53
(dp2962
sg62
g2323
sg55
(lp2963
g48
(g69
g50
NtRp2964
(dp2965
g53
(dp2966
g73
g74
ssg62
g2960
sg55
(lp2967
S'wsgi.multiprocess'
p2968
asbag48
(g69
g50
NtRp2969
(dp2970
g53
(dp2971
g80
g81
ssg62
g2960
sg55
(lp2972
S':'
asbag48
(g69
g50
NtRp2973
(dp2974
g53
(dp2975
sg62
g2960
sg55
(lp2976
g48
(g49
g50
NtRp2977
(dp2978
g53
(dp2979
g61
I3
ssg62
g2973
sg55
(lp2980
g746
asbasbasbag48
(g64
g50
NtRp2981
(dp2982
g53
(dp2983
sg62
g2323
sg55
(lp2984
g48
(g69
g50
NtRp2985
(dp2986
g53
(dp2987
g73
g74
ssg62
g2981
sg55
(lp2988
S'wsgi.multithread'
p2989
asbag48
(g69
g50
NtRp2990
(dp2991
g53
(dp2992
g80
g81
ssg62
g2981
sg55
(lp2993
S':'
asbag48
(g69
g50
NtRp2994
(dp2995
g53
(dp2996
sg62
g2981
sg55
(lp2997
g48
(g49
g50
NtRp2998
(dp2999
g53
(dp3000
g61
I3
ssg62
g2994
sg55
(lp3001
g91
asbasbasbag48
(g64
g50
NtRp3002
(dp3003
g53
(dp3004
sg62
g2323
sg55
(lp3005
g48
(g69
g50
NtRp3006
(dp3007
g53
(dp3008
g73
g74
ssg62
g3002
sg55
(lp3009
S'wsgi.run_once'
p3010
asbag48
(g69
g50
NtRp3011
(dp3012
g53
(dp3013
g80
g81
ssg62
g3002
sg55
(lp3014
S':'
asbag48
(g69
g50
NtRp3015
(dp3016
g53
(dp3017
sg62
g3002
sg55
(lp3018
g48
(g49
g50
NtRp3019
(dp3020
g53
(dp3021
g61
I3
ssg62
g3015
sg55
(lp3022
g746
asbasbasbag48
(g64
g50
NtRp3023
(dp3024
g53
(dp3025
sg62
g2323
sg55
(lp3026
g48
(g69
g50
NtRp3027
(dp3028
g53
(dp3029
g73
g74
ssg62
g3023
sg55
(lp3030
S'wsgi.url_scheme'
p3031
asbag48
(g69
g50
NtRp3032
(dp3033
g53
(dp3034
g80
g81
ssg62
g3023
sg55
(lp3035
S':'
asbag48
(g69
g50
NtRp3036
(dp3037
g53
(dp3038
sg62
g3023
sg55
(lp3039
g48
(g49
g50
NtRp3040
(dp3041
g53
(dp3042
g61
I3
ssg62
g3036
sg55
(lp3043
g1637
asbasbasbag48
(g64
g50
NtRp3044
(dp3045
g53
(dp3046
sg62
g2323
sg55
(lp3047
g48
(g69
g50
NtRp3048
(dp3049
g53
(dp3050
g73
g74
ssg62
g3044
sg55
(lp3051
S'wsgi.version'
p3052
asbag48
(g69
g50
NtRp3053
(dp3054
g53
(dp3055
g80
g81
ssg62
g3044
sg55
(lp3056
S':'
asbag48
(g69
g50
NtRp3057
(dp3058
g53
(dp3059
sg62
g3044
sg55
(lp3060
g48
(g49
g50
NtRp3061
(dp3062
g53
(dp3063
g61
I3
ssg62
g3057
sg55
(lp3064
S'1'
asbasbasbasbasbasbasbasbasbasbasbasbasbsS'frames'
p3065
(lp3066
(dp3067
S'file'
p3068
S'D:\\Dropbox\\Eclipse\\OJDevSourceProject\\project\\web2py\\gluon\\restricted.py'
p3069
sS'dump'
p3070
(dp3071
S'environment'
p3072
S"{'A': <class 'gluon.html.A'>, 'ALLOW_TOGGLE': 'true', 'B': <class 'gluon.html.B'>, 'BEAUTIFY': <class 'gluon.html.BEAUTIFY'>, 'BODY': <class 'gluon.html.BODY'>, 'BR': <class 'gluon.html.BR'>, 'BUTTON': <class 'gluon.html.BUTTON'>, 'CAT': <class 'gluon.html.CAT'>, 'CENTER': <class 'gluon.html.CENTER'>, 'CHECK_VERSION': True, ...}"
p3073
sS'ccode'
p3074
S'<code object <module> at 07AABEC0, file "D:\\Drop...plications\\admin\\controllers/default.py", line 3>'
p3075
ssS'lnum'
p3076
I194
sS'lines'
p3077
(dp3078
I192
S'        else:'
p3079
sI193
S'            ccode = compile2(code,layer)'
p3080
sI194
S'        exec ccode in environment'
p3081
sI195
S'    except HTTP:'
p3082
sI196
S'        raise'
p3083
sI197
S'    except Exception, error:'
p3084
sI198
S'        # XXX Show exception in Wing IDE if running in debugger'
p3085
sI189
S'    try:'
p3086
sI190
S'        if type(code) == types.CodeType:'
p3087
sI191
S'            ccode = code'
p3088
ssS'call'
p3089
S"(code='# coding: utf8\\n\\nfrom gluon.admin import *\\nfrom g...\\n\\nresponse._vars=response._caller(check_version)\\n', environment={'A': <class 'gluon.html.A'>, 'ALLOW_TOGGLE': 'true', 'B': <class 'gluon.html.B'>, 'BEAUTIFY': <class 'gluon.html.BEAUTIFY'>, 'BODY': <class 'gluon.html.BODY'>, 'BR': <class 'gluon.html.BR'>, 'BUTTON': <class 'gluon.html.BUTTON'>, 'CAT': <class 'gluon.html.CAT'>, 'CENTER': <class 'gluon.html.CENTER'>, 'CHECK_VERSION': True, ...}, layer=r'D:\\Dropbox\\Eclipse\\OJDevSourceProject\\project\\web2py\\applications\\admin\\controllers/default.py')"
p3090
sS'func'
p3091
S'restricted'
p3092
sa(dp3093
g3068
S'D:\\Dropbox\\Eclipse\\OJDevSourceProject\\project\\web2py\\applications\\admin\\controllers\\default.py'
p3094
sg3070
(dp3095
sg3076
I1225
sg3077
(dp3096
I1216
S'    else:'
p3097
sI1217
S'        return dict(form=T("Disabled"))'
p3098
sI1218
S''
sI1219
S'def reload_routes():'
p3099
sI1220
S'    """ Reload routes.py """'
p3100
sI1221
S'    import gluon.rewrite'
p3101
sI1222
S'    gluon.rewrite.load()'
p3102
sI1223
S"    redirect(URL('site'))"
p3103
sI1214
S'            auth.settings.registration_requires_approval = False'
p3104
sI1215
S'        return dict(form=auth())'
p3105
ssg3089
S'()'
p3106
sg3091
S'<module>'
p3107
sa(dp3108
g3068
S'D:\\Dropbox\\Eclipse\\OJDevSourceProject\\project\\web2py\\gluon\\globals.py'
p3109
sg3070
(dp3110
S'self'
p3111
S'undefined'
p3112
sS'f'
S'<function check_version at 0x09262C30>'
p3113
ssg3076
I149
sg3077
(dp3114
I144
S'        self.meta = Storage()      # used by web2py_ajax.html'
p3115
sI145
S'        self.menu = []             # used by the default view layout'
p3116
sI146
S'        self.files = []            # used by web2py_ajax.html'
p3117
sI147
S'        self.generic_patterns = [] # patterns to allow generic views'
p3118
sI148
S'        self._vars = None'
p3119
sI149
S'        self._caller = lambda f: f()'
p3120
sI150
S'        self._view_environment = None'
p3121
sI151
S'        self._custom_commit = None'
p3122
sI152
S'        self._custom_rollback = None'
p3123
sI153
S''
ssg3089
S'(f=<function check_version at 0x09262C30>)'
p3124
sg3091
S'<lambda>'
p3125
sa(dp3126
g3068
S'D:\\Dropbox\\Eclipse\\OJDevSourceProject\\project\\web2py\\applications\\admin\\controllers\\default.py'
p3127
sg3070
(dp3128
S'global XML'
p3129
S"<class 'gluon.html.XML'>"
p3130
sS'version_number'
p3131
S"(1, 99, 4, datetime.datetime(2011, 12, 14, 14, 46, 14), 'stable')"
p3132
ssg3076
I105
sg3077
(dp3133
I100
S"        return A(T('web2py is up to date'), _href=WEB2PY_URL)"
p3134
sI101
S'    elif platform.system().lower() in (\'windows\',\'win32\',\'win64\') and os.path.exists("web2py.exe"):'
p3135
sI102
S"        return SPAN('You should upgrade to version %s' % version_number)"
p3136
sI103
S'    else:'
p3137
sI104
S"        return sp_button(URL('upgrade_web2py'), T('upgrade now')) \\"
p3138
sI105
S'          + XML(\' <strong class="upgrade_version">%s</strong>\' % version_number)'
p3139
sI106
S''
sI107
S''
sI108
S'def logout():'
p3140
sI109
S'    """ Logout handler """'
p3141
ssg3089
S'()'
p3142
sg3091
S'check_version'
p3143
sasS'pyver'
p3144
S'Python 2.5.4: C:\\python25\\python.exe'
p3145
sS'session'
p3146
g48
(g49
g50
NtRp3147
(dp3148
g53
(dp3149
sg55
(lp3150
g48
(g57
g50
NtRp3151
(dp3152
g53
(dp3153
g61
I5
ssg62
Nsg55
(lp3154
g48
(g64
g50
NtRp3155
(dp3156
g53
(dp3157
sg62
g3151
sg55
(lp3158
g48
(g69
g50
NtRp3159
(dp3160
g53
(dp3161
g73
g74
ssg62
g3155
sg55
(lp3162
S'authorized'
p3163
asbag48
(g69
g50
NtRp3164
(dp3165
g53
(dp3166
g80
g81
ssg62
g3155
sg55
(lp3167
S':'
asbag48
(g69
g50
NtRp3168
(dp3169
g53
(dp3170
sg62
g3155
sg55
(lp3171
g48
(g49
g50
NtRp3172
(dp3173
g53
(dp3174
g61
I5
ssg62
g3168
sg55
(lp3175
g91
asbasbasbag48
(g64
g50
NtRp3176
(dp3177
g53
(dp3178
sg62
g3151
sg55
(lp3179
g48
(g69
g50
NtRp3180
(dp3181
g53
(dp3182
g73
g74
ssg62
g3176
sg55
(lp3183
S'check_version'
p3184
asbag48
(g69
g50
NtRp3185
(dp3186
g53
(dp3187
g80
g81
ssg62
g3176
sg55
(lp3188
S':'
asbag48
(g69
g50
NtRp3189
(dp3190
g53
(dp3191
sg62
g3176
sg55
(lp3192
g48
(g49
g50
NtRp3193
(dp3194
g53
(dp3195
g61
I5
ssg62
g3189
sg55
(lp3196
g746
asbasbasbag48
(g64
g50
NtRp3197
(dp3198
g53
(dp3199
sg62
g3151
sg55
(lp3200
g48
(g69
g50
NtRp3201
(dp3202
g53
(dp3203
g73
g74
ssg62
g3197
sg55
(lp3204
S'last_time'
p3205
asbag48
(g69
g50
NtRp3206
(dp3207
g53
(dp3208
g80
g81
ssg62
g3197
sg55
(lp3209
S':'
asbag48
(g69
g50
NtRp3210
(dp3211
g53
(dp3212
sg62
g3197
sg55
(lp3213
g48
(g49
g50
NtRp3214
(dp3215
g53
(dp3216
g61
I5
ssg62
g3210
sg55
(lp3217
S'1326372674.95'
p3218
asbasbasbasbasbsS'etype'
p3219
S"<type 'exceptions.TypeError'>"
p3220
sS'date'
p3221
S'Thu Jan 12 23:51:15 2012'
p3222
sS'response'
p3223
g48
(g49
g50
NtRp3224
(dp3225
g53
(dp3226
sg55
(lp3227
g48
(g57
g50
NtRp3228
(dp3229
g53
(dp3230
g61
I5
ssg62
Nsg55
(lp3231
g48
(g64
g50
NtRp3232
(dp3233
g53
(dp3234
sg62
g3228
sg55
(lp3235
g48
(g69
g50
NtRp3236
(dp3237
g53
(dp3238
g73
g74
ssg62
g3232
sg55
(lp3239
g146
asbag48
(g69
g50
NtRp3240
(dp3241
g53
(dp3242
g80
g81
ssg62
g3232
sg55
(lp3243
S':'
asbag48
(g69
g50
NtRp3244
(dp3245
g53
(dp3246
sg62
g3232
sg55
(lp3247
g48
(g49
g50
NtRp3248
(dp3249
g53
(dp3250
g61
I5
ssg62
g3244
sg55
(lp3251
S'<cStringIO.StringO object at 0x078AC6A0>'
p3252
asbasbasbag48
(g64
g50
NtRp3253
(dp3254
g53
(dp3255
sg62
g3228
sg55
(lp3256
g48
(g69
g50
NtRp3257
(dp3258
g53
(dp3259
g73
g74
ssg62
g3253
sg55
(lp3260
g212
asbag48
(g69
g50
NtRp3261
(dp3262
g53
(dp3263
g80
g81
ssg62
g3253
sg55
(lp3264
S':'
asbag48
(g69
g50
NtRp3265
(dp3266
g53
(dp3267
sg62
g3253
sg55
(lp3268
g48
(g49
g50
NtRp3269
(dp3270
g53
(dp3271
g61
I5
ssg62
g3265
sg55
(lp3272
g48
(g57
g50
NtRp3273
(dp3274
g53
(dp3275
g61
I4
ssg62
Nsg55
(lp3276
g48
(g64
g50
NtRp3277
(dp3278
g53
(dp3279
sg62
g3273
sg55
(lp3280
g48
(g69
g50
NtRp3281
(dp3282
g53
(dp3283
g73
g74
ssg62
g3277
sg55
(lp3284
S'session_id_admin'
p3285
asbag48
(g69
g50
NtRp3286
(dp3287
g53
(dp3288
g80
g81
ssg62
g3277
sg55
(lp3289
S':'
asbag48
(g69
g50
NtRp3290
(dp3291
g53
(dp3292
sg62
g3277
sg55
(lp3293
g48
(g49
g50
NtRp3294
(dp3295
g53
(dp3296
g61
I4
ssg62
g3290
sg55
(lp3297
g48
(g57
g50
NtRp3298
(dp3299
g53
(dp3300
g61
I3
ssg62
Nsg55
(lp3301
g48
(g64
g50
NtRp3302
(dp3303
g53
(dp3304
sg62
g3298
sg55
(lp3305
g48
(g69
g50
NtRp3306
(dp3307
g53
(dp3308
g73
g74
ssg62
g3302
sg55
(lp3309
g262
asbag48
(g69
g50
NtRp3310
(dp3311
g53
(dp3312
g80
g81
ssg62
g3302
sg55
(lp3313
S':'
asbag48
(g69
g50
NtRp3314
(dp3315
g53
(dp3316
sg62
g3302
sg55
(lp3317
g48
(g49
g50
NtRp3318
(dp3319
g53
(dp3320
g61
I3
ssg62
g3314
sg55
(lp3321
S''
asbasbasbag48
(g64
g50
NtRp3322
(dp3323
g53
(dp3324
sg62
g3298
sg55
(lp3325
g48
(g69
g50
NtRp3326
(dp3327
g53
(dp3328
g73
g74
ssg62
g3322
sg55
(lp3329
g283
asbag48
(g69
g50
NtRp3330
(dp3331
g53
(dp3332
g80
g81
ssg62
g3322
sg55
(lp3333
S':'
asbag48
(g69
g50
NtRp3334
(dp3335
g53
(dp3336
sg62
g3322
sg55
(lp3337
g48
(g49
g50
NtRp3338
(dp3339
g53
(dp3340
g61
I3
ssg62
g3334
sg55
(lp3341
S''
asbasbasbag48
(g64
g50
NtRp3342
(dp3343
g53
(dp3344
sg62
g3298
sg55
(lp3345
g48
(g69
g50
NtRp3346
(dp3347
g53
(dp3348
g73
g74
ssg62
g3342
sg55
(lp3349
g304
asbag48
(g69
g50
NtRp3350
(dp3351
g53
(dp3352
g80
g81
ssg62
g3342
sg55
(lp3353
S':'
asbag48
(g69
g50
NtRp3354
(dp3355
g53
(dp3356
sg62
g3342
sg55
(lp3357
g48
(g49
g50
NtRp3358
(dp3359
g53
(dp3360
g61
I3
ssg62
g3354
sg55
(lp3361
S''
asbasbasbag48
(g64
g50
NtRp3362
(dp3363
g53
(dp3364
sg62
g3298
sg55
(lp3365
g48
(g69
g50
NtRp3366
(dp3367
g53
(dp3368
g73
g74
ssg62
g3362
sg55
(lp3369
g325
asbag48
(g69
g50
NtRp3370
(dp3371
g53
(dp3372
g80
g81
ssg62
g3362
sg55
(lp3373
S':'
asbag48
(g69
g50
NtRp3374
(dp3375
g53
(dp3376
sg62
g3362
sg55
(lp3377
g48
(g49
g50
NtRp3378
(dp3379
g53
(dp3380
g61
I3
ssg62
g3374
sg55
(lp3381
S''
asbasbasbag48
(g64
g50
NtRp3382
(dp3383
g53
(dp3384
sg62
g3298
sg55
(lp3385
g48
(g69
g50
NtRp3386
(dp3387
g53
(dp3388
g73
g74
ssg62
g3382
sg55
(lp3389
g346
asbag48
(g69
g50
NtRp3390
(dp3391
g53
(dp3392
g80
g81
ssg62
g3382
sg55
(lp3393
S':'
asbag48
(g69
g50
NtRp3394
(dp3395
g53
(dp3396
sg62
g3382
sg55
(lp3397
g48
(g49
g50
NtRp3398
(dp3399
g53
(dp3400
g61
I3
ssg62
g3394
sg55
(lp3401
S'/'
asbasbasbag48
(g64
g50
NtRp3402
(dp3403
g53
(dp3404
sg62
g3298
sg55
(lp3405
g48
(g69
g50
NtRp3406
(dp3407
g53
(dp3408
g73
g74
ssg62
g3402
sg55
(lp3409
g367
asbag48
(g69
g50
NtRp3410
(dp3411
g53
(dp3412
g80
g81
ssg62
g3402
sg55
(lp3413
S':'
asbag48
(g69
g50
NtRp3414
(dp3415
g53
(dp3416
sg62
g3402
sg55
(lp3417
g48
(g49
g50
NtRp3418
(dp3419
g53
(dp3420
g61
I3
ssg62
g3414
sg55
(lp3421
S''
asbasbasbag48
(g64
g50
NtRp3422
(dp3423
g53
(dp3424
sg62
g3298
sg55
(lp3425
g48
(g69
g50
NtRp3426
(dp3427
g53
(dp3428
g73
g74
ssg62
g3422
sg55
(lp3429
g388
asbag48
(g69
g50
NtRp3430
(dp3431
g53
(dp3432
g80
g81
ssg62
g3422
sg55
(lp3433
S':'
asbag48
(g69
g50
NtRp3434
(dp3435
g53
(dp3436
sg62
g3422
sg55
(lp3437
g48
(g49
g50
NtRp3438
(dp3439
g53
(dp3440
g61
I3
ssg62
g3434
sg55
(lp3441
S''
asbasbasbasbasbasbasbasbasbasbasbag48
(g64
g50
NtRp3442
(dp3443
g53
(dp3444
sg62
g3228
sg55
(lp3445
g48
(g69
g50
NtRp3446
(dp3447
g53
(dp3448
g73
g74
ssg62
g3442
sg55
(lp3449
S'files'
p3450
asbag48
(g69
g50
NtRp3451
(dp3452
g53
(dp3453
g80
g81
ssg62
g3442
sg55
(lp3454
S':'
asbag48
(g69
g50
NtRp3455
(dp3456
g53
(dp3457
sg62
g3442
sg55
(lp3458
g48
(g49
g50
NtRp3459
(dp3460
g53
(dp3461
g61
I5
ssg62
g3455
sg55
(lp3462
g48
(g57
g50
NtRp3463
(dp3464
g53
(dp3465
g61
I4
ssg62
Nsg55
(lp3466
g48
(g64
g50
NtRp3467
(dp3468
g53
(dp3469
sg62
g3463
sg55
(lp3470
g48
(g69
g50
NtRp3471
(dp3472
g53
(dp3473
sg62
g3467
sg55
(lp3474
g48
(g49
g50
NtRp3475
(dp3476
g53
(dp3477
g61
I4
ssg62
g3471
sg55
(lp3478
S'/admin/static/plugin_multiselect/jquery.dimensions.js'
p3479
asbasbasbag48
(g64
g50
NtRp3480
(dp3481
g53
(dp3482
sg62
g3463
sg55
(lp3483
g48
(g69
g50
NtRp3484
(dp3485
g53
(dp3486
sg62
g3480
sg55
(lp3487
g48
(g49
g50
NtRp3488
(dp3489
g53
(dp3490
g61
I4
ssg62
g3484
sg55
(lp3491
S'/admin/static/plugin_multiselect/jquery.multiselect.js'
p3492
asbasbasbag48
(g64
g50
NtRp3493
(dp3494
g53
(dp3495
sg62
g3463
sg55
(lp3496
g48
(g69
g50
NtRp3497
(dp3498
g53
(dp3499
sg62
g3493
sg55
(lp3500
g48
(g49
g50
NtRp3501
(dp3502
g53
(dp3503
g61
I4
ssg62
g3497
sg55
(lp3504
S'/admin/static/plugin_multiselect/jquery.multiselect.css'
p3505
asbasbasbag48
(g64
g50
NtRp3506
(dp3507
g53
(dp3508
sg62
g3463
sg55
(lp3509
g48
(g69
g50
NtRp3510
(dp3511
g53
(dp3512
sg62
g3506
sg55
(lp3513
g48
(g49
g50
NtRp3514
(dp3515
g53
(dp3516
g61
I4
ssg62
g3510
sg55
(lp3517
S'/admin/static/plugin_multiselect/start.js'
p3518
asbasbasbasbasbasbasbag48
(g64
g50
NtRp3519
(dp3520
g53
(dp3521
sg62
g3228
sg55
(lp3522
g48
(g69
g50
NtRp3523
(dp3524
g53
(dp3525
g73
g74
ssg62
g3519
sg55
(lp3526
S'flash'
p3527
asbag48
(g69
g50
NtRp3528
(dp3529
g53
(dp3530
g80
g81
ssg62
g3519
sg55
(lp3531
S':'
asbag48
(g69
g50
NtRp3532
(dp3533
g53
(dp3534
sg62
g3519
sg55
(lp3535
g48
(g49
g50
NtRp3536
(dp3537
g53
(dp3538
g61
I5
ssg62
g3532
sg55
(lp3539
S''
asbasbasbag48
(g64
g50
NtRp3540
(dp3541
g53
(dp3542
sg62
g3228
sg55
(lp3543
g48
(g69
g50
NtRp3544
(dp3545
g53
(dp3546
g73
g74
ssg62
g3540
sg55
(lp3547
S'generic_patterns'
p3548
asbag48
(g69
g50
NtRp3549
(dp3550
g53
(dp3551
g80
g81
ssg62
g3540
sg55
(lp3552
S':'
asbag48
(g69
g50
NtRp3553
(dp3554
g53
(dp3555
sg62
g3540
sg55
(lp3556
g48
(g49
g50
NtRp3557
(dp3558
g53
(dp3559
g61
I5
ssg62
g3553
sg55
(lp3560
g48
(g57
g50
NtRp3561
(dp3562
g53
(dp3563
g61
I4
ssg62
Nsg55
(lp3564
sbasbasbasbag48
(g64
g50
NtRp3565
(dp3566
g53
(dp3567
sg62
g3228
sg55
(lp3568
g48
(g69
g50
NtRp3569
(dp3570
g53
(dp3571
g73
g74
ssg62
g3565
sg55
(lp3572
S'headers'
p3573
asbag48
(g69
g50
NtRp3574
(dp3575
g53
(dp3576
g80
g81
ssg62
g3565
sg55
(lp3577
S':'
asbag48
(g69
g50
NtRp3578
(dp3579
g53
(dp3580
sg62
g3565
sg55
(lp3581
g48
(g49
g50
NtRp3582
(dp3583
g53
(dp3584
g61
I5
ssg62
g3578
sg55
(lp3585
g48
(g57
g50
NtRp3586
(dp3587
g53
(dp3588
g61
I4
ssg62
Nsg55
(lp3589
g48
(g64
g50
NtRp3590
(dp3591
g53
(dp3592
sg62
g3586
sg55
(lp3593
g48
(g69
g50
NtRp3594
(dp3595
g53
(dp3596
g73
g74
ssg62
g3590
sg55
(lp3597
S'Cache-Control'
p3598
asbag48
(g69
g50
NtRp3599
(dp3600
g53
(dp3601
g80
g81
ssg62
g3590
sg55
(lp3602
S':'
asbag48
(g69
g50
NtRp3603
(dp3604
g53
(dp3605
sg62
g3590
sg55
(lp3606
g48
(g49
g50
NtRp3607
(dp3608
g53
(dp3609
g61
I4
ssg62
g3603
sg55
(lp3610
S'no-store, no-cache, must-revalidate, post-check=0, pre-check=0'
p3611
asbasbasbag48
(g64
g50
NtRp3612
(dp3613
g53
(dp3614
sg62
g3586
sg55
(lp3615
g48
(g69
g50
NtRp3616
(dp3617
g53
(dp3618
g73
g74
ssg62
g3612
sg55
(lp3619
S'Content-Type'
p3620
asbag48
(g69
g50
NtRp3621
(dp3622
g53
(dp3623
g80
g81
ssg62
g3612
sg55
(lp3624
S':'
asbag48
(g69
g50
NtRp3625
(dp3626
g53
(dp3627
sg62
g3612
sg55
(lp3628
g48
(g49
g50
NtRp3629
(dp3630
g53
(dp3631
g61
I4
ssg62
g3625
sg55
(lp3632
S'text/html; charset=utf-8'
p3633
asbasbasbag48
(g64
g50
NtRp3634
(dp3635
g53
(dp3636
sg62
g3586
sg55
(lp3637
g48
(g69
g50
NtRp3638
(dp3639
g53
(dp3640
g73
g74
ssg62
g3634
sg55
(lp3641
S'Expires'
p3642
asbag48
(g69
g50
NtRp3643
(dp3644
g53
(dp3645
g80
g81
ssg62
g3634
sg55
(lp3646
S':'
asbag48
(g69
g50
NtRp3647
(dp3648
g53
(dp3649
sg62
g3634
sg55
(lp3650
g48
(g49
g50
NtRp3651
(dp3652
g53
(dp3653
g61
I4
ssg62
g3647
sg55
(lp3654
S'Thu, 12 Jan 2012 12:51:14 GMT'
p3655
asbasbasbag48
(g64
g50
NtRp3656
(dp3657
g53
(dp3658
sg62
g3586
sg55
(lp3659
g48
(g69
g50
NtRp3660
(dp3661
g53
(dp3662
g73
g74
ssg62
g3656
sg55
(lp3663
S'NingNang'
p3664
asbag48
(g69
g50
NtRp3665
(dp3666
g53
(dp3667
g80
g81
ssg62
g3656
sg55
(lp3668
S':'
asbag48
(g69
g50
NtRp3669
(dp3670
g53
(dp3671
sg62
g3656
sg55
(lp3672
g48
(g49
g50
NtRp3673
(dp3674
g53
(dp3675
g61
I4
ssg62
g3669
sg55
(lp3676
S'Nong'
p3677
asbasbasbag48
(g64
g50
NtRp3678
(dp3679
g53
(dp3680
sg62
g3586
sg55
(lp3681
g48
(g69
g50
NtRp3682
(dp3683
g53
(dp3684
g73
g74
ssg62
g3678
sg55
(lp3685
S'Pragma'
p3686
asbag48
(g69
g50
NtRp3687
(dp3688
g53
(dp3689
g80
g81
ssg62
g3678
sg55
(lp3690
S':'
asbag48
(g69
g50
NtRp3691
(dp3692
g53
(dp3693
sg62
g3678
sg55
(lp3694
g48
(g49
g50
NtRp3695
(dp3696
g53
(dp3697
g61
I4
ssg62
g3691
sg55
(lp3698
S'no-cache'
p3699
asbasbasbasbasbasbasbag48
(g64
g50
NtRp3700
(dp3701
g53
(dp3702
sg62
g3228
sg55
(lp3703
g48
(g69
g50
NtRp3704
(dp3705
g53
(dp3706
g73
g74
ssg62
g3700
sg55
(lp3707
S'menu'
p3708
asbag48
(g69
g50
NtRp3709
(dp3710
g53
(dp3711
g80
g81
ssg62
g3700
sg55
(lp3712
S':'
asbag48
(g69
g50
NtRp3713
(dp3714
g53
(dp3715
sg62
g3700
sg55
(lp3716
g48
(g49
g50
NtRp3717
(dp3718
g53
(dp3719
g61
I5
ssg62
g3713
sg55
(lp3720
g48
(g57
g50
NtRp3721
(dp3722
g53
(dp3723
g61
I4
ssg62
Nsg55
(lp3724
g48
(g64
g50
NtRp3725
(dp3726
g53
(dp3727
sg62
g3721
sg55
(lp3728
g48
(g69
g50
NtRp3729
(dp3730
g53
(dp3731
sg62
g3725
sg55
(lp3732
g48
(g49
g50
NtRp3733
(dp3734
g53
(dp3735
g61
I4
ssg62
g3729
sg55
(lp3736
g48
(g57
g50
NtRp3737
(dp3738
g53
(dp3739
g61
I3
ssg62
Nsg55
(lp3740
g48
(g64
g50
NtRp3741
(dp3742
g53
(dp3743
sg62
g3737
sg55
(lp3744
g48
(g69
g50
NtRp3745
(dp3746
g53
(dp3747
sg62
g3741
sg55
(lp3748
g48
(g49
g50
NtRp3749
(dp3750
g53
(dp3751
g61
I3
ssg62
g3745
sg55
(lp3752
cgluon.languages
lazyT_unpickle
p3753
(S's\x04\x00\x00\x00Site'
tRp3754
asbasbasbag48
(g64
g50
NtRp3755
(dp3756
g53
(dp3757
sg62
g3737
sg55
(lp3758
g48
(g69
g50
NtRp3759
(dp3760
g53
(dp3761
sg62
g3755
sg55
(lp3762
g48
(g49
g50
NtRp3763
(dp3764
g53
(dp3765
g61
I3
ssg62
g3759
sg55
(lp3766
g746
asbasbasbag48
(g64
g50
NtRp3767
(dp3768
g53
(dp3769
sg62
g3737
sg55
(lp3770
g48
(g69
g50
NtRp3771
(dp3772
g53
(dp3773
sg62
g3767
sg55
(lp3774
g48
(g49
g50
NtRp3775
(dp3776
g53
(dp3777
g61
I3
ssg62
g3771
sg55
(lp3778
S'/admin/default/site'
p3779
asbasbasbasbasbasbasbag48
(g64
g50
NtRp3780
(dp3781
g53
(dp3782
sg62
g3721
sg55
(lp3783
g48
(g69
g50
NtRp3784
(dp3785
g53
(dp3786
sg62
g3780
sg55
(lp3787
g48
(g49
g50
NtRp3788
(dp3789
g53
(dp3790
g61
I4
ssg62
g3784
sg55
(lp3791
g48
(g57
g50
NtRp3792
(dp3793
g53
(dp3794
g61
I3
ssg62
Nsg55
(lp3795
g48
(g64
g50
NtRp3796
(dp3797
g53
(dp3798
sg62
g3792
sg55
(lp3799
g48
(g69
g50
NtRp3800
(dp3801
g53
(dp3802
sg62
g3796
sg55
(lp3803
g48
(g49
g50
NtRp3804
(dp3805
g53
(dp3806
g61
I3
ssg62
g3800
sg55
(lp3807
g3753
(S's\x06\x00\x00\x00Logout'
tRp3808
asbasbasbag48
(g64
g50
NtRp3809
(dp3810
g53
(dp3811
sg62
g3792
sg55
(lp3812
g48
(g69
g50
NtRp3813
(dp3814
g53
(dp3815
sg62
g3809
sg55
(lp3816
g48
(g49
g50
NtRp3817
(dp3818
g53
(dp3819
g61
I3
ssg62
g3813
sg55
(lp3820
g746
asbasbasbag48
(g64
g50
NtRp3821
(dp3822
g53
(dp3823
sg62
g3792
sg55
(lp3824
g48
(g69
g50
NtRp3825
(dp3826
g53
(dp3827
sg62
g3821
sg55
(lp3828
g48
(g49
g50
NtRp3829
(dp3830
g53
(dp3831
g61
I3
ssg62
g3825
sg55
(lp3832
S'/admin/default/logout'
p3833
asbasbasbasbasbasbasbag48
(g64
g50
NtRp3834
(dp3835
g53
(dp3836
sg62
g3721
sg55
(lp3837
g48
(g69
g50
NtRp3838
(dp3839
g53
(dp3840
sg62
g3834
sg55
(lp3841
g48
(g49
g50
NtRp3842
(dp3843
g53
(dp3844
g61
I4
ssg62
g3838
sg55
(lp3845
g48
(g57
g50
NtRp3846
(dp3847
g53
(dp3848
g61
I3
ssg62
Nsg55
(lp3849
g48
(g64
g50
NtRp3850
(dp3851
g53
(dp3852
sg62
g3846
sg55
(lp3853
g48
(g69
g50
NtRp3854
(dp3855
g53
(dp3856
sg62
g3850
sg55
(lp3857
g48
(g49
g50
NtRp3858
(dp3859
g53
(dp3860
g61
I3
ssg62
g3854
sg55
(lp3861
g3753
(S's\x04\x00\x00\x00Help'
tRp3862
asbasbasbag48
(g64
g50
NtRp3863
(dp3864
g53
(dp3865
sg62
g3846
sg55
(lp3866
g48
(g69
g50
NtRp3867
(dp3868
g53
(dp3869
sg62
g3863
sg55
(lp3870
g48
(g49
g50
NtRp3871
(dp3872
g53
(dp3873
g61
I3
ssg62
g3867
sg55
(lp3874
g746
asbasbasbag48
(g64
g50
NtRp3875
(dp3876
g53
(dp3877
sg62
g3846
sg55
(lp3878
g48
(g69
g50
NtRp3879
(dp3880
g53
(dp3881
sg62
g3875
sg55
(lp3882
g48
(g49
g50
NtRp3883
(dp3884
g53
(dp3885
g61
I3
ssg62
g3879
sg55
(lp3886
S'/examples/default/index'
p3887
asbasbasbasbasbasbasbasbasbasbasbag48
(g64
g50
NtRp3888
(dp3889
g53
(dp3890
sg62
g3228
sg55
(lp3891
g48
(g69
g50
NtRp3892
(dp3893
g53
(dp3894
g73
g74
ssg62
g3888
sg55
(lp3895
S'meta'
p3896
asbag48
(g69
g50
NtRp3897
(dp3898
g53
(dp3899
g80
g81
ssg62
g3888
sg55
(lp3900
S':'
asbag48
(g69
g50
NtRp3901
(dp3902
g53
(dp3903
sg62
g3888
sg55
(lp3904
g48
(g49
g50
NtRp3905
(dp3906
g53
(dp3907
g61
I5
ssg62
g3901
sg55
(lp3908
g48
(g57
g50
NtRp3909
(dp3910
g53
(dp3911
g61
I4
ssg62
Nsg55
(lp3912
sbasbasbasbag48
(g64
g50
NtRp3913
(dp3914
g53
(dp3915
sg62
g3228
sg55
(lp3916
g48
(g69
g50
NtRp3917
(dp3918
g53
(dp3919
g73
g74
ssg62
g3913
sg55
(lp3920
S'postprocessing'
p3921
asbag48
(g69
g50
NtRp3922
(dp3923
g53
(dp3924
g80
g81
ssg62
g3913
sg55
(lp3925
S':'
asbag48
(g69
g50
NtRp3926
(dp3927
g53
(dp3928
sg62
g3913
sg55
(lp3929
g48
(g49
g50
NtRp3930
(dp3931
g53
(dp3932
g61
I5
ssg62
g3926
sg55
(lp3933
g48
(g57
g50
NtRp3934
(dp3935
g53
(dp3936
g61
I4
ssg62
Nsg55
(lp3937
sbasbasbasbag48
(g64
g50
NtRp3938
(dp3939
g53
(dp3940
sg62
g3228
sg55
(lp3941
g48
(g69
g50
NtRp3942
(dp3943
g53
(dp3944
g73
g74
ssg62
g3938
sg55
(lp3945
S'session_file'
p3946
asbag48
(g69
g50
NtRp3947
(dp3948
g53
(dp3949
g80
g81
ssg62
g3938
sg55
(lp3950
S':'
asbag48
(g69
g50
NtRp3951
(dp3952
g53
(dp3953
sg62
g3938
sg55
(lp3954
g48
(g49
g50
NtRp3955
(dp3956
g53
(dp3957
g61
I5
ssg62
g3951
sg55
(lp3958
S"<open file 'D:\\Dropbox\\Eclipse\\OJDevSourceProject\\project\\web2py\\applications\\admin\\sessions\\127.0.0.1-cbebe7ec-c67b-4b25-a560-3bb4d45521b3', mode 'rb+' at 0x08217260>"
p3959
asbasbasbag48
(g64
g50
NtRp3960
(dp3961
g53
(dp3962
sg62
g3228
sg55
(lp3963
g48
(g69
g50
NtRp3964
(dp3965
g53
(dp3966
g73
g74
ssg62
g3960
sg55
(lp3967
S'session_filename'
p3968
asbag48
(g69
g50
NtRp3969
(dp3970
g53
(dp3971
g80
g81
ssg62
g3960
sg55
(lp3972
S':'
asbag48
(g69
g50
NtRp3973
(dp3974
g53
(dp3975
sg62
g3960
sg55
(lp3976
g48
(g49
g50
NtRp3977
(dp3978
g53
(dp3979
g61
I5
ssg62
g3973
sg55
(lp3980
S'D:\\Dropbox\\Eclipse\\OJDevSourceProject\\project\\web2py\\applications\\admin\\sessions\\127.0.0.1-cbebe7ec-c67b-4b25-a560-3bb4d45521b3'
p3981
asbasbasbag48
(g64
g50
NtRp3982
(dp3983
g53
(dp3984
sg62
g3228
sg55
(lp3985
g48
(g69
g50
NtRp3986
(dp3987
g53
(dp3988
g73
g74
ssg62
g3982
sg55
(lp3989
S'session_id'
p3990
asbag48
(g69
g50
NtRp3991
(dp3992
g53
(dp3993
g80
g81
ssg62
g3982
sg55
(lp3994
S':'
asbag48
(g69
g50
NtRp3995
(dp3996
g53
(dp3997
sg62
g3982
sg55
(lp3998
g48
(g49
g50
NtRp3999
(dp4000
g53
(dp4001
g61
I5
ssg62
g3995
sg55
(lp4002
S'127.0.0.1-cbebe7ec-c67b-4b25-a560-3bb4d45521b3'
p4003
asbasbasbag48
(g64
g50
NtRp4004
(dp4005
g53
(dp4006
sg62
g3228
sg55
(lp4007
g48
(g69
g50
NtRp4008
(dp4009
g53
(dp4010
g73
g74
ssg62
g4004
sg55
(lp4011
S'session_id_name'
p4012
asbag48
(g69
g50
NtRp4013
(dp4014
g53
(dp4015
g80
g81
ssg62
g4004
sg55
(lp4016
S':'
asbag48
(g69
g50
NtRp4017
(dp4018
g53
(dp4019
sg62
g4004
sg55
(lp4020
g48
(g49
g50
NtRp4021
(dp4022
g53
(dp4023
g61
I5
ssg62
g4017
sg55
(lp4024
g3285
asbasbasbag48
(g64
g50
NtRp4025
(dp4026
g53
(dp4027
sg62
g3228
sg55
(lp4028
g48
(g69
g50
NtRp4029
(dp4030
g53
(dp4031
g73
g74
ssg62
g4025
sg55
(lp4032
S'session_locked'
p4033
asbag48
(g69
g50
NtRp4034
(dp4035
g53
(dp4036
g80
g81
ssg62
g4025
sg55
(lp4037
S':'
asbag48
(g69
g50
NtRp4038
(dp4039
g53
(dp4040
sg62
g4025
sg55
(lp4041
g48
(g49
g50
NtRp4042
(dp4043
g53
(dp4044
g61
I5
ssg62
g4038
sg55
(lp4045
g746
asbasbasbag48
(g64
g50
NtRp4046
(dp4047
g53
(dp4048
sg62
g3228
sg55
(lp4049
g48
(g69
g50
NtRp4050
(dp4051
g53
(dp4052
g73
g74
ssg62
g4046
sg55
(lp4053
S'session_new'
p4054
asbag48
(g69
g50
NtRp4055
(dp4056
g53
(dp4057
g80
g81
ssg62
g4046
sg55
(lp4058
S':'
asbag48
(g69
g50
NtRp4059
(dp4060
g53
(dp4061
sg62
g4046
sg55
(lp4062
g48
(g49
g50
NtRp4063
(dp4064
g53
(dp4065
g61
I5
ssg62
g4059
sg55
(lp4066
g746
asbasbasbag48
(g64
g50
NtRp4067
(dp4068
g53
(dp4069
sg62
g3228
sg55
(lp4070
g48
(g69
g50
NtRp4071
(dp4072
g53
(dp4073
g73
g74
ssg62
g4067
sg55
(lp4074
S'status'
p4075
asbag48
(g69
g50
NtRp4076
(dp4077
g53
(dp4078
g80
g81
ssg62
g4067
sg55
(lp4079
S':'
asbag48
(g69
g50
NtRp4080
(dp4081
g53
(dp4082
sg62
g4067
sg55
(lp4083
g48
(g49
g50
NtRp4084
(dp4085
g53
(dp4086
g61
I5
ssg62
g4080
sg55
(lp4087
S'200'
p4088
asbasbasbag48
(g64
g50
NtRp4089
(dp4090
g53
(dp4091
sg62
g3228
sg55
(lp4092
g48
(g69
g50
NtRp4093
(dp4094
g53
(dp4095
g73
g74
ssg62
g4089
sg55
(lp4096
S'subtitle'
p4097
asbag48
(g69
g50
NtRp4098
(dp4099
g53
(dp4100
g80
g81
ssg62
g4089
sg55
(lp4101
S':'
asbag48
(g69
g50
NtRp4102
(dp4103
g53
(dp4104
sg62
g4089
sg55
(lp4105
g48
(g49
g50
NtRp4106
(dp4107
g53
(dp4108
g61
I5
ssg62
g4102
sg55
(lp4109
S'admin'
p4110
asbasbasbag48
(g64
g50
NtRp4111
(dp4112
g53
(dp4113
sg62
g3228
sg55
(lp4114
g48
(g69
g50
NtRp4115
(dp4116
g53
(dp4117
g73
g74
ssg62
g4111
sg55
(lp4118
S'title'
p4119
asbag48
(g69
g50
NtRp4120
(dp4121
g53
(dp4122
g80
g81
ssg62
g4111
sg55
(lp4123
S':'
asbag48
(g69
g50
NtRp4124
(dp4125
g53
(dp4126
sg62
g4111
sg55
(lp4127
g48
(g49
g50
NtRp4128
(dp4129
g53
(dp4130
g61
I5
ssg62
g4124
sg55
(lp4131
S'check_version '
p4132
asbasbasbag48
(g64
g50
NtRp4133
(dp4134
g53
(dp4135
sg62
g3228
sg55
(lp4136
g48
(g69
g50
NtRp4137
(dp4138
g53
(dp4139
g73
g74
ssg62
g4133
sg55
(lp4140
g2238
asbag48
(g69
g50
NtRp4141
(dp4142
g53
(dp4143
g80
g81
ssg62
g4133
sg55
(lp4144
S':'
asbag48
(g69
g50
NtRp4145
(dp4146
g53
(dp4147
sg62
g4133
sg55
(lp4148
g48
(g49
g50
NtRp4149
(dp4150
g53
(dp4151
g61
I5
ssg62
g4145
sg55
(lp4152
g2251
asbasbasbag48
(g64
g50
NtRp4153
(dp4154
g53
(dp4155
sg62
g3228
sg55
(lp4156
g48
(g69
g50
NtRp4157
(dp4158
g53
(dp4159
g73
g74
ssg62
g4153
sg55
(lp4160
S'view'
p4161
asbag48
(g69
g50
NtRp4162
(dp4163
g53
(dp4164
g80
g81
ssg62
g4153
sg55
(lp4165
S':'
asbag48
(g69
g50
NtRp4166
(dp4167
g53
(dp4168
sg62
g4153
sg55
(lp4169
g48
(g49
g50
NtRp4170
(dp4171
g53
(dp4172
g61
I5
ssg62
g4166
sg55
(lp4173
S'default/check_version.html'
p4174
asbasbasbasbasbsS'locals'
p4175
(dp4176
S'version_number'
p4177
S"(1, 99, 4, datetime.datetime(2011, 12, 14, 14, 46, 14), 'stable')"
p4178
sS'new_version'
p4179
g91
sssS'traceback'
p4180
S'Traceback (most recent call last):\n  File "D:\\Dropbox\\Eclipse\\OJDevSourceProject\\project\\web2py\\gluon\\restricted.py", line 194, in restricted\n    exec ccode in environment\n  File "D:\\Dropbox\\Eclipse\\OJDevSourceProject\\project\\web2py\\applications\\admin\\controllers/default.py", line 1225, in <module>\n  File "D:\\Dropbox\\Eclipse\\OJDevSourceProject\\project\\web2py\\gluon\\globals.py", line 149, in <lambda>\n    self._caller = lambda f: f()\n  File "D:\\Dropbox\\Eclipse\\OJDevSourceProject\\project\\web2py\\applications\\admin\\controllers/default.py", line 105, in check_version\n    + XML(\' <strong class="upgrade_version">%s</strong>\' % version_number)\nTypeError: not all arguments converted during string formatting\n'
p4181
s.