(dp1
S'output'
p2
S''
sS'layer'
p3
S'D:\\Dropbox\\Eclipse\\OJDevSourceProject\\project\\web2py\\applications\\admin\\controllers/default.py'
p4
sS'code'
p5
S'# coding: utf8\n\nfrom gluon.admin import *\nfrom gluon.fileutils import abspath, read_file, write_file\nfrom glob import glob\nimport shutil\nimport platform\n\nif DEMO_MODE and request.function in [\'change_password\',\'pack\',\'pack_plugin\',\'upgrade_web2py\',\'uninstall\',\'cleanup\',\'compile_app\',\'remove_compiled_app\',\'delete\',\'delete_plugin\',\'create_file\',\'upload_file\',\'update_languages\',\'reload_routes\']:\n    session.flash = T(\'disabled in demo mode\')\n    redirect(URL(\'site\'))\n\nif not is_manager() and request.function in [\'change_password\',\'upgrade_web2py\']:\n    session.flash = T(\'disabled in multi user mode\')\n    redirect(URL(\'site\'))\n\nif FILTER_APPS and request.args(0) and not request.args(0) in FILTER_APPS:\n    session.flash = T(\'disabled in demo mode\')\n    redirect(URL(\'site\'))\n\ndef safe_open(a,b):\n    if DEMO_MODE and \'w\' in b:\n        class tmp:\n            def write(self,data): pass\n        return tmp()\n    return open(a,b)\n\ndef safe_read(a, b=\'r\'):\n    safe_file = safe_open(a, b)\n    try:\n        return safe_file.read()\n    finally:\n        safe_file.close()\n\ndef safe_write(a, value, b=\'w\'):\n    safe_file = safe_open(a, b)\n    try:\n        safe_file.write(value)\n    finally:\n        safe_file.close()\n\ndef get_app(name=None):\n    app = name or request.args(0)\n    if app and (not MULTI_USER_MODE or db(db.app.name==app)(db.app.owner==auth.user.id).count()):\n        return app\n    session.flash = \'App does not exist or your are not authorized\'\n    redirect(URL(\'site\'))\n\ndef index():\n    """ Index handler """\n\n    send = request.vars.send\n    if DEMO_MODE:\n        session.authorized = True\n        session.last_time = t0\n    if not send:\n        send = URL(\'site\')\n    if session.authorized:\n        redirect(send)\n    elif request.vars.password:\n        if verify_password(request.vars.password):\n            session.authorized = True\n            login_record(True)\n\n            if CHECK_VERSION:\n                session.check_version = True\n            else:\n                session.check_version = False\n\n            session.last_time = t0\n            if isinstance(send, list):  # ## why does this happen?\n                send = str(send[0])\n\n            redirect(send)\n        else:\n            times_denied = login_record(False)\n            if times_denied >= allowed_number_of_attempts:\n                response.flash = \\\n                    T(\'admin disabled because too many invalid login attempts\')\n            elif times_denied == allowed_number_of_attempts - 1:\n                response.flash = \\\n                    T(\'You have one more login attempt before you are locked out\')\n            else:\n                response.flash = T(\'invalid password.\')\n    return dict(send=send)\n\n\ndef check_version():\n    """ Checks if web2py is up to date """\n\n    session.forget()\n    session._unlock(response)\n\n    new_version, version_number = check_new_version(request.env.web2py_version,\n                                    WEB2PY_VERSION_URL)\n\n    if new_version == -1:\n        return A(T(\'Unable to check for upgrades\'), _href=WEB2PY_URL)\n    elif new_version != True:\n        return A(T(\'web2py is up to date\'), _href=WEB2PY_URL)\n    elif platform.system().lower() in (\'windows\',\'win32\',\'win64\') and os.path.exists("web2py.exe"):\n        return SPAN(\'You should upgrade to version %s\' % version_number)\n    else:\n        return sp_button(URL(\'upgrade_web2py\'), T(\'upgrade now\')) \\\n          + XML(\' <strong class="upgrade_version">%s</strong>\' % version_number)\n\n\ndef logout():\n    """ Logout handler """\n    session.authorized = None\n    if MULTI_USER_MODE:\n        redirect(URL(\'user/logout\'))\n    redirect(URL(\'index\'))\n\n\ndef change_password():\n\n    if session.pam_user:\n        session.flash = T(\'PAM authenticated user, cannot change password here\')\n        redirect(URL(\'site\'))\n    form=SQLFORM.factory(Field(\'current_admin_password\',\'password\'),\n                         Field(\'new_admin_password\',\'password\',requires=IS_STRONG()),\n                         Field(\'new_admin_password_again\',\'password\'))\n    if form.accepts(request.vars):\n        if not verify_password(request.vars.current_admin_password):\n            form.errors.current_admin_password = T(\'invalid password\')\n        elif form.vars.new_admin_password != form.vars.new_admin_password_again:\n            form.errors.new_admin_password_again = T(\'no match\')\n        else:\n            path = abspath(\'parameters_%s.py\' % request.env.server_port)\n            safe_write(path, \'password="%s"\' % CRYPT()(request.vars.new_admin_password)[0])\n            session.flash = T(\'password changed\')\n            redirect(URL(\'site\'))\n    return dict(form=form)\n\ndef site():\n    """ Site handler """\n\n    myversion = request.env.web2py_version\n\n    # Shortcut to make the elif statements more legible\n    file_or_appurl = \'file\' in request.vars or \'appurl\' in request.vars\n\n    if DEMO_MODE:\n        pass\n\n    elif request.vars.filename and not \'file\' in request.vars:\n        # create a new application\n        appname = cleanpath(request.vars.filename).replace(\'.\', \'_\')\n        if app_create(appname, request):\n            if MULTI_USER_MODE:\n                db.app.insert(name=appname,owner=auth.user.id)\n            session.flash = T(\'new application "%s" created\', appname)\n            redirect(URL(\'design\',args=appname))\n        else:\n            session.flash = \\\n                T(\'unable to create application "%s" (it may exist already)\', request.vars.filename)\n        redirect(URL(r=request))\n\n    elif file_or_appurl and not request.vars.filename:\n        # can\'t do anything without an app name\n        msg = \'you must specify a name for the uploaded application\'\n        response.flash = T(msg)\n\n    elif file_or_appurl and request.vars.filename:\n        # fetch an application via URL or file upload\n        f = None\n        if request.vars.appurl is not \'\':\n            try:\n                f = urllib.urlopen(request.vars.appurl)\n            except Exception, e:\n                session.flash = DIV(T(\'Unable to download app because:\'),PRE(str(e)))\n                redirect(URL(r=request))\n            fname = request.vars.appurl\n        elif request.vars.file is not \'\':\n            f = request.vars.file.file\n            fname = request.vars.file.filename\n\n        if f:\n            appname = cleanpath(request.vars.filename).replace(\'.\', \'_\')\n            installed = app_install(appname, f, request, fname,\n                                    overwrite=request.vars.overwrite_check)\n        if f and installed:\n            msg = \'application %(appname)s installed with md5sum: %(digest)s\'\n            session.flash = T(msg, dict(appname=appname,\n                                        digest=md5_hash(installed)))\n        elif f and request.vars.overwrite_check:\n            msg = \'unable to install application "%(appname)s"\'\n            session.flash = T(msg, dict(appname=request.vars.filename))\n\n        else:\n            msg = \'unable to install application "%(appname)s"\'\n            session.flash = T(msg, dict(appname=request.vars.filename))\n\n        redirect(URL(r=request))\n\n    regex = re.compile(\'^\\w+$\')\n\n    if is_manager():\n        apps = [f for f in os.listdir(apath(r=request)) if regex.match(f)]\n    else:\n        apps = [f.name for f in db(db.app.owner==auth.user_id).select()]\n\n    if FILTER_APPS:\n        apps = [f for f in apps if f in FILTER_APPS]\n\n    apps = sorted(apps,lambda a,b:cmp(a.upper(),b.upper()))\n\n    return dict(app=None, apps=apps, myversion=myversion)\n\n\ndef pack():\n    app = get_app()\n\n    if len(request.args) == 1:\n        fname = \'web2py.app.%s.w2p\' % app\n        filename = app_pack(app, request)\n    else:\n        fname = \'web2py.app.%s.compiled.w2p\' % app\n        filename = app_pack_compiled(app, request)\n\n    if filename:\n        response.headers[\'Content-Type\'] = \'application/w2p\'\n        disposition = \'attachment; filename=%s\' % fname\n        response.headers[\'Content-Disposition\'] = disposition\n        return safe_read(filename, \'rb\')\n    else:\n        session.flash = T(\'internal error\')\n        redirect(URL(\'site\'))\n\ndef pack_plugin():\n    app = get_app()\n    if len(request.args) == 2:\n        fname = \'web2py.plugin.%s.w2p\' % request.args[1]\n        filename = plugin_pack(app, request.args[1], request)\n    if filename:\n        response.headers[\'Content-Type\'] = \'application/w2p\'\n        disposition = \'attachment; filename=%s\' % fname\n        response.headers[\'Content-Disposition\'] = disposition\n        return safe_read(filename, \'rb\')\n    else:\n        session.flash = T(\'internal error\')\n        redirect(URL(\'plugin\',args=request.args))\n\ndef upgrade_web2py():\n    if \'upgrade\' in request.vars:\n        (success, error) = upgrade(request)\n        if success:\n            session.flash = T(\'web2py upgraded; please restart it\')\n        else:\n            session.flash = T(\'unable to upgrade because "%s"\', error)\n        redirect(URL(\'site\'))\n    elif \'noupgrade\' in request.vars:\n        redirect(URL(\'site\'))\n    return dict()\n\ndef uninstall():\n    app = get_app()\n    if \'delete\' in request.vars:\n        if MULTI_USER_MODE:\n            if is_manager() and db(db.app.name==app).delete():\n                pass\n            elif db(db.app.name==app)(db.app.owner==auth.user.id).delete():\n                pass\n            else:\n                session.flash = T(\'no permission to uninstall "%s"\', app)\n                redirect(URL(\'site\'))\n        if app_uninstall(app, request):            \n            session.flash = T(\'application "%s" uninstalled\', app)\n        else:\n            session.flash = T(\'unable to uninstall "%s"\', app)\n        redirect(URL(\'site\'))\n    elif \'nodelete\' in request.vars:\n        redirect(URL(\'site\'))\n    return dict(app=app)\n\n\ndef cleanup():\n    app = get_app()\n    clean = app_cleanup(app, request)\n    if not clean:\n        session.flash = T("some files could not be removed")\n    else:\n        session.flash = T(\'cache, errors and sessions cleaned\')\n\n    redirect(URL(\'site\'))\n\n\ndef compile_app():\n    app = get_app()\n    c = app_compile(app, request)\n    if not c:\n        session.flash = T(\'application compiled\')\n    else:\n        session.flash = DIV(T(\'Cannot compile: there are errors in your app:\'),\n                              CODE(c))\n    redirect(URL(\'site\'))\n\n\ndef remove_compiled_app():\n    """ Remove the compiled application """\n    app = get_app()\n    remove_compiled_application(apath(app, r=request))\n    session.flash = T(\'compiled application removed\')\n    redirect(URL(\'site\'))\n\ndef delete():\n    """ Object delete handler """\n    app = get_app()\n    filename = \'/\'.join(request.args)\n    sender = request.vars.sender\n\n    if isinstance(sender, list):  # ## fix a problem with Vista\n        sender = sender[0]\n\n    if \'nodelete\' in request.vars:\n        redirect(URL(sender))\n    elif \'delete\' in request.vars:\n        try:\n            os.unlink(apath(filename, r=request))\n            session.flash = T(\'file "%(filename)s" deleted\',\n                              dict(filename=filename))\n        except Exception:\n            session.flash = T(\'unable to delete file "%(filename)s"\',\n                              dict(filename=filename))\n        redirect(URL(sender))\n    return dict(filename=filename, sender=sender)\n\ndef peek():\n    """ Visualize object code """\n    app = get_app()\n    filename = \'/\'.join(request.args)\n    try:\n        data = safe_read(apath(filename, r=request)).replace(\'\\r\',\'\')\n    except IOError:\n        session.flash = T(\'file does not exist\')\n        redirect(URL(\'site\'))\n\n    extension = filename[filename.rfind(\'.\') + 1:].lower()\n\n    return dict(app=request.args[0],\n                filename=filename,\n                data=data,\n                extension=extension)\n\n\ndef test():\n    """ Execute controller tests """\n    app = get_app()\n    if len(request.args) > 1:\n        file = request.args[1]\n    else:\n        file = \'.*\\.py\'\n\n    controllers = listdir(apath(\'%s/controllers/\' % app, r=request), file + \'$\')\n\n    return dict(app=app, controllers=controllers)\n\ndef keepalive():\n    return \'\'\n\ndef search():\n    keywords=request.vars.keywords or \'\'\n    app = get_app()\n    def match(filename,keywords):\n        filename=os.path.join(apath(app, r=request),filename)\n        if keywords in read_file(filename,\'rb\'):\n            return True\n        return False\n    path = apath(request.args[0], r=request)\n    files1 = glob(os.path.join(path,\'*/*.py\'))\n    files2 = glob(os.path.join(path,\'*/*.html\'))\n    files3 = glob(os.path.join(path,\'*/*/*.html\'))\n    files=[x[len(path)+1:].replace(\'\\\\\',\'/\') for x in files1+files2+files3 if match(x,keywords)]\n    return response.json({\'files\':files})\n\ndef edit():\n    """ File edit handler """\n    # Load json only if it is ajax edited...\n    app = get_app()\n    filename = \'/\'.join(request.args)\n    # Try to discover the file type\n    if filename[-3:] == \'.py\':\n        filetype = \'python\'\n    elif filename[-5:] == \'.html\':\n        filetype = \'html\'\n    elif filename[-5:] == \'.load\':\n        filetype = \'html\'\n    elif filename[-4:] == \'.css\':\n        filetype = \'css\'\n    elif filename[-3:] == \'.js\':\n        filetype = \'js\'\n    else:\n        filetype = \'html\'\n\n    # ## check if file is not there\n\n    path = apath(filename, r=request)\n\n    if request.vars.revert and os.path.exists(path + \'.bak\'):\n        try:\n            data = safe_read(path + \'.bak\')\n            data1 = safe_read(path)\n        except IOError:\n            session.flash = T(\'Invalid action\')\n            if \'from_ajax\' in request.vars:\n                 return response.json({\'error\': str(T(\'Invalid action\'))})\n            else:\n                redirect(URL(\'site\'))\n\n        safe_write(path, data)\n        file_hash = md5_hash(data)\n        saved_on = time.ctime(os.stat(path)[stat.ST_MTIME])\n        safe_write(path + \'.bak\', data1)\n        response.flash = T(\'file "%s" of %s restored\', (filename, saved_on))\n    else:\n        try:\n            data = safe_read(path)\n        except IOError:\n            session.flash = T(\'Invalid action\')\n            if \'from_ajax\' in request.vars:\n                return response.json({\'error\': str(T(\'Invalid action\'))})\n            else:\n                redirect(URL(\'site\'))\n\n        file_hash = md5_hash(data)\n        saved_on = time.ctime(os.stat(path)[stat.ST_MTIME])\n\n        if request.vars.file_hash and request.vars.file_hash != file_hash:\n            session.flash = T(\'file changed on disk\')\n            data = request.vars.data.replace(\'\\r\\n\', \'\\n\').strip() + \'\\n\'\n            safe_write(path + \'.1\', data)\n            if \'from_ajax\' in request.vars:\n                return response.json({\'error\': str(T(\'file changed on disk\')),\n                                      \'redirect\': URL(\'resolve\',\n                                                      args=request.args)})\n            else:\n                redirect(URL(\'resolve\', args=request.args))\n        elif request.vars.data:\n            safe_write(path + \'.bak\', data)\n            data = request.vars.data.replace(\'\\r\\n\', \'\\n\').strip() + \'\\n\'\n            safe_write(path, data)\n            file_hash = md5_hash(data)\n            saved_on = time.ctime(os.stat(path)[stat.ST_MTIME])\n            response.flash = T(\'file saved on %s\', saved_on)\n\n    data_or_revert = (request.vars.data or request.vars.revert)\n\n    # Check compile errors\n    highlight = None\n    if filetype == \'python\' and request.vars.data:\n        import _ast\n        try:\n            code = request.vars.data.rstrip().replace(\'\\r\\n\',\'\\n\')+\'\\n\'\n            compile(code, path, "exec", _ast.PyCF_ONLY_AST)\n        except Exception, e:\n            start = sum([len(line)+1 for l, line\n                            in enumerate(request.vars.data.split("\\n"))\n                            if l < e.lineno-1])\n            if e.text and e.offset:\n                offset = e.offset - (len(e.text) - len(e.text.splitlines()[-1]))\n            else:\n                offset = 0\n            highlight = {\'start\': start, \'end\': start + offset + 1}\n            try:\n                ex_name = e.__class__.__name__\n            except:\n                ex_name = \'unknown exception!\'\n            response.flash = DIV(T(\'failed to compile file because:\'), BR(),\n                                 B(ex_name), T(\' at line %s\') % e.lineno,\n                                 offset and T(\' at char %s\') % offset or \'\',\n                                 PRE(str(e)))\n\n    if data_or_revert and request.args[1] == \'modules\':\n        # Lets try to reload the modules\n        try:\n            mopath = \'.\'.join(request.args[2:])[:-3]\n            exec \'import applications.%s.modules.%s\' % (request.args[0], mopath)\n            reload(sys.modules[\'applications.%s.modules.%s\'\n                    % (request.args[0], mopath)])\n        except Exception, e:\n            response.flash = DIV(T(\'failed to reload module because:\'),PRE(str(e)))\n\n    edit_controller = None\n    editviewlinks = None\n    view_link = None\n    if filetype == \'html\' and len(request.args) >= 3:\n        cfilename = os.path.join(request.args[0], \'controllers\',\n                                 request.args[2] + \'.py\')\n        if os.path.exists(apath(cfilename, r=request)):\n            edit_controller = URL(\'edit\', args=[cfilename])\n            view = request.args[3].replace(\'.html\',\'\')\n            view_link = URL(request.args[0],request.args[2],view)\n    elif filetype == \'python\' and request.args[1] == \'controllers\':\n        ## it\'s a controller file.\n        ## Create links to all of the associated view files.\n        app = get_app()\n        viewname = os.path.splitext(request.args[2])[0]\n        viewpath = os.path.join(app,\'views\',viewname)\n        aviewpath = apath(viewpath, r=request)\n        viewlist = []\n        if os.path.exists(aviewpath):\n            if os.path.isdir(aviewpath):\n                viewlist = glob(os.path.join(aviewpath,\'*.html\'))\n        elif os.path.exists(aviewpath+\'.html\'):\n            viewlist.append(aviewpath+\'.html\')\n        if len(viewlist):\n            editviewlinks = []\n            for v in viewlist:\n                vf = os.path.split(v)[-1]\n                vargs = "/".join([viewpath.replace(os.sep,"/"),vf])\n                editviewlinks.append(A(T(vf.split(".")[0]),\\\n                    _href=URL(\'edit\',args=[vargs])))\n\n    if len(request.args) > 2 and request.args[1] == \'controllers\':\n        controller = (request.args[2])[:-3]\n        functions = regex_expose.findall(data)\n    else:\n        (controller, functions) = (None, None)\n\n    if \'from_ajax\' in request.vars:\n        return response.json({\'file_hash\': file_hash, \'saved_on\': saved_on, \'functions\':functions, \'controller\': controller, \'application\': request.args[0], \'highlight\': highlight })\n    else:\n\n        editarea_preferences = {}\n        editarea_preferences[\'FONT_SIZE\'] = \'10\'\n        editarea_preferences[\'FULL_SCREEN\'] = \'false\'\n        editarea_preferences[\'ALLOW_TOGGLE\'] = \'true\'\n        editarea_preferences[\'REPLACE_TAB_BY_SPACES\'] = \'4\'\n        editarea_preferences[\'DISPLAY\'] = \'onload\'\n        for key in editarea_preferences:\n            if globals().has_key(key):\n                editarea_preferences[key]=globals()[key]\n        return dict(app=request.args[0],\n                    filename=filename,\n                    filetype=filetype,\n                    data=data,\n                    edit_controller=edit_controller,\n                    file_hash=file_hash,\n                    saved_on=saved_on,\n                    controller=controller,\n                    functions=functions,\n                    view_link=view_link,\n                    editarea_preferences=editarea_preferences,\n                    editviewlinks=editviewlinks)\n\ndef resolve():\n    """\n    """\n\n    filename = \'/\'.join(request.args)\n    # ## check if file is not there\n    path = apath(filename, r=request)\n    a = safe_read(path).split(\'\\n\')\n    try:\n        b = safe_read(path + \'.1\').split(\'\\n\')\n    except IOError:\n        session.flash = \'Other file, no longer there\'\n        redirect(URL(\'edit\', args=request.args))\n\n    d = difflib.ndiff(a, b)\n\n    def leading(line):\n        """  """\n\n        # TODO: we really need to comment this\n        z = \'\'\n        for (k, c) in enumerate(line):\n            if c == \' \':\n                z += \'&nbsp;\'\n            elif c == \' \\t\':\n                z += \'&nbsp;\'\n            elif k == 0 and c == \'?\':\n                pass\n            else:\n                break\n\n        return XML(z)\n\n    def getclass(item):\n        """ Determine item class """\n\n        if item[0] == \' \':\n            return \'normal\'\n        if item[0] == \'+\':\n            return \'plus\'\n        if item[0] == \'-\':\n            return \'minus\'\n\n    if request.vars:\n        c = \'\\n\'.join([item[2:].rstrip() for (i, item) in enumerate(d) if item[0] \\\n                           == \' \' or \'line%i\' % i in request.vars])\n        safe_write(path, c)\n        session.flash = \'files merged\'\n        redirect(URL(\'edit\', args=request.args))\n    else:\n        # Making the short circuit compatible with <= python2.4\n        gen_data = lambda index,item: not item[:1] in [\'+\',\'-\'] and "" \\\n                   or INPUT(_type=\'checkbox\',\n                            _name=\'line%i\' % index,\n                            value=item[0] == \'+\')\n\n        diff = TABLE(*[TR(TD(gen_data(i,item)),\n                          TD(item[0]),\n                          TD(leading(item[2:]),\n                          TT(item[2:].rstrip())), _class=getclass(item))\n                       for (i, item) in enumerate(d) if item[0] != \'?\'])\n\n    return dict(diff=diff, filename=filename)\n\n\ndef edit_language():\n    """ Edit language file """\n    app = get_app()\n    filename = \'/\'.join(request.args)\n    from gluon.languages import read_dict, write_dict\n    strings = read_dict(apath(filename, r=request))\n    keys = sorted(strings.keys(),lambda x,y: cmp(x.lower(), y.lower()))\n    rows = []\n    rows.append(H2(T(\'Original/Translation\')))\n\n    for key in keys:\n        name = md5_hash(key)\n        if key==strings[key]:\n            _class=\'untranslated\'\n        else:\n            _class=\'translated\'\n        if len(key) <= 40:\n            elem = INPUT(_type=\'text\', _name=name,value=strings[key],\n                         _size=70,_class=_class)\n        else:\n            elem = TEXTAREA(_name=name, value=strings[key], _cols=70,\n                            _rows=5, _class=_class)\n\n        # Making the short circuit compatible with <= python2.4\n        k = (strings[key] != key) and key or B(key)\n\n        rows.append(P(k, BR(), elem, TAG.BUTTON(T(\'delete\'),\n                            _onclick=\'return delkey("%s")\' % name), _id=name))\n\n    rows.append(INPUT(_type=\'submit\', _value=T(\'update\')))\n    form = FORM(*rows)\n    if form.accepts(request.vars, keepvalues=True):\n        strs = dict()\n        for key in keys:\n            name = md5_hash(key)\n            if form.vars[name]==chr(127): continue\n            strs[key] = form.vars[name]\n        write_dict(apath(filename, r=request), strs)\n        session.flash = T(\'file saved on %(time)s\', dict(time=time.ctime()))\n        redirect(URL(r=request,args=request.args))\n    return dict(app=request.args[0], filename=filename, form=form)\n\n\ndef about():\n    """ Read about info """\n    app = get_app()\n    # ## check if file is not there\n    about = safe_read(apath(\'%s/ABOUT\' % app, r=request))\n    license = safe_read(apath(\'%s/LICENSE\' % app, r=request))\n    return dict(app=app, about=MARKMIN(about), license=MARKMIN(license))\n\n\ndef design():\n    """ Application design handler """\n    app = get_app()\n\n    if not response.flash and app == request.application:\n        msg = T(\'ATTENTION: you cannot edit the running application!\')\n        response.flash = msg\n\n    if request.vars.pluginfile!=None and not isinstance(request.vars.pluginfile,str):\n        filename=os.path.basename(request.vars.pluginfile.filename)\n        if plugin_install(app, request.vars.pluginfile.file,\n                          request, filename):\n            session.flash = T(\'new plugin installed\')\n            redirect(URL(\'design\',args=app))\n        else:\n            session.flash = \\\n                T(\'unable to create application "%s"\', request.vars.filename)\n        redirect(URL(r=request))\n    elif isinstance(request.vars.pluginfile,str):\n        session.flash = T(\'plugin not specified\')\n        redirect(URL(r=request))\n\n\n    # If we have only pyc files it means that\n    # we cannot design\n    if os.path.exists(apath(\'%s/compiled\' % app, r=request)):\n        session.flash = \\\n            T(\'application is compiled and cannot be designed\')\n        redirect(URL(\'site\'))\n\n    # Get all models\n    models = listdir(apath(\'%s/models/\' % app, r=request), \'.*\\.py$\')\n    models=[x.replace(\'\\\\\',\'/\') for x in models]\n    defines = {}\n    for m in models:\n        data = safe_read(apath(\'%s/models/%s\' % (app, m), r=request))\n        defines[m] = regex_tables.findall(data)\n        defines[m].sort()\n\n    # Get all controllers\n    controllers = sorted(listdir(apath(\'%s/controllers/\' % app, r=request), \'.*\\.py$\'))\n    controllers = [x.replace(\'\\\\\',\'/\') for x in controllers]\n    functions = {}\n    for c in controllers:\n        data = safe_read(apath(\'%s/controllers/%s\' % (app, c), r=request))\n        items = regex_expose.findall(data)\n        functions[c] = items\n\n    # Get all views\n    views = sorted(listdir(apath(\'%s/views/\' % app, r=request), \'[\\w/\\-]+(\\.\\w+)+$\'))\n    views = [x.replace(\'\\\\\',\'/\') for x in views if not x.endswith(\'.bak\')]\n    extend = {}\n    include = {}\n    for c in views:\n        data = safe_read(apath(\'%s/views/%s\' % (app, c), r=request))\n        items = regex_extend.findall(data)\n\n        if items:\n            extend[c] = items[0][1]\n\n        items = regex_include.findall(data)\n        include[c] = [i[1] for i in items]\n\n    # Get all modules\n    modules = listdir(apath(\'%s/modules/\' % app, r=request), \'.*\\.py$\')\n    modules = modules=[x.replace(\'\\\\\',\'/\') for x in modules]\n    modules.sort()\n\n    # Get all static files\n    statics = listdir(apath(\'%s/static/\' % app, r=request), \'[^\\.#].*\')\n    statics = [x.replace(\'\\\\\',\'/\') for x in statics]\n    statics.sort()\n\n    # Get all languages\n    languages = listdir(apath(\'%s/languages/\' % app, r=request), \'[\\w-]*\\.py\')\n\n    #Get crontab\n    cronfolder = apath(\'%s/cron\' % app, r=request)\n    if not os.path.exists(cronfolder): os.mkdir(cronfolder)\n    crontab = apath(\'%s/cron/crontab\' % app, r=request)\n    if not os.path.exists(crontab):\n        safe_write(crontab, \'#crontab\')\n\n    plugins=[]\n    def filter_plugins(items,plugins):\n        plugins+=[item[7:].split(\'/\')[0].split(\'.\')[0] for item in items if item.startswith(\'plugin_\')]\n        plugins[:]=list(set(plugins))\n        plugins.sort()\n        return [item for item in items if not item.startswith(\'plugin_\')]\n\n    return dict(app=app,\n                models=filter_plugins(models,plugins),\n                defines=defines,\n                controllers=filter_plugins(controllers,plugins),\n                functions=functions,\n                views=filter_plugins(views,plugins),\n                modules=filter_plugins(modules,plugins),\n                extend=extend,\n                include=include,\n                statics=filter_plugins(statics,plugins),\n                languages=languages,\n                crontab=crontab,\n                plugins=plugins)\n\ndef delete_plugin():\n    """ Object delete handler """\n    app=request.args(0)\n    plugin = request.args(1)\n    plugin_name=\'plugin_\'+plugin\n    if \'nodelete\' in request.vars:\n        redirect(URL(\'design\',args=app))\n    elif \'delete\' in request.vars:\n        try:\n            for folder in [\'models\',\'views\',\'controllers\',\'static\',\'modules\']:\n                path=os.path.join(apath(app,r=request),folder)\n                for item in os.listdir(path):\n                    if item.startswith(plugin_name):\n                        filename=os.path.join(path,item)\n                        if os.path.isdir(filename):\n                            shutil.rmtree(filename)\n                        else:\n                            os.unlink(filename)\n            session.flash = T(\'plugin "%(plugin)s" deleted\',\n                              dict(plugin=plugin))\n        except Exception:\n            session.flash = T(\'unable to delete file plugin "%(plugin)s"\',\n                              dict(plugin=plugin))\n        redirect(URL(\'design\',args=request.args(0)))\n    return dict(plugin=plugin)\n\ndef plugin():\n    """ Application design handler """\n    app = get_app()\n    plugin = request.args(1)\n\n    if not response.flash and app == request.application:\n        msg = T(\'ATTENTION: you cannot edit the running application!\')\n        response.flash = msg\n\n    # If we have only pyc files it means that\n    # we cannot design\n    if os.path.exists(apath(\'%s/compiled\' % app, r=request)):\n        session.flash = \\\n            T(\'application is compiled and cannot be designed\')\n        redirect(URL(\'site\'))\n\n    # Get all models\n    models = listdir(apath(\'%s/models/\' % app, r=request), \'.*\\.py$\')\n    models=[x.replace(\'\\\\\',\'/\') for x in models]\n    defines = {}\n    for m in models:\n        data = safe_read(apath(\'%s/models/%s\' % (app, m), r=request))\n        defines[m] = regex_tables.findall(data)\n        defines[m].sort()\n\n    # Get all controllers\n    controllers = sorted(listdir(apath(\'%s/controllers/\' % app, r=request), \'.*\\.py$\'))\n    controllers = [x.replace(\'\\\\\',\'/\') for x in controllers]\n    functions = {}\n    for c in controllers:\n        data = safe_read(apath(\'%s/controllers/%s\' % (app, c), r=request))\n        items = regex_expose.findall(data)\n        functions[c] = items\n\n    # Get all views\n    views = sorted(listdir(apath(\'%s/views/\' % app, r=request), \'[\\w/\\-]+\\.\\w+$\'))\n    views = [x.replace(\'\\\\\',\'/\') for x in views]\n    extend = {}\n    include = {}\n    for c in views:\n        data = safe_read(apath(\'%s/views/%s\' % (app, c), r=request))\n        items = regex_extend.findall(data)\n        if items:\n            extend[c] = items[0][1]\n\n        items = regex_include.findall(data)\n        include[c] = [i[1] for i in items]\n\n    # Get all modules\n    modules = listdir(apath(\'%s/modules/\' % app, r=request), \'.*\\.py$\')\n    modules = modules=[x.replace(\'\\\\\',\'/\') for x in modules]\n    modules.sort()\n\n    # Get all static files\n    statics = listdir(apath(\'%s/static/\' % app, r=request), \'[^\\.#].*\')\n    statics = [x.replace(\'\\\\\',\'/\') for x in statics]\n    statics.sort()\n\n    # Get all languages\n    languages = listdir(apath(\'%s/languages/\' % app, r=request), \'[\\w-]*\\.py\')\n\n    #Get crontab\n    crontab = apath(\'%s/cron/crontab\' % app, r=request)\n    if not os.path.exists(crontab):\n        safe_write(crontab, \'#crontab\')\n\n    def filter_plugins(items):\n        regex=re.compile(\'^plugin_\'+plugin+\'(/.*|\\..*)?$\')\n        return [item for item in items if regex.match(item)]\n\n    return dict(app=app,\n                models=filter_plugins(models),\n                defines=defines,\n                controllers=filter_plugins(controllers),\n                functions=functions,\n                views=filter_plugins(views),\n                modules=filter_plugins(modules),\n                extend=extend,\n                include=include,\n                statics=filter_plugins(statics),\n                languages=languages,\n                crontab=crontab)\n\n\ndef create_file():\n    """ Create files handler """\n    try:\n        app = get_app(name=request.vars.location.split(\'/\')[0])\n        path = apath(request.vars.location, r=request)\n        filename = re.sub(\'[^\\w./-]+\', \'_\', request.vars.filename)\n\n        if path[-11:] == \'/languages/\':\n            # Handle language files\n            if len(filename) == 0:\n                raise SyntaxError\n            if not filename[-3:] == \'.py\':\n                filename += \'.py\'\n            app = path.split(\'/\')[-3]\n            path=os.path.join(apath(app, r=request),\'languages\',filename)\n            if not os.path.exists(path):\n                safe_write(path, \'\')\n            findT(apath(app, r=request), filename[:-3])\n            session.flash = T(\'language file "%(filename)s" created/updated\',\n                              dict(filename=filename))\n            redirect(request.vars.sender)\n\n        elif path[-8:] == \'/models/\':\n            # Handle python models\n            if not filename[-3:] == \'.py\':\n                filename += \'.py\'\n\n            if len(filename) == 3:\n                raise SyntaxError\n\n            text = \'# coding: utf8\\n\'\n\n        elif path[-13:] == \'/controllers/\':\n            # Handle python controllers\n            if not filename[-3:] == \'.py\':\n                filename += \'.py\'\n\n            if len(filename) == 3:\n                raise SyntaxError\n\n            text = \'# coding: utf8\\n# %s\\ndef index(): return dict(message="hello from %s")\'\n            text = text % (T(\'try something like\'), filename)\n\n        elif path[-7:] == \'/views/\':\n            if request.vars.plugin and not filename.startswith(\'plugin_%s/\' % request.vars.plugin):\n                filename = \'plugin_%s/%s\' % (request.vars.plugin, filename)\n            # Handle template (html) views\n            if filename.find(\'.\')<0:\n                filename += \'.html\'\n            extension = filename.split(\'.\')[-1].lower()\n\n            if len(filename) == 5:\n                raise SyntaxError\n\n            msg = T(\'This is the %(filename)s template\',\n                    dict(filename=filename))            \n            if extension == \'html\':\n                text = dedent("""\n                   {{extend \'layout.html\'}}\n                   <h1>%s</h1>\n                   {{=BEAUTIFY(response._vars)}}""" % msg)\n            else:\n                generic = os.path.join(path,\'generic.\'+extension)\n                if os.path.exists(generic):\n                    text = read_file(generic)\n                else:\n                    text = \'\'\n                \n        elif path[-9:] == \'/modules/\':\n            if request.vars.plugin and not filename.startswith(\'plugin_%s/\' % request.vars.plugin):\n                filename = \'plugin_%s/%s\' % (request.vars.plugin, filename)\n            # Handle python module files\n            if not filename[-3:] == \'.py\':\n                filename += \'.py\'\n\n            if len(filename) == 3:\n                raise SyntaxError\n\n            text = dedent("""\n                   #!/usr/bin/env python\n                   # coding: utf8\n                   from gluon import *\\n""")\n\n        elif path[-8:] == \'/static/\':\n            if request.vars.plugin and not filename.startswith(\'plugin_%s/\' % request.vars.plugin):\n                filename = \'plugin_%s/%s\' % (request.vars.plugin, filename)\n            text = \'\'\n        else:\n            redirect(request.vars.sender)\n\n        full_filename = os.path.join(path, filename)\n        dirpath = os.path.dirname(full_filename)\n\n        if not os.path.exists(dirpath):\n            os.makedirs(dirpath)\n\n        if os.path.exists(full_filename):\n            raise SyntaxError\n\n        safe_write(full_filename, text)\n        session.flash = T(\'file "%(filename)s" created\',\n                          dict(filename=full_filename[len(path):]))\n        redirect(URL(\'edit\',\n                 args=[os.path.join(request.vars.location, filename)]))\n    except Exception, e:\n        if not isinstance(e,HTTP):\n            session.flash = T(\'cannot create file\')\n\n    redirect(request.vars.sender)\n\n\ndef upload_file():\n    """ File uploading handler """\n\n    try:\n        filename = None\n        app = get_app(name=request.vars.location.split(\'/\')[0])\n        path = apath(request.vars.location, r=request)\n\n        if request.vars.filename:\n            filename = re.sub(\'[^\\w\\./]+\', \'_\', request.vars.filename)\n        else:\n            filename = os.path.split(request.vars.file.filename)[-1]\n\n        if path[-8:] == \'/models/\' and not filename[-3:] == \'.py\':\n            filename += \'.py\'\n\n        if path[-9:] == \'/modules/\' and not filename[-3:] == \'.py\':\n            filename += \'.py\'\n\n        if path[-13:] == \'/controllers/\' and not filename[-3:] == \'.py\':\n            filename += \'.py\'\n\n        if path[-7:] == \'/views/\' and not filename[-5:] == \'.html\':\n            filename += \'.html\'\n\n        if path[-11:] == \'/languages/\' and not filename[-3:] == \'.py\':\n            filename += \'.py\'\n\n        filename = os.path.join(path, filename)\n        dirpath = os.path.dirname(filename)\n\n        if not os.path.exists(dirpath):\n            os.makedirs(dirpath)\n\n        safe_write(filename, request.vars.file.file.read(), \'wb\')\n        session.flash = T(\'file "%(filename)s" uploaded\',\n                          dict(filename=filename[len(path):]))\n    except Exception:\n        if filename:\n            d = dict(filename = filename[len(path):])\n        else:\n            d = dict(filename = \'unkown\')\n        session.flash = T(\'cannot upload file "%(filename)s"\', d)\n\n    redirect(request.vars.sender)\n\n\ndef errors():\n    """ Error handler """\n    import operator\n    import os\n    import pickle\n    import hashlib\n\n    app = get_app()\n\n    method = request.args(1) or \'new\'\n\n\n    if method == \'new\':\n        errors_path = apath(\'%s/errors\' % app, r=request)\n\n        delete_hashes = []\n        for item in request.vars:\n            if item[:7] == \'delete_\':\n                delete_hashes.append(item[7:])\n\n        hash2error = dict()\n\n        for fn in listdir(errors_path, \'^\\w.*\'):\n            fullpath = os.path.join(errors_path, fn)\n            if not os.path.isfile(fullpath): continue\n            try:\n                fullpath_file = open(fullpath, \'r\')\n                try:\n                    error = pickle.load(fullpath_file)\n                finally:\n                    fullpath_file.close()\n            except IOError:\n                continue\n\n            hash = hashlib.md5(error[\'traceback\']).hexdigest()\n\n            if hash in delete_hashes:\n                os.unlink(fullpath)\n            else:\n                try:\n                    hash2error[hash][\'count\'] += 1\n                except KeyError:\n                    error_lines = error[\'traceback\'].split("\\n")\n                    last_line = error_lines[-2]\n                    error_causer = os.path.split(error[\'layer\'])[1]\n                    hash2error[hash] = dict(count=1, pickel=error,\n                                            causer=error_causer,\n                                            last_line=last_line,\n                                            hash=hash,ticket=fn)\n\n        decorated = [(x[\'count\'], x) for x in hash2error.values()]\n        decorated.sort(key=operator.itemgetter(0), reverse=True)\n\n        return dict(errors = [x[1] for x in decorated], app=app, method=method)\n    else:\n        for item in request.vars:\n            if item[:7] == \'delete_\':\n                os.unlink(apath(\'%s/errors/%s\' % (app, item[7:]), r=request))\n        func = lambda p: os.stat(apath(\'%s/errors/%s\' % \\\n                                           (app, p), r=request)).st_mtime\n        tickets = sorted(listdir(apath(\'%s/errors/\' % app, r=request), \'^\\w.*\'),\n                         key=func,\n                         reverse=True)\n\n        return dict(app=app, tickets=tickets, method=method)\n\n\ndef make_link(path):\n    """ Create a link from a path """\n    tryFile = path.replace(\'\\\\\', \'/\')\n\n    if os.path.isabs(tryFile) and os.path.isfile(tryFile):\n        (folder, filename) = os.path.split(tryFile)\n        (base, ext) = os.path.splitext(filename)\n        app = get_app()\n\n        editable = {\'controllers\': \'.py\', \'models\': \'.py\', \'views\': \'.html\'}\n        for key in editable.keys():\n            check_extension = folder.endswith("%s/%s" % (app,key))\n            if ext.lower() == editable[key] and check_extension:\n                return A(\'"\' + tryFile + \'"\',\n                         _href=URL(r=request,\n                         f=\'edit/%s/%s/%s\' % (app, key, filename))).xml()\n    return \'\'\n\n\ndef make_links(traceback):\n    """ Make links using the given traceback """\n\n    lwords = traceback.split(\'"\')\n\n    # Making the short circuit compatible with <= python2.4\n    result = (len(lwords) != 0) and lwords[0] or \'\'\n\n    i = 1\n\n    while i < len(lwords):\n        link = make_link(lwords[i])\n\n        if link == \'\':\n            result += \'"\' + lwords[i]\n        else:\n            result += link\n\n            if i + 1 < len(lwords):\n                result += lwords[i + 1]\n                i = i + 1\n\n        i = i + 1\n\n    return result\n\n\nclass TRACEBACK(object):\n    """ Generate the traceback """\n\n    def __init__(self, text):\n        """ TRACEBACK constructor """\n\n        self.s = make_links(CODE(text).xml())\n\n    def xml(self):\n        """ Returns the xml """\n\n        return self.s\n\n\ndef ticket():\n    """ Ticket handler """\n\n    if len(request.args) != 2:\n        session.flash = T(\'invalid ticket\')\n        redirect(URL(\'site\'))\n\n    app = get_app()\n    myversion = request.env.web2py_version\n    ticket = request.args[1]\n    e = RestrictedError()\n    e.load(request, app, ticket)\n\n    return dict(app=app,\n                ticket=ticket,\n                output=e.output,\n                traceback=(e.traceback and TRACEBACK(e.traceback)),\n                snapshot=e.snapshot,\n                code=e.code,\n                layer=e.layer,\n                myversion=myversion)\n\ndef error():\n    """ Generate a ticket (for testing) """\n    raise RuntimeError(\'admin ticket generator at your service\')\n\ndef update_languages():\n    """ Update available languages """\n\n    app = get_app()\n    update_all_languages(apath(app, r=request))\n    session.flash = T(\'Language files (static strings) updated\')\n    redirect(URL(\'design\',args=app,anchor=\'languages\'))\n\ndef twitter():\n    session.forget()\n    session._unlock(response)\n    import gluon.tools\n    import gluon.contrib.simplejson as sj\n    try:\n        if TWITTER_HASH:\n            page = gluon.tools.fetch(\'http://twitter.com/%s?format=json\'%TWITTER_HASH)\n            return sj.loads(page)[\'#timeline\']\n        else:\n            return \'disabled\'\n    except Exception, e:\n        return DIV(T(\'Unable to download because:\'),BR(),str(e))\n\ndef user():\n    if MULTI_USER_MODE:\n        if not db(db.auth_user).count():\n            auth.settings.registration_requires_approval = False            \n        return dict(form=auth())\n    else:\n        return dict(form=T("Disabled"))\n\ndef reload_routes():\n    """ Reload routes.py """\n    import gluon.rewrite\n    gluon.rewrite.load()\n    redirect(URL(\'site\'))\n\nresponse._vars=response._caller(check_version)\n'
p6
sS'snapshot'
p7
(dp8
S'exception'
p9
(dp10
S'__hash__'
p11
S"<method-wrapper '__hash__' of exceptions.TypeError object at 0x04762BE8>"
p12
sS'__setattr__'
p13
S"<method-wrapper '__setattr__' of exceptions.TypeError object at 0x04762BE8>"
p14
sS'__reduce_ex__'
p15
S'<built-in method __reduce_ex__ of exceptions.TypeError object at 0x04762BE8>'
p16
sS'__getslice__'
p17
S"<method-wrapper '__getslice__' of exceptions.TypeError object at 0x04762BE8>"
p18
sS'__getitem__'
p19
S"<method-wrapper '__getitem__' of exceptions.TypeError object at 0x04762BE8>"
p20
sS'__setstate__'
p21
S'<built-in method __setstate__ of exceptions.TypeError object at 0x04762BE8>'
p22
sS'__reduce__'
p23
S'<built-in method __reduce__ of exceptions.TypeError object at 0x04762BE8>'
p24
sS'__str__'
p25
S"<method-wrapper '__str__' of exceptions.TypeError object at 0x04762BE8>"
p26
sS'args'
p27
S"('not all arguments converted during string formatting',)"
p28
sS'__getattribute__'
p29
S"<method-wrapper '__getattribute__' of exceptions.TypeError object at 0x04762BE8>"
p30
sS'__class__'
p31
S"<type 'exceptions.TypeError'>"
p32
sS'__delattr__'
p33
S"<method-wrapper '__delattr__' of exceptions.TypeError object at 0x04762BE8>"
p34
sS'__repr__'
p35
S"<method-wrapper '__repr__' of exceptions.TypeError object at 0x04762BE8>"
p36
sS'__dict__'
p37
S'{}'
p38
sS'__doc__'
p39
S"'Inappropriate argument type.'"
p40
sS'__init__'
p41
S"<method-wrapper '__init__' of exceptions.TypeError object at 0x04762BE8>"
p42
sS'__new__'
p43
S'<built-in method __new__ of type object at 0x1E1CCD78>'
p44
ssS'evalue'
p45
S'not all arguments converted during string formatting'
p46
sS'request'
p47
ccopy_reg
_reconstructor
p48
(cgluon.html
BEAUTIFY
p49
c__builtin__
object
p50
NtRp51
(dp52
S'attributes'
p53
(dp54
sS'components'
p55
(lp56
g48
(cgluon.html
TABLE
p57
g50
NtRp58
(dp59
g53
(dp60
S'level'
p61
I5
ssS'parent'
p62
Nsg55
(lp63
g48
(cgluon.html
TR
p64
g50
NtRp65
(dp66
g53
(dp67
sg62
g58
sg55
(lp68
g48
(cgluon.html
TD
p69
g50
NtRp70
(dp71
g53
(dp72
S'_style'
p73
S'font-weight:bold;'
p74
ssg62
g65
sg55
(lp75
S'ajax'
p76
asbag48
(g69
g50
NtRp77
(dp78
g53
(dp79
S'_valign'
p80
S'top'
p81
ssg62
g65
sg55
(lp82
S':'
asbag48
(g69
g50
NtRp83
(dp84
g53
(dp85
sg62
g65
sg55
(lp86
g48
(g49
g50
NtRp87
(dp88
g53
(dp89
g61
I5
ssg62
g83
sg55
(lp90
S'True'
p91
asbasbasbag48
(g64
g50
NtRp92
(dp93
g53
(dp94
sg62
g58
sg55
(lp95
g48
(g69
g50
NtRp96
(dp97
g53
(dp98
g73
g74
ssg62
g92
sg55
(lp99
S'application'
p100
asbag48
(g69
g50
NtRp101
(dp102
g53
(dp103
g80
g81
ssg62
g92
sg55
(lp104
S':'
asbag48
(g69
g50
NtRp105
(dp106
g53
(dp107
sg62
g92
sg55
(lp108
g48
(g49
g50
NtRp109
(dp110
g53
(dp111
g61
I5
ssg62
g105
sg55
(lp112
S'admin'
p113
asbasbasbag48
(g64
g50
NtRp114
(dp115
g53
(dp116
sg62
g58
sg55
(lp117
g48
(g69
g50
NtRp118
(dp119
g53
(dp120
g73
g74
ssg62
g114
sg55
(lp121
g27
asbag48
(g69
g50
NtRp122
(dp123
g53
(dp124
g80
g81
ssg62
g114
sg55
(lp125
S':'
asbag48
(g69
g50
NtRp126
(dp127
g53
(dp128
sg62
g114
sg55
(lp129
g48
(g49
g50
NtRp130
(dp131
g53
(dp132
g61
I5
ssg62
g126
sg55
(lp133
g48
(g57
g50
NtRp134
(dp135
g53
(dp136
g61
I4
ssg62
Nsg55
(lp137
sbasbasbasbag48
(g64
g50
NtRp138
(dp139
g53
(dp140
sg62
g58
sg55
(lp141
g48
(g69
g50
NtRp142
(dp143
g53
(dp144
g73
g74
ssg62
g138
sg55
(lp145
S'body'
p146
asbag48
(g69
g50
NtRp147
(dp148
g53
(dp149
g80
g81
ssg62
g138
sg55
(lp150
S':'
asbag48
(g69
g50
NtRp151
(dp152
g53
(dp153
sg62
g138
sg55
(lp154
g48
(g49
g50
NtRp155
(dp156
g53
(dp157
g61
I5
ssg62
g151
sg55
(lp158
S"<open file '<fdopen>', mode 'w+b' at 0x0441E2A8>"
p159
asbasbasbag48
(g64
g50
NtRp160
(dp161
g53
(dp162
sg62
g58
sg55
(lp163
g48
(g69
g50
NtRp164
(dp165
g53
(dp166
g73
g74
ssg62
g160
sg55
(lp167
S'client'
p168
asbag48
(g69
g50
NtRp169
(dp170
g53
(dp171
g80
g81
ssg62
g160
sg55
(lp172
S':'
asbag48
(g69
g50
NtRp173
(dp174
g53
(dp175
sg62
g160
sg55
(lp176
g48
(g49
g50
NtRp177
(dp178
g53
(dp179
g61
I5
ssg62
g173
sg55
(lp180
S'127.0.0.1'
p181
asbasbasbag48
(g64
g50
NtRp182
(dp183
g53
(dp184
sg62
g58
sg55
(lp185
g48
(g69
g50
NtRp186
(dp187
g53
(dp188
g73
g74
ssg62
g182
sg55
(lp189
S'controller'
p190
asbag48
(g69
g50
NtRp191
(dp192
g53
(dp193
g80
g81
ssg62
g182
sg55
(lp194
S':'
asbag48
(g69
g50
NtRp195
(dp196
g53
(dp197
sg62
g182
sg55
(lp198
g48
(g49
g50
NtRp199
(dp200
g53
(dp201
g61
I5
ssg62
g195
sg55
(lp202
S'default'
p203
asbasbasbag48
(g64
g50
NtRp204
(dp205
g53
(dp206
sg62
g58
sg55
(lp207
g48
(g69
g50
NtRp208
(dp209
g53
(dp210
g73
g74
ssg62
g204
sg55
(lp211
S'cookies'
p212
asbag48
(g69
g50
NtRp213
(dp214
g53
(dp215
g80
g81
ssg62
g204
sg55
(lp216
S':'
asbag48
(g69
g50
NtRp217
(dp218
g53
(dp219
sg62
g204
sg55
(lp220
g48
(g49
g50
NtRp221
(dp222
g53
(dp223
g61
I5
ssg62
g217
sg55
(lp224
g48
(g57
g50
NtRp225
(dp226
g53
(dp227
g61
I4
ssg62
Nsg55
(lp228
g48
(g64
g50
NtRp229
(dp230
g53
(dp231
sg62
g225
sg55
(lp232
g48
(g69
g50
NtRp233
(dp234
g53
(dp235
g73
g74
ssg62
g229
sg55
(lp236
S'session_id_admin'
p237
asbag48
(g69
g50
NtRp238
(dp239
g53
(dp240
g80
g81
ssg62
g229
sg55
(lp241
S':'
asbag48
(g69
g50
NtRp242
(dp243
g53
(dp244
sg62
g229
sg55
(lp245
g48
(g49
g50
NtRp246
(dp247
g53
(dp248
g61
I4
ssg62
g242
sg55
(lp249
g48
(g57
g50
NtRp250
(dp251
g53
(dp252
g61
I3
ssg62
Nsg55
(lp253
g48
(g64
g50
NtRp254
(dp255
g53
(dp256
sg62
g250
sg55
(lp257
g48
(g69
g50
NtRp258
(dp259
g53
(dp260
g73
g74
ssg62
g254
sg55
(lp261
S'comment'
p262
asbag48
(g69
g50
NtRp263
(dp264
g53
(dp265
g80
g81
ssg62
g254
sg55
(lp266
S':'
asbag48
(g69
g50
NtRp267
(dp268
g53
(dp269
sg62
g254
sg55
(lp270
g48
(g49
g50
NtRp271
(dp272
g53
(dp273
g61
I3
ssg62
g267
sg55
(lp274
S''
asbasbasbag48
(g64
g50
NtRp275
(dp276
g53
(dp277
sg62
g250
sg55
(lp278
g48
(g69
g50
NtRp279
(dp280
g53
(dp281
g73
g74
ssg62
g275
sg55
(lp282
S'domain'
p283
asbag48
(g69
g50
NtRp284
(dp285
g53
(dp286
g80
g81
ssg62
g275
sg55
(lp287
S':'
asbag48
(g69
g50
NtRp288
(dp289
g53
(dp290
sg62
g275
sg55
(lp291
g48
(g49
g50
NtRp292
(dp293
g53
(dp294
g61
I3
ssg62
g288
sg55
(lp295
S''
asbasbasbag48
(g64
g50
NtRp296
(dp297
g53
(dp298
sg62
g250
sg55
(lp299
g48
(g69
g50
NtRp300
(dp301
g53
(dp302
g73
g74
ssg62
g296
sg55
(lp303
S'expires'
p304
asbag48
(g69
g50
NtRp305
(dp306
g53
(dp307
g80
g81
ssg62
g296
sg55
(lp308
S':'
asbag48
(g69
g50
NtRp309
(dp310
g53
(dp311
sg62
g296
sg55
(lp312
g48
(g49
g50
NtRp313
(dp314
g53
(dp315
g61
I3
ssg62
g309
sg55
(lp316
S''
asbasbasbag48
(g64
g50
NtRp317
(dp318
g53
(dp319
sg62
g250
sg55
(lp320
g48
(g69
g50
NtRp321
(dp322
g53
(dp323
g73
g74
ssg62
g317
sg55
(lp324
S'max-age'
p325
asbag48
(g69
g50
NtRp326
(dp327
g53
(dp328
g80
g81
ssg62
g317
sg55
(lp329
S':'
asbag48
(g69
g50
NtRp330
(dp331
g53
(dp332
sg62
g317
sg55
(lp333
g48
(g49
g50
NtRp334
(dp335
g53
(dp336
g61
I3
ssg62
g330
sg55
(lp337
S''
asbasbasbag48
(g64
g50
NtRp338
(dp339
g53
(dp340
sg62
g250
sg55
(lp341
g48
(g69
g50
NtRp342
(dp343
g53
(dp344
g73
g74
ssg62
g338
sg55
(lp345
S'path'
p346
asbag48
(g69
g50
NtRp347
(dp348
g53
(dp349
g80
g81
ssg62
g338
sg55
(lp350
S':'
asbag48
(g69
g50
NtRp351
(dp352
g53
(dp353
sg62
g338
sg55
(lp354
g48
(g49
g50
NtRp355
(dp356
g53
(dp357
g61
I3
ssg62
g351
sg55
(lp358
S''
asbasbasbag48
(g64
g50
NtRp359
(dp360
g53
(dp361
sg62
g250
sg55
(lp362
g48
(g69
g50
NtRp363
(dp364
g53
(dp365
g73
g74
ssg62
g359
sg55
(lp366
S'secure'
p367
asbag48
(g69
g50
NtRp368
(dp369
g53
(dp370
g80
g81
ssg62
g359
sg55
(lp371
S':'
asbag48
(g69
g50
NtRp372
(dp373
g53
(dp374
sg62
g359
sg55
(lp375
g48
(g49
g50
NtRp376
(dp377
g53
(dp378
g61
I3
ssg62
g372
sg55
(lp379
S''
asbasbasbag48
(g64
g50
NtRp380
(dp381
g53
(dp382
sg62
g250
sg55
(lp383
g48
(g69
g50
NtRp384
(dp385
g53
(dp386
g73
g74
ssg62
g380
sg55
(lp387
S'version'
p388
asbag48
(g69
g50
NtRp389
(dp390
g53
(dp391
g80
g81
ssg62
g380
sg55
(lp392
S':'
asbag48
(g69
g50
NtRp393
(dp394
g53
(dp395
sg62
g380
sg55
(lp396
g48
(g49
g50
NtRp397
(dp398
g53
(dp399
g61
I3
ssg62
g393
sg55
(lp400
S''
asbasbasbasbasbasbasbag48
(g64
g50
NtRp401
(dp402
g53
(dp403
sg62
g225
sg55
(lp404
g48
(g69
g50
NtRp405
(dp406
g53
(dp407
g73
g74
ssg62
g401
sg55
(lp408
S'session_id_ojtest'
p409
asbag48
(g69
g50
NtRp410
(dp411
g53
(dp412
g80
g81
ssg62
g401
sg55
(lp413
S':'
asbag48
(g69
g50
NtRp414
(dp415
g53
(dp416
sg62
g401
sg55
(lp417
g48
(g49
g50
NtRp418
(dp419
g53
(dp420
g61
I4
ssg62
g414
sg55
(lp421
g48
(g57
g50
NtRp422
(dp423
g53
(dp424
g61
I3
ssg62
Nsg55
(lp425
g48
(g64
g50
NtRp426
(dp427
g53
(dp428
sg62
g422
sg55
(lp429
g48
(g69
g50
NtRp430
(dp431
g53
(dp432
g73
g74
ssg62
g426
sg55
(lp433
g262
asbag48
(g69
g50
NtRp434
(dp435
g53
(dp436
g80
g81
ssg62
g426
sg55
(lp437
S':'
asbag48
(g69
g50
NtRp438
(dp439
g53
(dp440
sg62
g426
sg55
(lp441
g48
(g49
g50
NtRp442
(dp443
g53
(dp444
g61
I3
ssg62
g438
sg55
(lp445
S''
asbasbasbag48
(g64
g50
NtRp446
(dp447
g53
(dp448
sg62
g422
sg55
(lp449
g48
(g69
g50
NtRp450
(dp451
g53
(dp452
g73
g74
ssg62
g446
sg55
(lp453
g283
asbag48
(g69
g50
NtRp454
(dp455
g53
(dp456
g80
g81
ssg62
g446
sg55
(lp457
S':'
asbag48
(g69
g50
NtRp458
(dp459
g53
(dp460
sg62
g446
sg55
(lp461
g48
(g49
g50
NtRp462
(dp463
g53
(dp464
g61
I3
ssg62
g458
sg55
(lp465
S''
asbasbasbag48
(g64
g50
NtRp466
(dp467
g53
(dp468
sg62
g422
sg55
(lp469
g48
(g69
g50
NtRp470
(dp471
g53
(dp472
g73
g74
ssg62
g466
sg55
(lp473
g304
asbag48
(g69
g50
NtRp474
(dp475
g53
(dp476
g80
g81
ssg62
g466
sg55
(lp477
S':'
asbag48
(g69
g50
NtRp478
(dp479
g53
(dp480
sg62
g466
sg55
(lp481
g48
(g49
g50
NtRp482
(dp483
g53
(dp484
g61
I3
ssg62
g478
sg55
(lp485
S''
asbasbasbag48
(g64
g50
NtRp486
(dp487
g53
(dp488
sg62
g422
sg55
(lp489
g48
(g69
g50
NtRp490
(dp491
g53
(dp492
g73
g74
ssg62
g486
sg55
(lp493
g325
asbag48
(g69
g50
NtRp494
(dp495
g53
(dp496
g80
g81
ssg62
g486
sg55
(lp497
S':'
asbag48
(g69
g50
NtRp498
(dp499
g53
(dp500
sg62
g486
sg55
(lp501
g48
(g49
g50
NtRp502
(dp503
g53
(dp504
g61
I3
ssg62
g498
sg55
(lp505
S''
asbasbasbag48
(g64
g50
NtRp506
(dp507
g53
(dp508
sg62
g422
sg55
(lp509
g48
(g69
g50
NtRp510
(dp511
g53
(dp512
g73
g74
ssg62
g506
sg55
(lp513
g346
asbag48
(g69
g50
NtRp514
(dp515
g53
(dp516
g80
g81
ssg62
g506
sg55
(lp517
S':'
asbag48
(g69
g50
NtRp518
(dp519
g53
(dp520
sg62
g506
sg55
(lp521
g48
(g49
g50
NtRp522
(dp523
g53
(dp524
g61
I3
ssg62
g518
sg55
(lp525
S''
asbasbasbag48
(g64
g50
NtRp526
(dp527
g53
(dp528
sg62
g422
sg55
(lp529
g48
(g69
g50
NtRp530
(dp531
g53
(dp532
g73
g74
ssg62
g526
sg55
(lp533
g367
asbag48
(g69
g50
NtRp534
(dp535
g53
(dp536
g80
g81
ssg62
g526
sg55
(lp537
S':'
asbag48
(g69
g50
NtRp538
(dp539
g53
(dp540
sg62
g526
sg55
(lp541
g48
(g49
g50
NtRp542
(dp543
g53
(dp544
g61
I3
ssg62
g538
sg55
(lp545
S''
asbasbasbag48
(g64
g50
NtRp546
(dp547
g53
(dp548
sg62
g422
sg55
(lp549
g48
(g69
g50
NtRp550
(dp551
g53
(dp552
g73
g74
ssg62
g546
sg55
(lp553
g388
asbag48
(g69
g50
NtRp554
(dp555
g53
(dp556
g80
g81
ssg62
g546
sg55
(lp557
S':'
asbag48
(g69
g50
NtRp558
(dp559
g53
(dp560
sg62
g546
sg55
(lp561
g48
(g49
g50
NtRp562
(dp563
g53
(dp564
g61
I3
ssg62
g558
sg55
(lp565
S''
asbasbasbasbasbasbasbasbasbasbasbag48
(g64
g50
NtRp566
(dp567
g53
(dp568
sg62
g58
sg55
(lp569
g48
(g69
g50
NtRp570
(dp571
g53
(dp572
g73
g74
ssg62
g566
sg55
(lp573
S'env'
p574
asbag48
(g69
g50
NtRp575
(dp576
g53
(dp577
g80
g81
ssg62
g566
sg55
(lp578
S':'
asbag48
(g69
g50
NtRp579
(dp580
g53
(dp581
sg62
g566
sg55
(lp582
g48
(g49
g50
NtRp583
(dp584
g53
(dp585
g61
I5
ssg62
g579
sg55
(lp586
g48
(g57
g50
NtRp587
(dp588
g53
(dp589
g61
I4
ssg62
Nsg55
(lp590
g48
(g64
g50
NtRp591
(dp592
g53
(dp593
sg62
g587
sg55
(lp594
g48
(g69
g50
NtRp595
(dp596
g53
(dp597
g73
g74
ssg62
g591
sg55
(lp598
S'app_folders'
p599
asbag48
(g69
g50
NtRp600
(dp601
g53
(dp602
g80
g81
ssg62
g591
sg55
(lp603
S':'
asbag48
(g69
g50
NtRp604
(dp605
g53
(dp606
sg62
g591
sg55
(lp607
g48
(g49
g50
NtRp608
(dp609
g53
(dp610
g61
I4
ssg62
g604
sg55
(lp611
S"set(['D:\\\\Dropbox\\\\Eclipse\\\\OJDevSourceProject\\\\project\\\\web2py\\\\applications\\\\admin\\\\', 'D:\\\\Dropbox\\\\Eclipse\\\\OJDevSourceProject\\\\project\\\\web2py\\\\applications\\\\OJTest\\\\', 'D:\\\\Dropbox\\\\Eclipse\\\\OJDevSourceProject\\\\project\\\\web2py\\\\applications\\\\ojtest\\\\'])"
p612
asbasbasbag48
(g64
g50
NtRp613
(dp614
g53
(dp615
sg62
g587
sg55
(lp616
g48
(g69
g50
NtRp617
(dp618
g53
(dp619
g73
g74
ssg62
g613
sg55
(lp620
S'applications_parent'
p621
asbag48
(g69
g50
NtRp622
(dp623
g53
(dp624
g80
g81
ssg62
g613
sg55
(lp625
S':'
asbag48
(g69
g50
NtRp626
(dp627
g53
(dp628
sg62
g613
sg55
(lp629
g48
(g49
g50
NtRp630
(dp631
g53
(dp632
g61
I4
ssg62
g626
sg55
(lp633
S'D:\\Dropbox\\Eclipse\\OJDevSourceProject\\project\\web2py'
p634
asbasbasbag48
(g64
g50
NtRp635
(dp636
g53
(dp637
sg62
g587
sg55
(lp638
g48
(g69
g50
NtRp639
(dp640
g53
(dp641
g73
g74
ssg62
g635
sg55
(lp642
S'cmd_args'
p643
asbag48
(g69
g50
NtRp644
(dp645
g53
(dp646
g80
g81
ssg62
g635
sg55
(lp647
S':'
asbag48
(g69
g50
NtRp648
(dp649
g53
(dp650
sg62
g635
sg55
(lp651
g48
(g49
g50
NtRp652
(dp653
g53
(dp654
g61
I4
ssg62
g648
sg55
(lp655
g48
(g57
g50
NtRp656
(dp657
g53
(dp658
g61
I3
ssg62
Nsg55
(lp659
sbasbasbasbag48
(g64
g50
NtRp660
(dp661
g53
(dp662
sg62
g587
sg55
(lp663
g48
(g69
g50
NtRp664
(dp665
g53
(dp666
g73
g74
ssg62
g660
sg55
(lp667
S'cmd_options'
p668
asbag48
(g69
g50
NtRp669
(dp670
g53
(dp671
g80
g81
ssg62
g660
sg55
(lp672
S':'
asbag48
(g69
g50
NtRp673
(dp674
g53
(dp675
sg62
g660
sg55
(lp676
g48
(g49
g50
NtRp677
(dp678
g53
(dp679
g61
I4
ssg62
g673
sg55
(lp680
S"<Values at 0x3528be8: {'verbose': False, 'ip': '127.0.0.1', 'shutdown_timeout': 5, 'taskbar': False, 'nocron': False, 'pid_filename': 'httpserver.pid', 'maxthreads': None, 'softcron': False, 'server_name': 'John-PC', 'bpython': False, 'nogui': False, 'port': 8000, 'extcron': False, 'debuglevel': 30, 'test': None, 'folder': 'D:\\\\Dropbox\\\\Eclipse\\\\OJDevSourceProject\\\\project\\\\web2py', 'config': '', 'import_models': False, 'winservice': '', 'shell': None, 'run': '', 'log_filename': 'httpserver.log', 'args': [''], 'ssl_ca_certificate': None, 'scheduler': None, 'profiler_filename': None, 'ssl_private_key': '', 'password': '<ask>', 'request_queue_size': 5, 'ssl_certificate': '', 'cronjob': False, 'plain': False, 'quiet': False, 'interfaces': None, 'minthreads': None, 'timeout': 10, 'numthreads': None, 'nobanner': False}>"
p681
asbasbasbag48
(g64
g50
NtRp682
(dp683
g53
(dp684
sg62
g587
sg55
(lp685
g48
(g69
g50
NtRp686
(dp687
g53
(dp688
g73
g74
ssg62
g682
sg55
(lp689
S'content_length'
p690
asbag48
(g69
g50
NtRp691
(dp692
g53
(dp693
g80
g81
ssg62
g682
sg55
(lp694
S':'
asbag48
(g69
g50
NtRp695
(dp696
g53
(dp697
sg62
g682
sg55
(lp698
g48
(g49
g50
NtRp699
(dp700
g53
(dp701
g61
I4
ssg62
g695
sg55
(lp702
S'0'
asbasbasbag48
(g64
g50
NtRp703
(dp704
g53
(dp705
sg62
g587
sg55
(lp706
g48
(g69
g50
NtRp707
(dp708
g53
(dp709
g73
g74
ssg62
g703
sg55
(lp710
S'db_sessions'
p711
asbag48
(g69
g50
NtRp712
(dp713
g53
(dp714
g80
g81
ssg62
g703
sg55
(lp715
S':'
asbag48
(g69
g50
NtRp716
(dp717
g53
(dp718
sg62
g703
sg55
(lp719
g48
(g49
g50
NtRp720
(dp721
g53
(dp722
g61
I4
ssg62
g716
sg55
(lp723
S'set([])'
p724
asbasbasbag48
(g64
g50
NtRp725
(dp726
g53
(dp727
sg62
g587
sg55
(lp728
g48
(g69
g50
NtRp729
(dp730
g53
(dp731
g73
g74
ssg62
g725
sg55
(lp732
S'debugging'
p733
asbag48
(g69
g50
NtRp734
(dp735
g53
(dp736
g80
g81
ssg62
g725
sg55
(lp737
S':'
asbag48
(g69
g50
NtRp738
(dp739
g53
(dp740
sg62
g725
sg55
(lp741
g48
(g49
g50
NtRp742
(dp743
g53
(dp744
g61
I4
ssg62
g738
sg55
(lp745
S'False'
p746
asbasbasbag48
(g64
g50
NtRp747
(dp748
g53
(dp749
sg62
g587
sg55
(lp750
g48
(g69
g50
NtRp751
(dp752
g53
(dp753
g73
g74
ssg62
g747
sg55
(lp754
S'gluon_parent'
p755
asbag48
(g69
g50
NtRp756
(dp757
g53
(dp758
g80
g81
ssg62
g747
sg55
(lp759
S':'
asbag48
(g69
g50
NtRp760
(dp761
g53
(dp762
sg62
g747
sg55
(lp763
g48
(g49
g50
NtRp764
(dp765
g53
(dp766
g61
I4
ssg62
g760
sg55
(lp767
S'D:\\Dropbox\\Eclipse\\OJDevSourceProject\\project\\web2py'
p768
asbasbasbag48
(g64
g50
NtRp769
(dp770
g53
(dp771
sg62
g587
sg55
(lp772
g48
(g69
g50
NtRp773
(dp774
g53
(dp775
g73
g74
ssg62
g769
sg55
(lp776
S'http_accept'
p777
asbag48
(g69
g50
NtRp778
(dp779
g53
(dp780
g80
g81
ssg62
g769
sg55
(lp781
S':'
asbag48
(g69
g50
NtRp782
(dp783
g53
(dp784
sg62
g769
sg55
(lp785
g48
(g49
g50
NtRp786
(dp787
g53
(dp788
g61
I4
ssg62
g782
sg55
(lp789
S'*/*'
p790
asbasbasbag48
(g64
g50
NtRp791
(dp792
g53
(dp793
sg62
g587
sg55
(lp794
g48
(g69
g50
NtRp795
(dp796
g53
(dp797
g73
g74
ssg62
g791
sg55
(lp798
S'http_accept_charset'
p799
asbag48
(g69
g50
NtRp800
(dp801
g53
(dp802
g80
g81
ssg62
g791
sg55
(lp803
S':'
asbag48
(g69
g50
NtRp804
(dp805
g53
(dp806
sg62
g791
sg55
(lp807
g48
(g49
g50
NtRp808
(dp809
g53
(dp810
g61
I4
ssg62
g804
sg55
(lp811
S'ISO-8859-1,utf-8;q=0.7,*;q=0.3'
p812
asbasbasbag48
(g64
g50
NtRp813
(dp814
g53
(dp815
sg62
g587
sg55
(lp816
g48
(g69
g50
NtRp817
(dp818
g53
(dp819
g73
g74
ssg62
g813
sg55
(lp820
S'http_accept_encoding'
p821
asbag48
(g69
g50
NtRp822
(dp823
g53
(dp824
g80
g81
ssg62
g813
sg55
(lp825
S':'
asbag48
(g69
g50
NtRp826
(dp827
g53
(dp828
sg62
g813
sg55
(lp829
g48
(g49
g50
NtRp830
(dp831
g53
(dp832
g61
I4
ssg62
g826
sg55
(lp833
S'gzip,deflate,sdch'
p834
asbasbasbag48
(g64
g50
NtRp835
(dp836
g53
(dp837
sg62
g587
sg55
(lp838
g48
(g69
g50
NtRp839
(dp840
g53
(dp841
g73
g74
ssg62
g835
sg55
(lp842
S'http_accept_language'
p843
asbag48
(g69
g50
NtRp844
(dp845
g53
(dp846
g80
g81
ssg62
g835
sg55
(lp847
S':'
asbag48
(g69
g50
NtRp848
(dp849
g53
(dp850
sg62
g835
sg55
(lp851
g48
(g49
g50
NtRp852
(dp853
g53
(dp854
g61
I4
ssg62
g848
sg55
(lp855
S'en-US,en;q=0.8'
p856
asbasbasbag48
(g64
g50
NtRp857
(dp858
g53
(dp859
sg62
g587
sg55
(lp860
g48
(g69
g50
NtRp861
(dp862
g53
(dp863
g73
g74
ssg62
g857
sg55
(lp864
S'http_connection'
p865
asbag48
(g69
g50
NtRp866
(dp867
g53
(dp868
g80
g81
ssg62
g857
sg55
(lp869
S':'
asbag48
(g69
g50
NtRp870
(dp871
g53
(dp872
sg62
g857
sg55
(lp873
g48
(g49
g50
NtRp874
(dp875
g53
(dp876
g61
I4
ssg62
g870
sg55
(lp877
S'keep-alive'
p878
asbasbasbag48
(g64
g50
NtRp879
(dp880
g53
(dp881
sg62
g587
sg55
(lp882
g48
(g69
g50
NtRp883
(dp884
g53
(dp885
g73
g74
ssg62
g879
sg55
(lp886
S'http_content_length'
p887
asbag48
(g69
g50
NtRp888
(dp889
g53
(dp890
g80
g81
ssg62
g879
sg55
(lp891
S':'
asbag48
(g69
g50
NtRp892
(dp893
g53
(dp894
sg62
g879
sg55
(lp895
g48
(g49
g50
NtRp896
(dp897
g53
(dp898
g61
I4
ssg62
g892
sg55
(lp899
S'0'
asbasbasbag48
(g64
g50
NtRp900
(dp901
g53
(dp902
sg62
g587
sg55
(lp903
g48
(g69
g50
NtRp904
(dp905
g53
(dp906
g73
g74
ssg62
g900
sg55
(lp907
S'http_cookie'
p908
asbag48
(g69
g50
NtRp909
(dp910
g53
(dp911
g80
g81
ssg62
g900
sg55
(lp912
S':'
asbag48
(g69
g50
NtRp913
(dp914
g53
(dp915
sg62
g900
sg55
(lp916
g48
(g49
g50
NtRp917
(dp918
g53
(dp919
g61
I4
ssg62
g913
sg55
(lp920
S'session_id_ojtest=127.0.0.1-b209f467-7054-4f15-b529-229b100db12b; session_id_admin=127.0.0.1-4d97c160-9cf8-4b46-a79e-1902d9276e64'
p921
asbasbasbag48
(g64
g50
NtRp922
(dp923
g53
(dp924
sg62
g587
sg55
(lp925
g48
(g69
g50
NtRp926
(dp927
g53
(dp928
g73
g74
ssg62
g922
sg55
(lp929
S'http_host'
p930
asbag48
(g69
g50
NtRp931
(dp932
g53
(dp933
g80
g81
ssg62
g922
sg55
(lp934
S':'
asbag48
(g69
g50
NtRp935
(dp936
g53
(dp937
sg62
g922
sg55
(lp938
g48
(g49
g50
NtRp939
(dp940
g53
(dp941
g61
I4
ssg62
g935
sg55
(lp942
S'127.0.0.1:8000'
p943
asbasbasbag48
(g64
g50
NtRp944
(dp945
g53
(dp946
sg62
g587
sg55
(lp947
g48
(g69
g50
NtRp948
(dp949
g53
(dp950
g73
g74
ssg62
g944
sg55
(lp951
S'http_origin'
p952
asbag48
(g69
g50
NtRp953
(dp954
g53
(dp955
g80
g81
ssg62
g944
sg55
(lp956
S':'
asbag48
(g69
g50
NtRp957
(dp958
g53
(dp959
sg62
g944
sg55
(lp960
g48
(g49
g50
NtRp961
(dp962
g53
(dp963
g61
I4
ssg62
g957
sg55
(lp964
S'http://127.0.0.1:8000'
p965
asbasbasbag48
(g64
g50
NtRp966
(dp967
g53
(dp968
sg62
g587
sg55
(lp969
g48
(g69
g50
NtRp970
(dp971
g53
(dp972
g73
g74
ssg62
g966
sg55
(lp973
S'http_referer'
p974
asbag48
(g69
g50
NtRp975
(dp976
g53
(dp977
g80
g81
ssg62
g966
sg55
(lp978
S':'
asbag48
(g69
g50
NtRp979
(dp980
g53
(dp981
sg62
g966
sg55
(lp982
g48
(g49
g50
NtRp983
(dp984
g53
(dp985
g61
I4
ssg62
g979
sg55
(lp986
S'http://127.0.0.1:8000/admin/default/site'
p987
asbasbasbag48
(g64
g50
NtRp988
(dp989
g53
(dp990
sg62
g587
sg55
(lp991
g48
(g69
g50
NtRp992
(dp993
g53
(dp994
g73
g74
ssg62
g988
sg55
(lp995
S'http_user_agent'
p996
asbag48
(g69
g50
NtRp997
(dp998
g53
(dp999
g80
g81
ssg62
g988
sg55
(lp1000
S':'
asbag48
(g69
g50
NtRp1001
(dp1002
g53
(dp1003
sg62
g988
sg55
(lp1004
g48
(g49
g50
NtRp1005
(dp1006
g53
(dp1007
g61
I4
ssg62
g1001
sg55
(lp1008
S'Mozilla/5.0 (Windows NT 6.1; WOW64) AppleWebKit/535.7 (KHTML, like Gecko) Chrome/16.0.912.75 Safari/535.7'
p1009
asbasbasbag48
(g64
g50
NtRp1010
(dp1011
g53
(dp1012
sg62
g587
sg55
(lp1013
g48
(g69
g50
NtRp1014
(dp1015
g53
(dp1016
g73
g74
ssg62
g1010
sg55
(lp1017
S'http_x_requested_with'
p1018
asbag48
(g69
g50
NtRp1019
(dp1020
g53
(dp1021
g80
g81
ssg62
g1010
sg55
(lp1022
S':'
asbag48
(g69
g50
NtRp1023
(dp1024
g53
(dp1025
sg62
g1010
sg55
(lp1026
g48
(g49
g50
NtRp1027
(dp1028
g53
(dp1029
g61
I4
ssg62
g1023
sg55
(lp1030
S'XMLHttpRequest'
p1031
asbasbasbag48
(g64
g50
NtRp1032
(dp1033
g53
(dp1034
sg62
g587
sg55
(lp1035
g48
(g69
g50
NtRp1036
(dp1037
g53
(dp1038
g73
g74
ssg62
g1032
sg55
(lp1039
S'is_jython'
p1040
asbag48
(g69
g50
NtRp1041
(dp1042
g53
(dp1043
g80
g81
ssg62
g1032
sg55
(lp1044
S':'
asbag48
(g69
g50
NtRp1045
(dp1046
g53
(dp1047
sg62
g1032
sg55
(lp1048
g48
(g49
g50
NtRp1049
(dp1050
g53
(dp1051
g61
I4
ssg62
g1045
sg55
(lp1052
g746
asbasbasbag48
(g64
g50
NtRp1053
(dp1054
g53
(dp1055
sg62
g587
sg55
(lp1056
g48
(g69
g50
NtRp1057
(dp1058
g53
(dp1059
g73
g74
ssg62
g1053
sg55
(lp1060
S'path_info'
p1061
asbag48
(g69
g50
NtRp1062
(dp1063
g53
(dp1064
g80
g81
ssg62
g1053
sg55
(lp1065
S':'
asbag48
(g69
g50
NtRp1066
(dp1067
g53
(dp1068
sg62
g1053
sg55
(lp1069
g48
(g49
g50
NtRp1070
(dp1071
g53
(dp1072
g61
I4
ssg62
g1066
sg55
(lp1073
S'/admin/default/check_version'
p1074
asbasbasbag48
(g64
g50
NtRp1075
(dp1076
g53
(dp1077
sg62
g587
sg55
(lp1078
g48
(g69
g50
NtRp1079
(dp1080
g53
(dp1081
g73
g74
ssg62
g1075
sg55
(lp1082
S'query_string'
p1083
asbag48
(g69
g50
NtRp1084
(dp1085
g53
(dp1086
g80
g81
ssg62
g1075
sg55
(lp1087
S':'
asbag48
(g69
g50
NtRp1088
(dp1089
g53
(dp1090
sg62
g1075
sg55
(lp1091
g48
(g49
g50
NtRp1092
(dp1093
g53
(dp1094
g61
I4
ssg62
g1088
sg55
(lp1095
S''
asbasbasbag48
(g64
g50
NtRp1096
(dp1097
g53
(dp1098
sg62
g587
sg55
(lp1099
g48
(g69
g50
NtRp1100
(dp1101
g53
(dp1102
g73
g74
ssg62
g1096
sg55
(lp1103
S'remote_addr'
p1104
asbag48
(g69
g50
NtRp1105
(dp1106
g53
(dp1107
g80
g81
ssg62
g1096
sg55
(lp1108
S':'
asbag48
(g69
g50
NtRp1109
(dp1110
g53
(dp1111
sg62
g1096
sg55
(lp1112
g48
(g49
g50
NtRp1113
(dp1114
g53
(dp1115
g61
I4
ssg62
g1109
sg55
(lp1116
g181
asbasbasbag48
(g64
g50
NtRp1117
(dp1118
g53
(dp1119
sg62
g587
sg55
(lp1120
g48
(g69
g50
NtRp1121
(dp1122
g53
(dp1123
g73
g74
ssg62
g1117
sg55
(lp1124
S'remote_port'
p1125
asbag48
(g69
g50
NtRp1126
(dp1127
g53
(dp1128
g80
g81
ssg62
g1117
sg55
(lp1129
S':'
asbag48
(g69
g50
NtRp1130
(dp1131
g53
(dp1132
sg62
g1117
sg55
(lp1133
g48
(g49
g50
NtRp1134
(dp1135
g53
(dp1136
g61
I4
ssg62
g1130
sg55
(lp1137
S'55031'
p1138
asbasbasbag48
(g64
g50
NtRp1139
(dp1140
g53
(dp1141
sg62
g587
sg55
(lp1142
g48
(g69
g50
NtRp1143
(dp1144
g53
(dp1145
g73
g74
ssg62
g1139
sg55
(lp1146
S'request_method'
p1147
asbag48
(g69
g50
NtRp1148
(dp1149
g53
(dp1150
g80
g81
ssg62
g1139
sg55
(lp1151
S':'
asbag48
(g69
g50
NtRp1152
(dp1153
g53
(dp1154
sg62
g1139
sg55
(lp1155
g48
(g49
g50
NtRp1156
(dp1157
g53
(dp1158
g61
I4
ssg62
g1152
sg55
(lp1159
S'POST'
p1160
asbasbasbag48
(g64
g50
NtRp1161
(dp1162
g53
(dp1163
sg62
g587
sg55
(lp1164
g48
(g69
g50
NtRp1165
(dp1166
g53
(dp1167
g73
g74
ssg62
g1161
sg55
(lp1168
S'request_uri'
p1169
asbag48
(g69
g50
NtRp1170
(dp1171
g53
(dp1172
g80
g81
ssg62
g1161
sg55
(lp1173
S':'
asbag48
(g69
g50
NtRp1174
(dp1175
g53
(dp1176
sg62
g1161
sg55
(lp1177
g48
(g49
g50
NtRp1178
(dp1179
g53
(dp1180
g61
I4
ssg62
g1174
sg55
(lp1181
g1074
asbasbasbag48
(g64
g50
NtRp1182
(dp1183
g53
(dp1184
sg62
g587
sg55
(lp1185
g48
(g69
g50
NtRp1186
(dp1187
g53
(dp1188
g73
g74
ssg62
g1182
sg55
(lp1189
S'script_name'
p1190
asbag48
(g69
g50
NtRp1191
(dp1192
g53
(dp1193
g80
g81
ssg62
g1182
sg55
(lp1194
S':'
asbag48
(g69
g50
NtRp1195
(dp1196
g53
(dp1197
sg62
g1182
sg55
(lp1198
g48
(g49
g50
NtRp1199
(dp1200
g53
(dp1201
g61
I4
ssg62
g1195
sg55
(lp1202
S''
asbasbasbag48
(g64
g50
NtRp1203
(dp1204
g53
(dp1205
sg62
g587
sg55
(lp1206
g48
(g69
g50
NtRp1207
(dp1208
g53
(dp1209
g73
g74
ssg62
g1203
sg55
(lp1210
S'server_name'
p1211
asbag48
(g69
g50
NtRp1212
(dp1213
g53
(dp1214
g80
g81
ssg62
g1203
sg55
(lp1215
S':'
asbag48
(g69
g50
NtRp1216
(dp1217
g53
(dp1218
sg62
g1203
sg55
(lp1219
g48
(g49
g50
NtRp1220
(dp1221
g53
(dp1222
g61
I4
ssg62
g1216
sg55
(lp1223
S'John-PC'
p1224
asbasbasbag48
(g64
g50
NtRp1225
(dp1226
g53
(dp1227
sg62
g587
sg55
(lp1228
g48
(g69
g50
NtRp1229
(dp1230
g53
(dp1231
g73
g74
ssg62
g1225
sg55
(lp1232
S'server_port'
p1233
asbag48
(g69
g50
NtRp1234
(dp1235
g53
(dp1236
g80
g81
ssg62
g1225
sg55
(lp1237
S':'
asbag48
(g69
g50
NtRp1238
(dp1239
g53
(dp1240
sg62
g1225
sg55
(lp1241
g48
(g49
g50
NtRp1242
(dp1243
g53
(dp1244
g61
I4
ssg62
g1238
sg55
(lp1245
S'8000'
p1246
asbasbasbag48
(g64
g50
NtRp1247
(dp1248
g53
(dp1249
sg62
g587
sg55
(lp1250
g48
(g69
g50
NtRp1251
(dp1252
g53
(dp1253
g73
g74
ssg62
g1247
sg55
(lp1254
S'server_protocol'
p1255
asbag48
(g69
g50
NtRp1256
(dp1257
g53
(dp1258
g80
g81
ssg62
g1247
sg55
(lp1259
S':'
asbag48
(g69
g50
NtRp1260
(dp1261
g53
(dp1262
sg62
g1247
sg55
(lp1263
g48
(g49
g50
NtRp1264
(dp1265
g53
(dp1266
g61
I4
ssg62
g1260
sg55
(lp1267
S'HTTP/1.1'
p1268
asbasbasbag48
(g64
g50
NtRp1269
(dp1270
g53
(dp1271
sg62
g587
sg55
(lp1272
g48
(g69
g50
NtRp1273
(dp1274
g53
(dp1275
g73
g74
ssg62
g1269
sg55
(lp1276
S'server_software'
p1277
asbag48
(g69
g50
NtRp1278
(dp1279
g53
(dp1280
g80
g81
ssg62
g1269
sg55
(lp1281
S':'
asbag48
(g69
g50
NtRp1282
(dp1283
g53
(dp1284
sg62
g1269
sg55
(lp1285
g48
(g49
g50
NtRp1286
(dp1287
g53
(dp1288
g61
I4
ssg62
g1282
sg55
(lp1289
S'Rocket 1.2.4'
p1290
asbasbasbag48
(g64
g50
NtRp1291
(dp1292
g53
(dp1293
sg62
g587
sg55
(lp1294
g48
(g69
g50
NtRp1295
(dp1296
g53
(dp1297
g73
g74
ssg62
g1291
sg55
(lp1298
S'web2py_crontype'
p1299
asbag48
(g69
g50
NtRp1300
(dp1301
g53
(dp1302
g80
g81
ssg62
g1291
sg55
(lp1303
S':'
asbag48
(g69
g50
NtRp1304
(dp1305
g53
(dp1306
sg62
g1291
sg55
(lp1307
g48
(g49
g50
NtRp1308
(dp1309
g53
(dp1310
g61
I4
ssg62
g1304
sg55
(lp1311
S'hard'
p1312
asbasbasbag48
(g64
g50
NtRp1313
(dp1314
g53
(dp1315
sg62
g587
sg55
(lp1316
g48
(g69
g50
NtRp1317
(dp1318
g53
(dp1319
g73
g74
ssg62
g1313
sg55
(lp1320
S'web2py_original_uri'
p1321
asbag48
(g69
g50
NtRp1322
(dp1323
g53
(dp1324
g80
g81
ssg62
g1313
sg55
(lp1325
S':'
asbag48
(g69
g50
NtRp1326
(dp1327
g53
(dp1328
sg62
g1313
sg55
(lp1329
g48
(g49
g50
NtRp1330
(dp1331
g53
(dp1332
g61
I4
ssg62
g1326
sg55
(lp1333
S'/admin/default/check_version'
p1334
asbasbasbag48
(g64
g50
NtRp1335
(dp1336
g53
(dp1337
sg62
g587
sg55
(lp1338
g48
(g69
g50
NtRp1339
(dp1340
g53
(dp1341
g73
g74
ssg62
g1335
sg55
(lp1342
S'web2py_path'
p1343
asbag48
(g69
g50
NtRp1344
(dp1345
g53
(dp1346
g80
g81
ssg62
g1335
sg55
(lp1347
S':'
asbag48
(g69
g50
NtRp1348
(dp1349
g53
(dp1350
sg62
g1335
sg55
(lp1351
g48
(g49
g50
NtRp1352
(dp1353
g53
(dp1354
g61
I4
ssg62
g1348
sg55
(lp1355
g634
asbasbasbag48
(g64
g50
NtRp1356
(dp1357
g53
(dp1358
sg62
g587
sg55
(lp1359
g48
(g69
g50
NtRp1360
(dp1361
g53
(dp1362
g73
g74
ssg62
g1356
sg55
(lp1363
S'web2py_version'
p1364
asbag48
(g69
g50
NtRp1365
(dp1366
g53
(dp1367
g80
g81
ssg62
g1356
sg55
(lp1368
S':'
asbag48
(g69
g50
NtRp1369
(dp1370
g53
(dp1371
sg62
g1356
sg55
(lp1372
g48
(g49
g50
NtRp1373
(dp1374
g53
(dp1375
g61
I4
ssg62
g1369
sg55
(lp1376
g48
(g57
g50
NtRp1377
(dp1378
g53
(dp1379
g61
I3
ssg62
Nsg55
(lp1380
g48
(g64
g50
NtRp1381
(dp1382
g53
(dp1383
sg62
g1377
sg55
(lp1384
g48
(g69
g50
NtRp1385
(dp1386
g53
(dp1387
sg62
g1381
sg55
(lp1388
g48
(g49
g50
NtRp1389
(dp1390
g53
(dp1391
g61
I3
ssg62
g1385
sg55
(lp1392
S'1'
asbasbasbag48
(g64
g50
NtRp1393
(dp1394
g53
(dp1395
sg62
g1377
sg55
(lp1396
g48
(g69
g50
NtRp1397
(dp1398
g53
(dp1399
sg62
g1393
sg55
(lp1400
g48
(g49
g50
NtRp1401
(dp1402
g53
(dp1403
g61
I3
ssg62
g1397
sg55
(lp1404
S'99'
p1405
asbasbasbag48
(g64
g50
NtRp1406
(dp1407
g53
(dp1408
sg62
g1377
sg55
(lp1409
g48
(g69
g50
NtRp1410
(dp1411
g53
(dp1412
sg62
g1406
sg55
(lp1413
g48
(g49
g50
NtRp1414
(dp1415
g53
(dp1416
g61
I3
ssg62
g1410
sg55
(lp1417
S'2'
asbasbasbag48
(g64
g50
NtRp1418
(dp1419
g53
(dp1420
sg62
g1377
sg55
(lp1421
g48
(g69
g50
NtRp1422
(dp1423
g53
(dp1424
sg62
g1418
sg55
(lp1425
g48
(g49
g50
NtRp1426
(dp1427
g53
(dp1428
g61
I3
ssg62
g1422
sg55
(lp1429
S'datetime.datetime(2011, 9, 26, 6, 55, 33)'
p1430
asbasbasbag48
(g64
g50
NtRp1431
(dp1432
g53
(dp1433
sg62
g1377
sg55
(lp1434
g48
(g69
g50
NtRp1435
(dp1436
g53
(dp1437
sg62
g1431
sg55
(lp1438
g48
(g49
g50
NtRp1439
(dp1440
g53
(dp1441
g61
I3
ssg62
g1435
sg55
(lp1442
S'stable'
p1443
asbasbasbasbasbasbasbag48
(g64
g50
NtRp1444
(dp1445
g53
(dp1446
sg62
g587
sg55
(lp1447
g48
(g69
g50
NtRp1448
(dp1449
g53
(dp1450
g73
g74
ssg62
g1444
sg55
(lp1451
S'wsgi_errors'
p1452
asbag48
(g69
g50
NtRp1453
(dp1454
g53
(dp1455
g80
g81
ssg62
g1444
sg55
(lp1456
S':'
asbag48
(g69
g50
NtRp1457
(dp1458
g53
(dp1459
sg62
g1444
sg55
(lp1460
g48
(g49
g50
NtRp1461
(dp1462
g53
(dp1463
g61
I4
ssg62
g1457
sg55
(lp1464
S"<open file '<stderr>', mode 'w' at 0x022E00B0>"
p1465
asbasbasbag48
(g64
g50
NtRp1466
(dp1467
g53
(dp1468
sg62
g587
sg55
(lp1469
g48
(g69
g50
NtRp1470
(dp1471
g53
(dp1472
g73
g74
ssg62
g1466
sg55
(lp1473
S'wsgi_file_wrapper'
p1474
asbag48
(g69
g50
NtRp1475
(dp1476
g53
(dp1477
g80
g81
ssg62
g1466
sg55
(lp1478
S':'
asbag48
(g69
g50
NtRp1479
(dp1480
g53
(dp1481
sg62
g1466
sg55
(lp1482
g48
(g49
g50
NtRp1483
(dp1484
g53
(dp1485
g61
I4
ssg62
g1479
sg55
(lp1486
S'<class wsgiref.util.FileWrapper at 0x0313F480>'
p1487
asbasbasbag48
(g64
g50
NtRp1488
(dp1489
g53
(dp1490
sg62
g587
sg55
(lp1491
g48
(g69
g50
NtRp1492
(dp1493
g53
(dp1494
g73
g74
ssg62
g1488
sg55
(lp1495
S'wsgi_input'
p1496
asbag48
(g69
g50
NtRp1497
(dp1498
g53
(dp1499
g80
g81
ssg62
g1488
sg55
(lp1500
S':'
asbag48
(g69
g50
NtRp1501
(dp1502
g53
(dp1503
sg62
g1488
sg55
(lp1504
g48
(g49
g50
NtRp1505
(dp1506
g53
(dp1507
g61
I4
ssg62
g1501
sg55
(lp1508
S'<socket._fileobject object at 0x03909DB0>'
p1509
asbasbasbag48
(g64
g50
NtRp1510
(dp1511
g53
(dp1512
sg62
g587
sg55
(lp1513
g48
(g69
g50
NtRp1514
(dp1515
g53
(dp1516
g73
g74
ssg62
g1510
sg55
(lp1517
S'wsgi_multiprocess'
p1518
asbag48
(g69
g50
NtRp1519
(dp1520
g53
(dp1521
g80
g81
ssg62
g1510
sg55
(lp1522
S':'
asbag48
(g69
g50
NtRp1523
(dp1524
g53
(dp1525
sg62
g1510
sg55
(lp1526
g48
(g49
g50
NtRp1527
(dp1528
g53
(dp1529
g61
I4
ssg62
g1523
sg55
(lp1530
g746
asbasbasbag48
(g64
g50
NtRp1531
(dp1532
g53
(dp1533
sg62
g587
sg55
(lp1534
g48
(g69
g50
NtRp1535
(dp1536
g53
(dp1537
g73
g74
ssg62
g1531
sg55
(lp1538
S'wsgi_multithread'
p1539
asbag48
(g69
g50
NtRp1540
(dp1541
g53
(dp1542
g80
g81
ssg62
g1531
sg55
(lp1543
S':'
asbag48
(g69
g50
NtRp1544
(dp1545
g53
(dp1546
sg62
g1531
sg55
(lp1547
g48
(g49
g50
NtRp1548
(dp1549
g53
(dp1550
g61
I4
ssg62
g1544
sg55
(lp1551
g91
asbasbasbag48
(g64
g50
NtRp1552
(dp1553
g53
(dp1554
sg62
g587
sg55
(lp1555
g48
(g69
g50
NtRp1556
(dp1557
g53
(dp1558
g73
g74
ssg62
g1552
sg55
(lp1559
S'wsgi_run_once'
p1560
asbag48
(g69
g50
NtRp1561
(dp1562
g53
(dp1563
g80
g81
ssg62
g1552
sg55
(lp1564
S':'
asbag48
(g69
g50
NtRp1565
(dp1566
g53
(dp1567
sg62
g1552
sg55
(lp1568
g48
(g49
g50
NtRp1569
(dp1570
g53
(dp1571
g61
I4
ssg62
g1565
sg55
(lp1572
g746
asbasbasbag48
(g64
g50
NtRp1573
(dp1574
g53
(dp1575
sg62
g587
sg55
(lp1576
g48
(g69
g50
NtRp1577
(dp1578
g53
(dp1579
g73
g74
ssg62
g1573
sg55
(lp1580
S'wsgi_url_scheme'
p1581
asbag48
(g69
g50
NtRp1582
(dp1583
g53
(dp1584
g80
g81
ssg62
g1573
sg55
(lp1585
S':'
asbag48
(g69
g50
NtRp1586
(dp1587
g53
(dp1588
sg62
g1573
sg55
(lp1589
g48
(g49
g50
NtRp1590
(dp1591
g53
(dp1592
g61
I4
ssg62
g1586
sg55
(lp1593
S'http'
p1594
asbasbasbag48
(g64
g50
NtRp1595
(dp1596
g53
(dp1597
sg62
g587
sg55
(lp1598
g48
(g69
g50
NtRp1599
(dp1600
g53
(dp1601
g73
g74
ssg62
g1595
sg55
(lp1602
S'wsgi_version'
p1603
asbag48
(g69
g50
NtRp1604
(dp1605
g53
(dp1606
g80
g81
ssg62
g1595
sg55
(lp1607
S':'
asbag48
(g69
g50
NtRp1608
(dp1609
g53
(dp1610
sg62
g1595
sg55
(lp1611
g48
(g49
g50
NtRp1612
(dp1613
g53
(dp1614
g61
I4
ssg62
g1608
sg55
(lp1615
g48
(g57
g50
NtRp1616
(dp1617
g53
(dp1618
g61
I3
ssg62
Nsg55
(lp1619
g48
(g64
g50
NtRp1620
(dp1621
g53
(dp1622
sg62
g1616
sg55
(lp1623
g48
(g69
g50
NtRp1624
(dp1625
g53
(dp1626
sg62
g1620
sg55
(lp1627
g48
(g49
g50
NtRp1628
(dp1629
g53
(dp1630
g61
I3
ssg62
g1624
sg55
(lp1631
S'1'
asbasbasbag48
(g64
g50
NtRp1632
(dp1633
g53
(dp1634
sg62
g1616
sg55
(lp1635
g48
(g69
g50
NtRp1636
(dp1637
g53
(dp1638
sg62
g1632
sg55
(lp1639
g48
(g49
g50
NtRp1640
(dp1641
g53
(dp1642
g61
I3
ssg62
g1636
sg55
(lp1643
S'0'
asbasbasbasbasbasbasbasbasbasbasbag48
(g64
g50
NtRp1644
(dp1645
g53
(dp1646
sg62
g58
sg55
(lp1647
g48
(g69
g50
NtRp1648
(dp1649
g53
(dp1650
g73
g74
ssg62
g1644
sg55
(lp1651
S'extension'
p1652
asbag48
(g69
g50
NtRp1653
(dp1654
g53
(dp1655
g80
g81
ssg62
g1644
sg55
(lp1656
S':'
asbag48
(g69
g50
NtRp1657
(dp1658
g53
(dp1659
sg62
g1644
sg55
(lp1660
g48
(g49
g50
NtRp1661
(dp1662
g53
(dp1663
g61
I5
ssg62
g1657
sg55
(lp1664
S'html'
p1665
asbasbasbag48
(g64
g50
NtRp1666
(dp1667
g53
(dp1668
sg62
g58
sg55
(lp1669
g48
(g69
g50
NtRp1670
(dp1671
g53
(dp1672
g73
g74
ssg62
g1666
sg55
(lp1673
S'folder'
p1674
asbag48
(g69
g50
NtRp1675
(dp1676
g53
(dp1677
g80
g81
ssg62
g1666
sg55
(lp1678
S':'
asbag48
(g69
g50
NtRp1679
(dp1680
g53
(dp1681
sg62
g1666
sg55
(lp1682
g48
(g49
g50
NtRp1683
(dp1684
g53
(dp1685
g61
I5
ssg62
g1679
sg55
(lp1686
S'D:\\Dropbox\\Eclipse\\OJDevSourceProject\\project\\web2py\\applications\\admin\\'
p1687
asbasbasbag48
(g64
g50
NtRp1688
(dp1689
g53
(dp1690
sg62
g58
sg55
(lp1691
g48
(g69
g50
NtRp1692
(dp1693
g53
(dp1694
g73
g74
ssg62
g1688
sg55
(lp1695
S'function'
p1696
asbag48
(g69
g50
NtRp1697
(dp1698
g53
(dp1699
g80
g81
ssg62
g1688
sg55
(lp1700
S':'
asbag48
(g69
g50
NtRp1701
(dp1702
g53
(dp1703
sg62
g1688
sg55
(lp1704
g48
(g49
g50
NtRp1705
(dp1706
g53
(dp1707
g61
I5
ssg62
g1701
sg55
(lp1708
S'check_version'
p1709
asbasbasbag48
(g64
g50
NtRp1710
(dp1711
g53
(dp1712
sg62
g58
sg55
(lp1713
g48
(g69
g50
NtRp1714
(dp1715
g53
(dp1716
g73
g74
ssg62
g1710
sg55
(lp1717
S'get_vars'
p1718
asbag48
(g69
g50
NtRp1719
(dp1720
g53
(dp1721
g80
g81
ssg62
g1710
sg55
(lp1722
S':'
asbag48
(g69
g50
NtRp1723
(dp1724
g53
(dp1725
sg62
g1710
sg55
(lp1726
g48
(g49
g50
NtRp1727
(dp1728
g53
(dp1729
g61
I5
ssg62
g1723
sg55
(lp1730
g48
(g57
g50
NtRp1731
(dp1732
g53
(dp1733
g61
I4
ssg62
Nsg55
(lp1734
sbasbasbasbag48
(g64
g50
NtRp1735
(dp1736
g53
(dp1737
sg62
g58
sg55
(lp1738
g48
(g69
g50
NtRp1739
(dp1740
g53
(dp1741
g73
g74
ssg62
g1735
sg55
(lp1742
S'global_settings'
p1743
asbag48
(g69
g50
NtRp1744
(dp1745
g53
(dp1746
g80
g81
ssg62
g1735
sg55
(lp1747
S':'
asbag48
(g69
g50
NtRp1748
(dp1749
g53
(dp1750
sg62
g1735
sg55
(lp1751
g48
(g49
g50
NtRp1752
(dp1753
g53
(dp1754
g61
I5
ssg62
g1748
sg55
(lp1755
g48
(g57
g50
NtRp1756
(dp1757
g53
(dp1758
g61
I4
ssg62
Nsg55
(lp1759
g48
(g64
g50
NtRp1760
(dp1761
g53
(dp1762
sg62
g1756
sg55
(lp1763
g48
(g69
g50
NtRp1764
(dp1765
g53
(dp1766
g73
g74
ssg62
g1760
sg55
(lp1767
g599
asbag48
(g69
g50
NtRp1768
(dp1769
g53
(dp1770
g80
g81
ssg62
g1760
sg55
(lp1771
S':'
asbag48
(g69
g50
NtRp1772
(dp1773
g53
(dp1774
sg62
g1760
sg55
(lp1775
g48
(g49
g50
NtRp1776
(dp1777
g53
(dp1778
g61
I4
ssg62
g1772
sg55
(lp1779
S"set(['D:\\\\Dropbox\\\\Eclipse\\\\OJDevSourceProject\\\\project\\\\web2py\\\\applications\\\\admin\\\\', 'D:\\\\Dropbox\\\\Eclipse\\\\OJDevSourceProject\\\\project\\\\web2py\\\\applications\\\\OJTest\\\\', 'D:\\\\Dropbox\\\\Eclipse\\\\OJDevSourceProject\\\\project\\\\web2py\\\\applications\\\\ojtest\\\\'])"
p1780
asbasbasbag48
(g64
g50
NtRp1781
(dp1782
g53
(dp1783
sg62
g1756
sg55
(lp1784
g48
(g69
g50
NtRp1785
(dp1786
g53
(dp1787
g73
g74
ssg62
g1781
sg55
(lp1788
g621
asbag48
(g69
g50
NtRp1789
(dp1790
g53
(dp1791
g80
g81
ssg62
g1781
sg55
(lp1792
S':'
asbag48
(g69
g50
NtRp1793
(dp1794
g53
(dp1795
sg62
g1781
sg55
(lp1796
g48
(g49
g50
NtRp1797
(dp1798
g53
(dp1799
g61
I4
ssg62
g1793
sg55
(lp1800
g634
asbasbasbag48
(g64
g50
NtRp1801
(dp1802
g53
(dp1803
sg62
g1756
sg55
(lp1804
g48
(g69
g50
NtRp1805
(dp1806
g53
(dp1807
g73
g74
ssg62
g1801
sg55
(lp1808
g643
asbag48
(g69
g50
NtRp1809
(dp1810
g53
(dp1811
g80
g81
ssg62
g1801
sg55
(lp1812
S':'
asbag48
(g69
g50
NtRp1813
(dp1814
g53
(dp1815
sg62
g1801
sg55
(lp1816
g48
(g49
g50
NtRp1817
(dp1818
g53
(dp1819
g61
I4
ssg62
g1813
sg55
(lp1820
g48
(g57
g50
NtRp1821
(dp1822
g53
(dp1823
g61
I3
ssg62
Nsg55
(lp1824
sbasbasbasbag48
(g64
g50
NtRp1825
(dp1826
g53
(dp1827
sg62
g1756
sg55
(lp1828
g48
(g69
g50
NtRp1829
(dp1830
g53
(dp1831
g73
g74
ssg62
g1825
sg55
(lp1832
g668
asbag48
(g69
g50
NtRp1833
(dp1834
g53
(dp1835
g80
g81
ssg62
g1825
sg55
(lp1836
S':'
asbag48
(g69
g50
NtRp1837
(dp1838
g53
(dp1839
sg62
g1825
sg55
(lp1840
g48
(g49
g50
NtRp1841
(dp1842
g53
(dp1843
g61
I4
ssg62
g1837
sg55
(lp1844
S"<Values at 0x3528be8: {'verbose': False, 'ip': '127.0.0.1', 'shutdown_timeout': 5, 'taskbar': False, 'nocron': False, 'pid_filename': 'httpserver.pid', 'maxthreads': None, 'softcron': False, 'server_name': 'John-PC', 'bpython': False, 'nogui': False, 'port': 8000, 'extcron': False, 'debuglevel': 30, 'test': None, 'folder': 'D:\\\\Dropbox\\\\Eclipse\\\\OJDevSourceProject\\\\project\\\\web2py', 'config': '', 'import_models': False, 'winservice': '', 'shell': None, 'run': '', 'log_filename': 'httpserver.log', 'args': [''], 'ssl_ca_certificate': None, 'scheduler': None, 'profiler_filename': None, 'ssl_private_key': '', 'password': '<ask>', 'request_queue_size': 5, 'ssl_certificate': '', 'cronjob': False, 'plain': False, 'quiet': False, 'interfaces': None, 'minthreads': None, 'timeout': 10, 'numthreads': None, 'nobanner': False}>"
p1845
asbasbasbag48
(g64
g50
NtRp1846
(dp1847
g53
(dp1848
sg62
g1756
sg55
(lp1849
g48
(g69
g50
NtRp1850
(dp1851
g53
(dp1852
g73
g74
ssg62
g1846
sg55
(lp1853
g711
asbag48
(g69
g50
NtRp1854
(dp1855
g53
(dp1856
g80
g81
ssg62
g1846
sg55
(lp1857
S':'
asbag48
(g69
g50
NtRp1858
(dp1859
g53
(dp1860
sg62
g1846
sg55
(lp1861
g48
(g49
g50
NtRp1862
(dp1863
g53
(dp1864
g61
I4
ssg62
g1858
sg55
(lp1865
S'set([])'
p1866
asbasbasbag48
(g64
g50
NtRp1867
(dp1868
g53
(dp1869
sg62
g1756
sg55
(lp1870
g48
(g69
g50
NtRp1871
(dp1872
g53
(dp1873
g73
g74
ssg62
g1867
sg55
(lp1874
g733
asbag48
(g69
g50
NtRp1875
(dp1876
g53
(dp1877
g80
g81
ssg62
g1867
sg55
(lp1878
S':'
asbag48
(g69
g50
NtRp1879
(dp1880
g53
(dp1881
sg62
g1867
sg55
(lp1882
g48
(g49
g50
NtRp1883
(dp1884
g53
(dp1885
g61
I4
ssg62
g1879
sg55
(lp1886
g746
asbasbasbag48
(g64
g50
NtRp1887
(dp1888
g53
(dp1889
sg62
g1756
sg55
(lp1890
g48
(g69
g50
NtRp1891
(dp1892
g53
(dp1893
g73
g74
ssg62
g1887
sg55
(lp1894
g755
asbag48
(g69
g50
NtRp1895
(dp1896
g53
(dp1897
g80
g81
ssg62
g1887
sg55
(lp1898
S':'
asbag48
(g69
g50
NtRp1899
(dp1900
g53
(dp1901
sg62
g1887
sg55
(lp1902
g48
(g49
g50
NtRp1903
(dp1904
g53
(dp1905
g61
I4
ssg62
g1899
sg55
(lp1906
g768
asbasbasbag48
(g64
g50
NtRp1907
(dp1908
g53
(dp1909
sg62
g1756
sg55
(lp1910
g48
(g69
g50
NtRp1911
(dp1912
g53
(dp1913
g73
g74
ssg62
g1907
sg55
(lp1914
g1040
asbag48
(g69
g50
NtRp1915
(dp1916
g53
(dp1917
g80
g81
ssg62
g1907
sg55
(lp1918
S':'
asbag48
(g69
g50
NtRp1919
(dp1920
g53
(dp1921
sg62
g1907
sg55
(lp1922
g48
(g49
g50
NtRp1923
(dp1924
g53
(dp1925
g61
I4
ssg62
g1919
sg55
(lp1926
g746
asbasbasbag48
(g64
g50
NtRp1927
(dp1928
g53
(dp1929
sg62
g1756
sg55
(lp1930
g48
(g69
g50
NtRp1931
(dp1932
g53
(dp1933
g73
g74
ssg62
g1927
sg55
(lp1934
g1299
asbag48
(g69
g50
NtRp1935
(dp1936
g53
(dp1937
g80
g81
ssg62
g1927
sg55
(lp1938
S':'
asbag48
(g69
g50
NtRp1939
(dp1940
g53
(dp1941
sg62
g1927
sg55
(lp1942
g48
(g49
g50
NtRp1943
(dp1944
g53
(dp1945
g61
I4
ssg62
g1939
sg55
(lp1946
g1312
asbasbasbag48
(g64
g50
NtRp1947
(dp1948
g53
(dp1949
sg62
g1756
sg55
(lp1950
g48
(g69
g50
NtRp1951
(dp1952
g53
(dp1953
g73
g74
ssg62
g1947
sg55
(lp1954
g1364
asbag48
(g69
g50
NtRp1955
(dp1956
g53
(dp1957
g80
g81
ssg62
g1947
sg55
(lp1958
S':'
asbag48
(g69
g50
NtRp1959
(dp1960
g53
(dp1961
sg62
g1947
sg55
(lp1962
g48
(g49
g50
NtRp1963
(dp1964
g53
(dp1965
g61
I4
ssg62
g1959
sg55
(lp1966
g48
(g57
g50
NtRp1967
(dp1968
g53
(dp1969
g61
I3
ssg62
Nsg55
(lp1970
g48
(g64
g50
NtRp1971
(dp1972
g53
(dp1973
sg62
g1967
sg55
(lp1974
g48
(g69
g50
NtRp1975
(dp1976
g53
(dp1977
sg62
g1971
sg55
(lp1978
g48
(g49
g50
NtRp1979
(dp1980
g53
(dp1981
g61
I3
ssg62
g1975
sg55
(lp1982
S'1'
asbasbasbag48
(g64
g50
NtRp1983
(dp1984
g53
(dp1985
sg62
g1967
sg55
(lp1986
g48
(g69
g50
NtRp1987
(dp1988
g53
(dp1989
sg62
g1983
sg55
(lp1990
g48
(g49
g50
NtRp1991
(dp1992
g53
(dp1993
g61
I3
ssg62
g1987
sg55
(lp1994
S'99'
p1995
asbasbasbag48
(g64
g50
NtRp1996
(dp1997
g53
(dp1998
sg62
g1967
sg55
(lp1999
g48
(g69
g50
NtRp2000
(dp2001
g53
(dp2002
sg62
g1996
sg55
(lp2003
g48
(g49
g50
NtRp2004
(dp2005
g53
(dp2006
g61
I3
ssg62
g2000
sg55
(lp2007
S'2'
asbasbasbag48
(g64
g50
NtRp2008
(dp2009
g53
(dp2010
sg62
g1967
sg55
(lp2011
g48
(g69
g50
NtRp2012
(dp2013
g53
(dp2014
sg62
g2008
sg55
(lp2015
g48
(g49
g50
NtRp2016
(dp2017
g53
(dp2018
g61
I3
ssg62
g2012
sg55
(lp2019
S'datetime.datetime(2011, 9, 26, 6, 55, 33)'
p2020
asbasbasbag48
(g64
g50
NtRp2021
(dp2022
g53
(dp2023
sg62
g1967
sg55
(lp2024
g48
(g69
g50
NtRp2025
(dp2026
g53
(dp2027
sg62
g2021
sg55
(lp2028
g48
(g49
g50
NtRp2029
(dp2030
g53
(dp2031
g61
I3
ssg62
g2025
sg55
(lp2032
g1443
asbasbasbasbasbasbasbasbasbasbasbag48
(g64
g50
NtRp2033
(dp2034
g53
(dp2035
sg62
g58
sg55
(lp2036
g48
(g69
g50
NtRp2037
(dp2038
g53
(dp2039
g73
g74
ssg62
g2033
sg55
(lp2040
S'is_https'
p2041
asbag48
(g69
g50
NtRp2042
(dp2043
g53
(dp2044
g80
g81
ssg62
g2033
sg55
(lp2045
S':'
asbag48
(g69
g50
NtRp2046
(dp2047
g53
(dp2048
sg62
g2033
sg55
(lp2049
g48
(g49
g50
NtRp2050
(dp2051
g53
(dp2052
g61
I5
ssg62
g2046
sg55
(lp2053
g746
asbasbasbag48
(g64
g50
NtRp2054
(dp2055
g53
(dp2056
sg62
g58
sg55
(lp2057
g48
(g69
g50
NtRp2058
(dp2059
g53
(dp2060
g73
g74
ssg62
g2054
sg55
(lp2061
S'is_local'
p2062
asbag48
(g69
g50
NtRp2063
(dp2064
g53
(dp2065
g80
g81
ssg62
g2054
sg55
(lp2066
S':'
asbag48
(g69
g50
NtRp2067
(dp2068
g53
(dp2069
sg62
g2054
sg55
(lp2070
g48
(g49
g50
NtRp2071
(dp2072
g53
(dp2073
g61
I5
ssg62
g2067
sg55
(lp2074
g91
asbasbasbag48
(g64
g50
NtRp2075
(dp2076
g53
(dp2077
sg62
g58
sg55
(lp2078
g48
(g69
g50
NtRp2079
(dp2080
g53
(dp2081
g73
g74
ssg62
g2075
sg55
(lp2082
S'is_restful'
p2083
asbag48
(g69
g50
NtRp2084
(dp2085
g53
(dp2086
g80
g81
ssg62
g2075
sg55
(lp2087
S':'
asbag48
(g69
g50
NtRp2088
(dp2089
g53
(dp2090
sg62
g2075
sg55
(lp2091
g48
(g49
g50
NtRp2092
(dp2093
g53
(dp2094
g61
I5
ssg62
g2088
sg55
(lp2095
g746
asbasbasbag48
(g64
g50
NtRp2096
(dp2097
g53
(dp2098
sg62
g58
sg55
(lp2099
g48
(g69
g50
NtRp2100
(dp2101
g53
(dp2102
g73
g74
ssg62
g2096
sg55
(lp2103
S'now'
p2104
asbag48
(g69
g50
NtRp2105
(dp2106
g53
(dp2107
g80
g81
ssg62
g2096
sg55
(lp2108
S':'
asbag48
(g69
g50
NtRp2109
(dp2110
g53
(dp2111
sg62
g2096
sg55
(lp2112
g48
(g49
g50
NtRp2113
(dp2114
g53
(dp2115
g61
I5
ssg62
g2109
sg55
(lp2116
S'datetime.datetime(2012, 1, 23, 20, 49, 0, 500000)'
p2117
asbasbasbag48
(g64
g50
NtRp2118
(dp2119
g53
(dp2120
sg62
g58
sg55
(lp2121
g48
(g69
g50
NtRp2122
(dp2123
g53
(dp2124
g73
g74
ssg62
g2118
sg55
(lp2125
S'post_vars'
p2126
asbag48
(g69
g50
NtRp2127
(dp2128
g53
(dp2129
g80
g81
ssg62
g2118
sg55
(lp2130
S':'
asbag48
(g69
g50
NtRp2131
(dp2132
g53
(dp2133
sg62
g2118
sg55
(lp2134
g48
(g49
g50
NtRp2135
(dp2136
g53
(dp2137
g61
I5
ssg62
g2131
sg55
(lp2138
g48
(g57
g50
NtRp2139
(dp2140
g53
(dp2141
g61
I4
ssg62
Nsg55
(lp2142
sbasbasbasbag48
(g64
g50
NtRp2143
(dp2144
g53
(dp2145
sg62
g58
sg55
(lp2146
g48
(g69
g50
NtRp2147
(dp2148
g53
(dp2149
g73
g74
ssg62
g2143
sg55
(lp2150
S'url'
p2151
asbag48
(g69
g50
NtRp2152
(dp2153
g53
(dp2154
g80
g81
ssg62
g2143
sg55
(lp2155
S':'
asbag48
(g69
g50
NtRp2156
(dp2157
g53
(dp2158
sg62
g2143
sg55
(lp2159
g48
(g49
g50
NtRp2160
(dp2161
g53
(dp2162
g61
I5
ssg62
g2156
sg55
(lp2163
S'/admin/default/check_version'
p2164
asbasbasbag48
(g64
g50
NtRp2165
(dp2166
g53
(dp2167
sg62
g58
sg55
(lp2168
g48
(g69
g50
NtRp2169
(dp2170
g53
(dp2171
g73
g74
ssg62
g2165
sg55
(lp2172
S'utcnow'
p2173
asbag48
(g69
g50
NtRp2174
(dp2175
g53
(dp2176
g80
g81
ssg62
g2165
sg55
(lp2177
S':'
asbag48
(g69
g50
NtRp2178
(dp2179
g53
(dp2180
sg62
g2165
sg55
(lp2181
g48
(g49
g50
NtRp2182
(dp2183
g53
(dp2184
g61
I5
ssg62
g2178
sg55
(lp2185
S'datetime.datetime(2012, 1, 23, 9, 49, 0, 500000)'
p2186
asbasbasbag48
(g64
g50
NtRp2187
(dp2188
g53
(dp2189
sg62
g58
sg55
(lp2190
g48
(g69
g50
NtRp2191
(dp2192
g53
(dp2193
g73
g74
ssg62
g2187
sg55
(lp2194
S'uuid'
p2195
asbag48
(g69
g50
NtRp2196
(dp2197
g53
(dp2198
g80
g81
ssg62
g2187
sg55
(lp2199
S':'
asbag48
(g69
g50
NtRp2200
(dp2201
g53
(dp2202
sg62
g2187
sg55
(lp2203
g48
(g49
g50
NtRp2204
(dp2205
g53
(dp2206
g61
I5
ssg62
g2200
sg55
(lp2207
S'admin/127.0.0.1.2012-01-23.20-49-00.5df30215-c914-420b-bc10-79550bd754fa'
p2208
asbasbasbag48
(g64
g50
NtRp2209
(dp2210
g53
(dp2211
sg62
g58
sg55
(lp2212
g48
(g69
g50
NtRp2213
(dp2214
g53
(dp2215
g73
g74
ssg62
g2209
sg55
(lp2216
S'vars'
p2217
asbag48
(g69
g50
NtRp2218
(dp2219
g53
(dp2220
g80
g81
ssg62
g2209
sg55
(lp2221
S':'
asbag48
(g69
g50
NtRp2222
(dp2223
g53
(dp2224
sg62
g2209
sg55
(lp2225
g48
(g49
g50
NtRp2226
(dp2227
g53
(dp2228
g61
I5
ssg62
g2222
sg55
(lp2229
g48
(g57
g50
NtRp2230
(dp2231
g53
(dp2232
g61
I4
ssg62
Nsg55
(lp2233
sbasbasbasbag48
(g64
g50
NtRp2234
(dp2235
g53
(dp2236
sg62
g58
sg55
(lp2237
g48
(g69
g50
NtRp2238
(dp2239
g53
(dp2240
g73
g74
ssg62
g2234
sg55
(lp2241
S'wsgi'
p2242
asbag48
(g69
g50
NtRp2243
(dp2244
g53
(dp2245
g80
g81
ssg62
g2234
sg55
(lp2246
S':'
asbag48
(g69
g50
NtRp2247
(dp2248
g53
(dp2249
sg62
g2234
sg55
(lp2250
g48
(g49
g50
NtRp2251
(dp2252
g53
(dp2253
g61
I5
ssg62
g2247
sg55
(lp2254
g48
(g57
g50
NtRp2255
(dp2256
g53
(dp2257
g61
I4
ssg62
Nsg55
(lp2258
g48
(g64
g50
NtRp2259
(dp2260
g53
(dp2261
sg62
g2255
sg55
(lp2262
g48
(g69
g50
NtRp2263
(dp2264
g53
(dp2265
g73
g74
ssg62
g2259
sg55
(lp2266
S'environ'
p2267
asbag48
(g69
g50
NtRp2268
(dp2269
g53
(dp2270
g80
g81
ssg62
g2259
sg55
(lp2271
S':'
asbag48
(g69
g50
NtRp2272
(dp2273
g53
(dp2274
sg62
g2259
sg55
(lp2275
g48
(g49
g50
NtRp2276
(dp2277
g53
(dp2278
g61
I4
ssg62
g2272
sg55
(lp2279
g48
(g57
g50
NtRp2280
(dp2281
g53
(dp2282
g61
I3
ssg62
Nsg55
(lp2283
g48
(g64
g50
NtRp2284
(dp2285
g53
(dp2286
sg62
g2280
sg55
(lp2287
g48
(g69
g50
NtRp2288
(dp2289
g53
(dp2290
g73
g74
ssg62
g2284
sg55
(lp2291
S'CONTENT_LENGTH'
p2292
asbag48
(g69
g50
NtRp2293
(dp2294
g53
(dp2295
g80
g81
ssg62
g2284
sg55
(lp2296
S':'
asbag48
(g69
g50
NtRp2297
(dp2298
g53
(dp2299
sg62
g2284
sg55
(lp2300
g48
(g49
g50
NtRp2301
(dp2302
g53
(dp2303
g61
I3
ssg62
g2297
sg55
(lp2304
S'0'
asbasbasbag48
(g64
g50
NtRp2305
(dp2306
g53
(dp2307
sg62
g2280
sg55
(lp2308
g48
(g69
g50
NtRp2309
(dp2310
g53
(dp2311
g73
g74
ssg62
g2305
sg55
(lp2312
S'HTTP_ACCEPT'
p2313
asbag48
(g69
g50
NtRp2314
(dp2315
g53
(dp2316
g80
g81
ssg62
g2305
sg55
(lp2317
S':'
asbag48
(g69
g50
NtRp2318
(dp2319
g53
(dp2320
sg62
g2305
sg55
(lp2321
g48
(g49
g50
NtRp2322
(dp2323
g53
(dp2324
g61
I3
ssg62
g2318
sg55
(lp2325
g790
asbasbasbag48
(g64
g50
NtRp2326
(dp2327
g53
(dp2328
sg62
g2280
sg55
(lp2329
g48
(g69
g50
NtRp2330
(dp2331
g53
(dp2332
g73
g74
ssg62
g2326
sg55
(lp2333
S'HTTP_ACCEPT_CHARSET'
p2334
asbag48
(g69
g50
NtRp2335
(dp2336
g53
(dp2337
g80
g81
ssg62
g2326
sg55
(lp2338
S':'
asbag48
(g69
g50
NtRp2339
(dp2340
g53
(dp2341
sg62
g2326
sg55
(lp2342
g48
(g49
g50
NtRp2343
(dp2344
g53
(dp2345
g61
I3
ssg62
g2339
sg55
(lp2346
g812
asbasbasbag48
(g64
g50
NtRp2347
(dp2348
g53
(dp2349
sg62
g2280
sg55
(lp2350
g48
(g69
g50
NtRp2351
(dp2352
g53
(dp2353
g73
g74
ssg62
g2347
sg55
(lp2354
S'HTTP_ACCEPT_ENCODING'
p2355
asbag48
(g69
g50
NtRp2356
(dp2357
g53
(dp2358
g80
g81
ssg62
g2347
sg55
(lp2359
S':'
asbag48
(g69
g50
NtRp2360
(dp2361
g53
(dp2362
sg62
g2347
sg55
(lp2363
g48
(g49
g50
NtRp2364
(dp2365
g53
(dp2366
g61
I3
ssg62
g2360
sg55
(lp2367
g834
asbasbasbag48
(g64
g50
NtRp2368
(dp2369
g53
(dp2370
sg62
g2280
sg55
(lp2371
g48
(g69
g50
NtRp2372
(dp2373
g53
(dp2374
g73
g74
ssg62
g2368
sg55
(lp2375
S'HTTP_ACCEPT_LANGUAGE'
p2376
asbag48
(g69
g50
NtRp2377
(dp2378
g53
(dp2379
g80
g81
ssg62
g2368
sg55
(lp2380
S':'
asbag48
(g69
g50
NtRp2381
(dp2382
g53
(dp2383
sg62
g2368
sg55
(lp2384
g48
(g49
g50
NtRp2385
(dp2386
g53
(dp2387
g61
I3
ssg62
g2381
sg55
(lp2388
g856
asbasbasbag48
(g64
g50
NtRp2389
(dp2390
g53
(dp2391
sg62
g2280
sg55
(lp2392
g48
(g69
g50
NtRp2393
(dp2394
g53
(dp2395
g73
g74
ssg62
g2389
sg55
(lp2396
S'HTTP_CONNECTION'
p2397
asbag48
(g69
g50
NtRp2398
(dp2399
g53
(dp2400
g80
g81
ssg62
g2389
sg55
(lp2401
S':'
asbag48
(g69
g50
NtRp2402
(dp2403
g53
(dp2404
sg62
g2389
sg55
(lp2405
g48
(g49
g50
NtRp2406
(dp2407
g53
(dp2408
g61
I3
ssg62
g2402
sg55
(lp2409
g878
asbasbasbag48
(g64
g50
NtRp2410
(dp2411
g53
(dp2412
sg62
g2280
sg55
(lp2413
g48
(g69
g50
NtRp2414
(dp2415
g53
(dp2416
g73
g74
ssg62
g2410
sg55
(lp2417
S'HTTP_CONTENT_LENGTH'
p2418
asbag48
(g69
g50
NtRp2419
(dp2420
g53
(dp2421
g80
g81
ssg62
g2410
sg55
(lp2422
S':'
asbag48
(g69
g50
NtRp2423
(dp2424
g53
(dp2425
sg62
g2410
sg55
(lp2426
g48
(g49
g50
NtRp2427
(dp2428
g53
(dp2429
g61
I3
ssg62
g2423
sg55
(lp2430
S'0'
asbasbasbag48
(g64
g50
NtRp2431
(dp2432
g53
(dp2433
sg62
g2280
sg55
(lp2434
g48
(g69
g50
NtRp2435
(dp2436
g53
(dp2437
g73
g74
ssg62
g2431
sg55
(lp2438
S'HTTP_COOKIE'
p2439
asbag48
(g69
g50
NtRp2440
(dp2441
g53
(dp2442
g80
g81
ssg62
g2431
sg55
(lp2443
S':'
asbag48
(g69
g50
NtRp2444
(dp2445
g53
(dp2446
sg62
g2431
sg55
(lp2447
g48
(g49
g50
NtRp2448
(dp2449
g53
(dp2450
g61
I3
ssg62
g2444
sg55
(lp2451
g921
asbasbasbag48
(g64
g50
NtRp2452
(dp2453
g53
(dp2454
sg62
g2280
sg55
(lp2455
g48
(g69
g50
NtRp2456
(dp2457
g53
(dp2458
g73
g74
ssg62
g2452
sg55
(lp2459
S'HTTP_HOST'
p2460
asbag48
(g69
g50
NtRp2461
(dp2462
g53
(dp2463
g80
g81
ssg62
g2452
sg55
(lp2464
S':'
asbag48
(g69
g50
NtRp2465
(dp2466
g53
(dp2467
sg62
g2452
sg55
(lp2468
g48
(g49
g50
NtRp2469
(dp2470
g53
(dp2471
g61
I3
ssg62
g2465
sg55
(lp2472
g943
asbasbasbag48
(g64
g50
NtRp2473
(dp2474
g53
(dp2475
sg62
g2280
sg55
(lp2476
g48
(g69
g50
NtRp2477
(dp2478
g53
(dp2479
g73
g74
ssg62
g2473
sg55
(lp2480
S'HTTP_ORIGIN'
p2481
asbag48
(g69
g50
NtRp2482
(dp2483
g53
(dp2484
g80
g81
ssg62
g2473
sg55
(lp2485
S':'
asbag48
(g69
g50
NtRp2486
(dp2487
g53
(dp2488
sg62
g2473
sg55
(lp2489
g48
(g49
g50
NtRp2490
(dp2491
g53
(dp2492
g61
I3
ssg62
g2486
sg55
(lp2493
g965
asbasbasbag48
(g64
g50
NtRp2494
(dp2495
g53
(dp2496
sg62
g2280
sg55
(lp2497
g48
(g69
g50
NtRp2498
(dp2499
g53
(dp2500
g73
g74
ssg62
g2494
sg55
(lp2501
S'HTTP_REFERER'
p2502
asbag48
(g69
g50
NtRp2503
(dp2504
g53
(dp2505
g80
g81
ssg62
g2494
sg55
(lp2506
S':'
asbag48
(g69
g50
NtRp2507
(dp2508
g53
(dp2509
sg62
g2494
sg55
(lp2510
g48
(g49
g50
NtRp2511
(dp2512
g53
(dp2513
g61
I3
ssg62
g2507
sg55
(lp2514
g987
asbasbasbag48
(g64
g50
NtRp2515
(dp2516
g53
(dp2517
sg62
g2280
sg55
(lp2518
g48
(g69
g50
NtRp2519
(dp2520
g53
(dp2521
g73
g74
ssg62
g2515
sg55
(lp2522
S'HTTP_USER_AGENT'
p2523
asbag48
(g69
g50
NtRp2524
(dp2525
g53
(dp2526
g80
g81
ssg62
g2515
sg55
(lp2527
S':'
asbag48
(g69
g50
NtRp2528
(dp2529
g53
(dp2530
sg62
g2515
sg55
(lp2531
g48
(g49
g50
NtRp2532
(dp2533
g53
(dp2534
g61
I3
ssg62
g2528
sg55
(lp2535
g1009
asbasbasbag48
(g64
g50
NtRp2536
(dp2537
g53
(dp2538
sg62
g2280
sg55
(lp2539
g48
(g69
g50
NtRp2540
(dp2541
g53
(dp2542
g73
g74
ssg62
g2536
sg55
(lp2543
S'HTTP_X_REQUESTED_WITH'
p2544
asbag48
(g69
g50
NtRp2545
(dp2546
g53
(dp2547
g80
g81
ssg62
g2536
sg55
(lp2548
S':'
asbag48
(g69
g50
NtRp2549
(dp2550
g53
(dp2551
sg62
g2536
sg55
(lp2552
g48
(g49
g50
NtRp2553
(dp2554
g53
(dp2555
g61
I3
ssg62
g2549
sg55
(lp2556
g1031
asbasbasbag48
(g64
g50
NtRp2557
(dp2558
g53
(dp2559
sg62
g2280
sg55
(lp2560
g48
(g69
g50
NtRp2561
(dp2562
g53
(dp2563
g73
g74
ssg62
g2557
sg55
(lp2564
S'PATH_INFO'
p2565
asbag48
(g69
g50
NtRp2566
(dp2567
g53
(dp2568
g80
g81
ssg62
g2557
sg55
(lp2569
S':'
asbag48
(g69
g50
NtRp2570
(dp2571
g53
(dp2572
sg62
g2557
sg55
(lp2573
g48
(g49
g50
NtRp2574
(dp2575
g53
(dp2576
g61
I3
ssg62
g2570
sg55
(lp2577
g1074
asbasbasbag48
(g64
g50
NtRp2578
(dp2579
g53
(dp2580
sg62
g2280
sg55
(lp2581
g48
(g69
g50
NtRp2582
(dp2583
g53
(dp2584
g73
g74
ssg62
g2578
sg55
(lp2585
S'QUERY_STRING'
p2586
asbag48
(g69
g50
NtRp2587
(dp2588
g53
(dp2589
g80
g81
ssg62
g2578
sg55
(lp2590
S':'
asbag48
(g69
g50
NtRp2591
(dp2592
g53
(dp2593
sg62
g2578
sg55
(lp2594
g48
(g49
g50
NtRp2595
(dp2596
g53
(dp2597
g61
I3
ssg62
g2591
sg55
(lp2598
S''
asbasbasbag48
(g64
g50
NtRp2599
(dp2600
g53
(dp2601
sg62
g2280
sg55
(lp2602
g48
(g69
g50
NtRp2603
(dp2604
g53
(dp2605
g73
g74
ssg62
g2599
sg55
(lp2606
S'REMOTE_ADDR'
p2607
asbag48
(g69
g50
NtRp2608
(dp2609
g53
(dp2610
g80
g81
ssg62
g2599
sg55
(lp2611
S':'
asbag48
(g69
g50
NtRp2612
(dp2613
g53
(dp2614
sg62
g2599
sg55
(lp2615
g48
(g49
g50
NtRp2616
(dp2617
g53
(dp2618
g61
I3
ssg62
g2612
sg55
(lp2619
g181
asbasbasbag48
(g64
g50
NtRp2620
(dp2621
g53
(dp2622
sg62
g2280
sg55
(lp2623
g48
(g69
g50
NtRp2624
(dp2625
g53
(dp2626
g73
g74
ssg62
g2620
sg55
(lp2627
S'REMOTE_PORT'
p2628
asbag48
(g69
g50
NtRp2629
(dp2630
g53
(dp2631
g80
g81
ssg62
g2620
sg55
(lp2632
S':'
asbag48
(g69
g50
NtRp2633
(dp2634
g53
(dp2635
sg62
g2620
sg55
(lp2636
g48
(g49
g50
NtRp2637
(dp2638
g53
(dp2639
g61
I3
ssg62
g2633
sg55
(lp2640
g1138
asbasbasbag48
(g64
g50
NtRp2641
(dp2642
g53
(dp2643
sg62
g2280
sg55
(lp2644
g48
(g69
g50
NtRp2645
(dp2646
g53
(dp2647
g73
g74
ssg62
g2641
sg55
(lp2648
S'REQUEST_METHOD'
p2649
asbag48
(g69
g50
NtRp2650
(dp2651
g53
(dp2652
g80
g81
ssg62
g2641
sg55
(lp2653
S':'
asbag48
(g69
g50
NtRp2654
(dp2655
g53
(dp2656
sg62
g2641
sg55
(lp2657
g48
(g49
g50
NtRp2658
(dp2659
g53
(dp2660
g61
I3
ssg62
g2654
sg55
(lp2661
g1160
asbasbasbag48
(g64
g50
NtRp2662
(dp2663
g53
(dp2664
sg62
g2280
sg55
(lp2665
g48
(g69
g50
NtRp2666
(dp2667
g53
(dp2668
g73
g74
ssg62
g2662
sg55
(lp2669
S'REQUEST_URI'
p2670
asbag48
(g69
g50
NtRp2671
(dp2672
g53
(dp2673
g80
g81
ssg62
g2662
sg55
(lp2674
S':'
asbag48
(g69
g50
NtRp2675
(dp2676
g53
(dp2677
sg62
g2662
sg55
(lp2678
g48
(g49
g50
NtRp2679
(dp2680
g53
(dp2681
g61
I3
ssg62
g2675
sg55
(lp2682
g1074
asbasbasbag48
(g64
g50
NtRp2683
(dp2684
g53
(dp2685
sg62
g2280
sg55
(lp2686
g48
(g69
g50
NtRp2687
(dp2688
g53
(dp2689
g73
g74
ssg62
g2683
sg55
(lp2690
S'SCRIPT_NAME'
p2691
asbag48
(g69
g50
NtRp2692
(dp2693
g53
(dp2694
g80
g81
ssg62
g2683
sg55
(lp2695
S':'
asbag48
(g69
g50
NtRp2696
(dp2697
g53
(dp2698
sg62
g2683
sg55
(lp2699
g48
(g49
g50
NtRp2700
(dp2701
g53
(dp2702
g61
I3
ssg62
g2696
sg55
(lp2703
S''
asbasbasbag48
(g64
g50
NtRp2704
(dp2705
g53
(dp2706
sg62
g2280
sg55
(lp2707
g48
(g69
g50
NtRp2708
(dp2709
g53
(dp2710
g73
g74
ssg62
g2704
sg55
(lp2711
S'SERVER_NAME'
p2712
asbag48
(g69
g50
NtRp2713
(dp2714
g53
(dp2715
g80
g81
ssg62
g2704
sg55
(lp2716
S':'
asbag48
(g69
g50
NtRp2717
(dp2718
g53
(dp2719
sg62
g2704
sg55
(lp2720
g48
(g49
g50
NtRp2721
(dp2722
g53
(dp2723
g61
I3
ssg62
g2717
sg55
(lp2724
g1224
asbasbasbag48
(g64
g50
NtRp2725
(dp2726
g53
(dp2727
sg62
g2280
sg55
(lp2728
g48
(g69
g50
NtRp2729
(dp2730
g53
(dp2731
g73
g74
ssg62
g2725
sg55
(lp2732
S'SERVER_PORT'
p2733
asbag48
(g69
g50
NtRp2734
(dp2735
g53
(dp2736
g80
g81
ssg62
g2725
sg55
(lp2737
S':'
asbag48
(g69
g50
NtRp2738
(dp2739
g53
(dp2740
sg62
g2725
sg55
(lp2741
g48
(g49
g50
NtRp2742
(dp2743
g53
(dp2744
g61
I3
ssg62
g2738
sg55
(lp2745
g1246
asbasbasbag48
(g64
g50
NtRp2746
(dp2747
g53
(dp2748
sg62
g2280
sg55
(lp2749
g48
(g69
g50
NtRp2750
(dp2751
g53
(dp2752
g73
g74
ssg62
g2746
sg55
(lp2753
S'SERVER_PROTOCOL'
p2754
asbag48
(g69
g50
NtRp2755
(dp2756
g53
(dp2757
g80
g81
ssg62
g2746
sg55
(lp2758
S':'
asbag48
(g69
g50
NtRp2759
(dp2760
g53
(dp2761
sg62
g2746
sg55
(lp2762
g48
(g49
g50
NtRp2763
(dp2764
g53
(dp2765
g61
I3
ssg62
g2759
sg55
(lp2766
g1268
asbasbasbag48
(g64
g50
NtRp2767
(dp2768
g53
(dp2769
sg62
g2280
sg55
(lp2770
g48
(g69
g50
NtRp2771
(dp2772
g53
(dp2773
g73
g74
ssg62
g2767
sg55
(lp2774
S'SERVER_SOFTWARE'
p2775
asbag48
(g69
g50
NtRp2776
(dp2777
g53
(dp2778
g80
g81
ssg62
g2767
sg55
(lp2779
S':'
asbag48
(g69
g50
NtRp2780
(dp2781
g53
(dp2782
sg62
g2767
sg55
(lp2783
g48
(g49
g50
NtRp2784
(dp2785
g53
(dp2786
g61
I3
ssg62
g2780
sg55
(lp2787
g1290
asbasbasbag48
(g64
g50
NtRp2788
(dp2789
g53
(dp2790
sg62
g2280
sg55
(lp2791
g48
(g69
g50
NtRp2792
(dp2793
g53
(dp2794
g73
g74
ssg62
g2788
sg55
(lp2795
S'WEB2PY_ORIGINAL_URI'
p2796
asbag48
(g69
g50
NtRp2797
(dp2798
g53
(dp2799
g80
g81
ssg62
g2788
sg55
(lp2800
S':'
asbag48
(g69
g50
NtRp2801
(dp2802
g53
(dp2803
sg62
g2788
sg55
(lp2804
g48
(g49
g50
NtRp2805
(dp2806
g53
(dp2807
g61
I3
ssg62
g2801
sg55
(lp2808
g1334
asbasbasbag48
(g64
g50
NtRp2809
(dp2810
g53
(dp2811
sg62
g2280
sg55
(lp2812
g48
(g69
g50
NtRp2813
(dp2814
g53
(dp2815
g73
g74
ssg62
g2809
sg55
(lp2816
S'wsgi.errors'
p2817
asbag48
(g69
g50
NtRp2818
(dp2819
g53
(dp2820
g80
g81
ssg62
g2809
sg55
(lp2821
S':'
asbag48
(g69
g50
NtRp2822
(dp2823
g53
(dp2824
sg62
g2809
sg55
(lp2825
g48
(g49
g50
NtRp2826
(dp2827
g53
(dp2828
g61
I3
ssg62
g2822
sg55
(lp2829
S"<open file '<stderr>', mode 'w' at 0x022E00B0>"
p2830
asbasbasbag48
(g64
g50
NtRp2831
(dp2832
g53
(dp2833
sg62
g2280
sg55
(lp2834
g48
(g69
g50
NtRp2835
(dp2836
g53
(dp2837
g73
g74
ssg62
g2831
sg55
(lp2838
S'wsgi.file_wrapper'
p2839
asbag48
(g69
g50
NtRp2840
(dp2841
g53
(dp2842
g80
g81
ssg62
g2831
sg55
(lp2843
S':'
asbag48
(g69
g50
NtRp2844
(dp2845
g53
(dp2846
sg62
g2831
sg55
(lp2847
g48
(g49
g50
NtRp2848
(dp2849
g53
(dp2850
g61
I3
ssg62
g2844
sg55
(lp2851
S'<class wsgiref.util.FileWrapper at 0x0313F480>'
p2852
asbasbasbag48
(g64
g50
NtRp2853
(dp2854
g53
(dp2855
sg62
g2280
sg55
(lp2856
g48
(g69
g50
NtRp2857
(dp2858
g53
(dp2859
g73
g74
ssg62
g2853
sg55
(lp2860
S'wsgi.input'
p2861
asbag48
(g69
g50
NtRp2862
(dp2863
g53
(dp2864
g80
g81
ssg62
g2853
sg55
(lp2865
S':'
asbag48
(g69
g50
NtRp2866
(dp2867
g53
(dp2868
sg62
g2853
sg55
(lp2869
g48
(g49
g50
NtRp2870
(dp2871
g53
(dp2872
g61
I3
ssg62
g2866
sg55
(lp2873
S"<open file '<fdopen>', mode 'w+b' at 0x0441E2A8>"
p2874
asbasbasbag48
(g64
g50
NtRp2875
(dp2876
g53
(dp2877
sg62
g2280
sg55
(lp2878
g48
(g69
g50
NtRp2879
(dp2880
g53
(dp2881
g73
g74
ssg62
g2875
sg55
(lp2882
S'wsgi.multiprocess'
p2883
asbag48
(g69
g50
NtRp2884
(dp2885
g53
(dp2886
g80
g81
ssg62
g2875
sg55
(lp2887
S':'
asbag48
(g69
g50
NtRp2888
(dp2889
g53
(dp2890
sg62
g2875
sg55
(lp2891
g48
(g49
g50
NtRp2892
(dp2893
g53
(dp2894
g61
I3
ssg62
g2888
sg55
(lp2895
g746
asbasbasbag48
(g64
g50
NtRp2896
(dp2897
g53
(dp2898
sg62
g2280
sg55
(lp2899
g48
(g69
g50
NtRp2900
(dp2901
g53
(dp2902
g73
g74
ssg62
g2896
sg55
(lp2903
S'wsgi.multithread'
p2904
asbag48
(g69
g50
NtRp2905
(dp2906
g53
(dp2907
g80
g81
ssg62
g2896
sg55
(lp2908
S':'
asbag48
(g69
g50
NtRp2909
(dp2910
g53
(dp2911
sg62
g2896
sg55
(lp2912
g48
(g49
g50
NtRp2913
(dp2914
g53
(dp2915
g61
I3
ssg62
g2909
sg55
(lp2916
g91
asbasbasbag48
(g64
g50
NtRp2917
(dp2918
g53
(dp2919
sg62
g2280
sg55
(lp2920
g48
(g69
g50
NtRp2921
(dp2922
g53
(dp2923
g73
g74
ssg62
g2917
sg55
(lp2924
S'wsgi.run_once'
p2925
asbag48
(g69
g50
NtRp2926
(dp2927
g53
(dp2928
g80
g81
ssg62
g2917
sg55
(lp2929
S':'
asbag48
(g69
g50
NtRp2930
(dp2931
g53
(dp2932
sg62
g2917
sg55
(lp2933
g48
(g49
g50
NtRp2934
(dp2935
g53
(dp2936
g61
I3
ssg62
g2930
sg55
(lp2937
g746
asbasbasbag48
(g64
g50
NtRp2938
(dp2939
g53
(dp2940
sg62
g2280
sg55
(lp2941
g48
(g69
g50
NtRp2942
(dp2943
g53
(dp2944
g73
g74
ssg62
g2938
sg55
(lp2945
S'wsgi.url_scheme'
p2946
asbag48
(g69
g50
NtRp2947
(dp2948
g53
(dp2949
g80
g81
ssg62
g2938
sg55
(lp2950
S':'
asbag48
(g69
g50
NtRp2951
(dp2952
g53
(dp2953
sg62
g2938
sg55
(lp2954
g48
(g49
g50
NtRp2955
(dp2956
g53
(dp2957
g61
I3
ssg62
g2951
sg55
(lp2958
g1594
asbasbasbag48
(g64
g50
NtRp2959
(dp2960
g53
(dp2961
sg62
g2280
sg55
(lp2962
g48
(g69
g50
NtRp2963
(dp2964
g53
(dp2965
g73
g74
ssg62
g2959
sg55
(lp2966
S'wsgi.version'
p2967
asbag48
(g69
g50
NtRp2968
(dp2969
g53
(dp2970
g80
g81
ssg62
g2959
sg55
(lp2971
S':'
asbag48
(g69
g50
NtRp2972
(dp2973
g53
(dp2974
sg62
g2959
sg55
(lp2975
g48
(g49
g50
NtRp2976
(dp2977
g53
(dp2978
g61
I3
ssg62
g2972
sg55
(lp2979
S'1'
asbasbasbasbasbasbasbasbasbasbasbasbasbsS'frames'
p2980
(lp2981
(dp2982
S'file'
p2983
S'D:\\Dropbox\\Eclipse\\OJDevSourceProject\\project\\web2py\\gluon\\restricted.py'
p2984
sS'dump'
p2985
(dp2986
S'environment'
p2987
S"{'A': <class 'gluon.html.A'>, 'ALLOW_TOGGLE': 'true', 'B': <class 'gluon.html.B'>, 'BEAUTIFY': <class 'gluon.html.BEAUTIFY'>, 'BODY': <class 'gluon.html.BODY'>, 'BR': <class 'gluon.html.BR'>, 'BUTTON': <class 'gluon.html.BUTTON'>, 'CAT': <class 'gluon.html.CAT'>, 'CENTER': <class 'gluon.html.CENTER'>, 'CHECK_VERSION': True, ...}"
p2988
sS'ccode'
p2989
S'<code object <module> at 03764068, file "D:\\Drop...plications\\admin\\controllers/default.py", line 3>'
p2990
ssS'lnum'
p2991
I194
sS'lines'
p2992
(dp2993
I192
S'        else:'
p2994
sI193
S'            ccode = compile2(code,layer)'
p2995
sI194
S'        exec ccode in environment'
p2996
sI195
S'    except HTTP:'
p2997
sI196
S'        raise'
p2998
sI197
S'    except Exception, error:'
p2999
sI198
S'        # XXX Show exception in Wing IDE if running in debugger'
p3000
sI189
S'    try:'
p3001
sI190
S'        if type(code) == types.CodeType:'
p3002
sI191
S'            ccode = code'
p3003
ssS'call'
p3004
S"(code='# coding: utf8\\n\\nfrom gluon.admin import *\\nfrom g...\\n\\nresponse._vars=response._caller(check_version)\\n', environment={'A': <class 'gluon.html.A'>, 'ALLOW_TOGGLE': 'true', 'B': <class 'gluon.html.B'>, 'BEAUTIFY': <class 'gluon.html.BEAUTIFY'>, 'BODY': <class 'gluon.html.BODY'>, 'BR': <class 'gluon.html.BR'>, 'BUTTON': <class 'gluon.html.BUTTON'>, 'CAT': <class 'gluon.html.CAT'>, 'CENTER': <class 'gluon.html.CENTER'>, 'CHECK_VERSION': True, ...}, layer=r'D:\\Dropbox\\Eclipse\\OJDevSourceProject\\project\\web2py\\applications\\admin\\controllers/default.py')"
p3005
sS'func'
p3006
S'restricted'
p3007
sa(dp3008
g2983
S'D:\\Dropbox\\Eclipse\\OJDevSourceProject\\project\\web2py\\applications\\admin\\controllers\\default.py'
p3009
sg2985
(dp3010
sg2991
I1225
sg2992
(dp3011
I1216
S'    else:'
p3012
sI1217
S'        return dict(form=T("Disabled"))'
p3013
sI1218
S''
sI1219
S'def reload_routes():'
p3014
sI1220
S'    """ Reload routes.py """'
p3015
sI1221
S'    import gluon.rewrite'
p3016
sI1222
S'    gluon.rewrite.load()'
p3017
sI1223
S"    redirect(URL('site'))"
p3018
sI1214
S'            auth.settings.registration_requires_approval = False'
p3019
sI1215
S'        return dict(form=auth())'
p3020
ssg3004
S'()'
p3021
sg3006
S'<module>'
p3022
sa(dp3023
g2983
S'D:\\Dropbox\\Eclipse\\OJDevSourceProject\\project\\web2py\\gluon\\globals.py'
p3024
sg2985
(dp3025
S'self'
p3026
S'undefined'
p3027
sS'f'
S'<function check_version at 0x047E0330>'
p3028
ssg2991
I149
sg2992
(dp3029
I144
S'        self.meta = Storage()      # used by web2py_ajax.html'
p3030
sI145
S'        self.menu = []             # used by the default view layout'
p3031
sI146
S'        self.files = []            # used by web2py_ajax.html'
p3032
sI147
S'        self.generic_patterns = [] # patterns to allow generic views'
p3033
sI148
S'        self._vars = None'
p3034
sI149
S'        self._caller = lambda f: f()'
p3035
sI150
S'        self._view_environment = None'
p3036
sI151
S'        self._custom_commit = None'
p3037
sI152
S'        self._custom_rollback = None'
p3038
sI153
S''
ssg3004
S'(f=<function check_version at 0x047E0330>)'
p3039
sg3006
S'<lambda>'
p3040
sa(dp3041
g2983
S'D:\\Dropbox\\Eclipse\\OJDevSourceProject\\project\\web2py\\applications\\admin\\controllers\\default.py'
p3042
sg2985
(dp3043
S'global XML'
p3044
S"<class 'gluon.html.XML'>"
p3045
sS'version_number'
p3046
S"(1, 99, 4, datetime.datetime(2011, 12, 14, 14, 46, 14), 'stable')"
p3047
ssg2991
I105
sg2992
(dp3048
I100
S"        return A(T('web2py is up to date'), _href=WEB2PY_URL)"
p3049
sI101
S'    elif platform.system().lower() in (\'windows\',\'win32\',\'win64\') and os.path.exists("web2py.exe"):'
p3050
sI102
S"        return SPAN('You should upgrade to version %s' % version_number)"
p3051
sI103
S'    else:'
p3052
sI104
S"        return sp_button(URL('upgrade_web2py'), T('upgrade now')) \\"
p3053
sI105
S'          + XML(\' <strong class="upgrade_version">%s</strong>\' % version_number)'
p3054
sI106
S''
sI107
S''
sI108
S'def logout():'
p3055
sI109
S'    """ Logout handler """'
p3056
ssg3004
S'()'
p3057
sg3006
S'check_version'
p3058
sasS'pyver'
p3059
S'Python 2.5.4: C:\\python25\\python.exe'
p3060
sS'session'
p3061
g48
(g49
g50
NtRp3062
(dp3063
g53
(dp3064
sg55
(lp3065
g48
(g57
g50
NtRp3066
(dp3067
g53
(dp3068
g61
I5
ssg62
Nsg55
(lp3069
g48
(g64
g50
NtRp3070
(dp3071
g53
(dp3072
sg62
g3066
sg55
(lp3073
g48
(g69
g50
NtRp3074
(dp3075
g53
(dp3076
g73
g74
ssg62
g3070
sg55
(lp3077
S'authorized'
p3078
asbag48
(g69
g50
NtRp3079
(dp3080
g53
(dp3081
g80
g81
ssg62
g3070
sg55
(lp3082
S':'
asbag48
(g69
g50
NtRp3083
(dp3084
g53
(dp3085
sg62
g3070
sg55
(lp3086
g48
(g49
g50
NtRp3087
(dp3088
g53
(dp3089
g61
I5
ssg62
g3083
sg55
(lp3090
g91
asbasbasbag48
(g64
g50
NtRp3091
(dp3092
g53
(dp3093
sg62
g3066
sg55
(lp3094
g48
(g69
g50
NtRp3095
(dp3096
g53
(dp3097
g73
g74
ssg62
g3091
sg55
(lp3098
S'check_version'
p3099
asbag48
(g69
g50
NtRp3100
(dp3101
g53
(dp3102
g80
g81
ssg62
g3091
sg55
(lp3103
S':'
asbag48
(g69
g50
NtRp3104
(dp3105
g53
(dp3106
sg62
g3091
sg55
(lp3107
g48
(g49
g50
NtRp3108
(dp3109
g53
(dp3110
g61
I5
ssg62
g3104
sg55
(lp3111
g746
asbasbasbag48
(g64
g50
NtRp3112
(dp3113
g53
(dp3114
sg62
g3066
sg55
(lp3115
g48
(g69
g50
NtRp3116
(dp3117
g53
(dp3118
g73
g74
ssg62
g3112
sg55
(lp3119
S'last_time'
p3120
asbag48
(g69
g50
NtRp3121
(dp3122
g53
(dp3123
g80
g81
ssg62
g3112
sg55
(lp3124
S':'
asbag48
(g69
g50
NtRp3125
(dp3126
g53
(dp3127
sg62
g3112
sg55
(lp3128
g48
(g49
g50
NtRp3129
(dp3130
g53
(dp3131
g61
I5
ssg62
g3125
sg55
(lp3132
S'1327312140.513'
p3133
asbasbasbasbasbsS'etype'
p3134
S"<type 'exceptions.TypeError'>"
p3135
sS'date'
p3136
S'Mon Jan 23 20:49:00 2012'
p3137
sS'response'
p3138
g48
(g49
g50
NtRp3139
(dp3140
g53
(dp3141
sg55
(lp3142
g48
(g57
g50
NtRp3143
(dp3144
g53
(dp3145
g61
I5
ssg62
Nsg55
(lp3146
g48
(g64
g50
NtRp3147
(dp3148
g53
(dp3149
sg62
g3143
sg55
(lp3150
g48
(g69
g50
NtRp3151
(dp3152
g53
(dp3153
g73
g74
ssg62
g3147
sg55
(lp3154
g146
asbag48
(g69
g50
NtRp3155
(dp3156
g53
(dp3157
g80
g81
ssg62
g3147
sg55
(lp3158
S':'
asbag48
(g69
g50
NtRp3159
(dp3160
g53
(dp3161
sg62
g3147
sg55
(lp3162
g48
(g49
g50
NtRp3163
(dp3164
g53
(dp3165
g61
I5
ssg62
g3159
sg55
(lp3166
S'<cStringIO.StringO object at 0x045F5920>'
p3167
asbasbasbag48
(g64
g50
NtRp3168
(dp3169
g53
(dp3170
sg62
g3143
sg55
(lp3171
g48
(g69
g50
NtRp3172
(dp3173
g53
(dp3174
g73
g74
ssg62
g3168
sg55
(lp3175
g212
asbag48
(g69
g50
NtRp3176
(dp3177
g53
(dp3178
g80
g81
ssg62
g3168
sg55
(lp3179
S':'
asbag48
(g69
g50
NtRp3180
(dp3181
g53
(dp3182
sg62
g3168
sg55
(lp3183
g48
(g49
g50
NtRp3184
(dp3185
g53
(dp3186
g61
I5
ssg62
g3180
sg55
(lp3187
g48
(g57
g50
NtRp3188
(dp3189
g53
(dp3190
g61
I4
ssg62
Nsg55
(lp3191
g48
(g64
g50
NtRp3192
(dp3193
g53
(dp3194
sg62
g3188
sg55
(lp3195
g48
(g69
g50
NtRp3196
(dp3197
g53
(dp3198
g73
g74
ssg62
g3192
sg55
(lp3199
S'session_id_admin'
p3200
asbag48
(g69
g50
NtRp3201
(dp3202
g53
(dp3203
g80
g81
ssg62
g3192
sg55
(lp3204
S':'
asbag48
(g69
g50
NtRp3205
(dp3206
g53
(dp3207
sg62
g3192
sg55
(lp3208
g48
(g49
g50
NtRp3209
(dp3210
g53
(dp3211
g61
I4
ssg62
g3205
sg55
(lp3212
g48
(g57
g50
NtRp3213
(dp3214
g53
(dp3215
g61
I3
ssg62
Nsg55
(lp3216
g48
(g64
g50
NtRp3217
(dp3218
g53
(dp3219
sg62
g3213
sg55
(lp3220
g48
(g69
g50
NtRp3221
(dp3222
g53
(dp3223
g73
g74
ssg62
g3217
sg55
(lp3224
g262
asbag48
(g69
g50
NtRp3225
(dp3226
g53
(dp3227
g80
g81
ssg62
g3217
sg55
(lp3228
S':'
asbag48
(g69
g50
NtRp3229
(dp3230
g53
(dp3231
sg62
g3217
sg55
(lp3232
g48
(g49
g50
NtRp3233
(dp3234
g53
(dp3235
g61
I3
ssg62
g3229
sg55
(lp3236
S''
asbasbasbag48
(g64
g50
NtRp3237
(dp3238
g53
(dp3239
sg62
g3213
sg55
(lp3240
g48
(g69
g50
NtRp3241
(dp3242
g53
(dp3243
g73
g74
ssg62
g3237
sg55
(lp3244
g283
asbag48
(g69
g50
NtRp3245
(dp3246
g53
(dp3247
g80
g81
ssg62
g3237
sg55
(lp3248
S':'
asbag48
(g69
g50
NtRp3249
(dp3250
g53
(dp3251
sg62
g3237
sg55
(lp3252
g48
(g49
g50
NtRp3253
(dp3254
g53
(dp3255
g61
I3
ssg62
g3249
sg55
(lp3256
S''
asbasbasbag48
(g64
g50
NtRp3257
(dp3258
g53
(dp3259
sg62
g3213
sg55
(lp3260
g48
(g69
g50
NtRp3261
(dp3262
g53
(dp3263
g73
g74
ssg62
g3257
sg55
(lp3264
g304
asbag48
(g69
g50
NtRp3265
(dp3266
g53
(dp3267
g80
g81
ssg62
g3257
sg55
(lp3268
S':'
asbag48
(g69
g50
NtRp3269
(dp3270
g53
(dp3271
sg62
g3257
sg55
(lp3272
g48
(g49
g50
NtRp3273
(dp3274
g53
(dp3275
g61
I3
ssg62
g3269
sg55
(lp3276
S''
asbasbasbag48
(g64
g50
NtRp3277
(dp3278
g53
(dp3279
sg62
g3213
sg55
(lp3280
g48
(g69
g50
NtRp3281
(dp3282
g53
(dp3283
g73
g74
ssg62
g3277
sg55
(lp3284
g325
asbag48
(g69
g50
NtRp3285
(dp3286
g53
(dp3287
g80
g81
ssg62
g3277
sg55
(lp3288
S':'
asbag48
(g69
g50
NtRp3289
(dp3290
g53
(dp3291
sg62
g3277
sg55
(lp3292
g48
(g49
g50
NtRp3293
(dp3294
g53
(dp3295
g61
I3
ssg62
g3289
sg55
(lp3296
S''
asbasbasbag48
(g64
g50
NtRp3297
(dp3298
g53
(dp3299
sg62
g3213
sg55
(lp3300
g48
(g69
g50
NtRp3301
(dp3302
g53
(dp3303
g73
g74
ssg62
g3297
sg55
(lp3304
g346
asbag48
(g69
g50
NtRp3305
(dp3306
g53
(dp3307
g80
g81
ssg62
g3297
sg55
(lp3308
S':'
asbag48
(g69
g50
NtRp3309
(dp3310
g53
(dp3311
sg62
g3297
sg55
(lp3312
g48
(g49
g50
NtRp3313
(dp3314
g53
(dp3315
g61
I3
ssg62
g3309
sg55
(lp3316
S'/'
asbasbasbag48
(g64
g50
NtRp3317
(dp3318
g53
(dp3319
sg62
g3213
sg55
(lp3320
g48
(g69
g50
NtRp3321
(dp3322
g53
(dp3323
g73
g74
ssg62
g3317
sg55
(lp3324
g367
asbag48
(g69
g50
NtRp3325
(dp3326
g53
(dp3327
g80
g81
ssg62
g3317
sg55
(lp3328
S':'
asbag48
(g69
g50
NtRp3329
(dp3330
g53
(dp3331
sg62
g3317
sg55
(lp3332
g48
(g49
g50
NtRp3333
(dp3334
g53
(dp3335
g61
I3
ssg62
g3329
sg55
(lp3336
S''
asbasbasbag48
(g64
g50
NtRp3337
(dp3338
g53
(dp3339
sg62
g3213
sg55
(lp3340
g48
(g69
g50
NtRp3341
(dp3342
g53
(dp3343
g73
g74
ssg62
g3337
sg55
(lp3344
g388
asbag48
(g69
g50
NtRp3345
(dp3346
g53
(dp3347
g80
g81
ssg62
g3337
sg55
(lp3348
S':'
asbag48
(g69
g50
NtRp3349
(dp3350
g53
(dp3351
sg62
g3337
sg55
(lp3352
g48
(g49
g50
NtRp3353
(dp3354
g53
(dp3355
g61
I3
ssg62
g3349
sg55
(lp3356
S''
asbasbasbasbasbasbasbasbasbasbasbag48
(g64
g50
NtRp3357
(dp3358
g53
(dp3359
sg62
g3143
sg55
(lp3360
g48
(g69
g50
NtRp3361
(dp3362
g53
(dp3363
g73
g74
ssg62
g3357
sg55
(lp3364
S'files'
p3365
asbag48
(g69
g50
NtRp3366
(dp3367
g53
(dp3368
g80
g81
ssg62
g3357
sg55
(lp3369
S':'
asbag48
(g69
g50
NtRp3370
(dp3371
g53
(dp3372
sg62
g3357
sg55
(lp3373
g48
(g49
g50
NtRp3374
(dp3375
g53
(dp3376
g61
I5
ssg62
g3370
sg55
(lp3377
g48
(g57
g50
NtRp3378
(dp3379
g53
(dp3380
g61
I4
ssg62
Nsg55
(lp3381
g48
(g64
g50
NtRp3382
(dp3383
g53
(dp3384
sg62
g3378
sg55
(lp3385
g48
(g69
g50
NtRp3386
(dp3387
g53
(dp3388
sg62
g3382
sg55
(lp3389
g48
(g49
g50
NtRp3390
(dp3391
g53
(dp3392
g61
I4
ssg62
g3386
sg55
(lp3393
S'/admin/static/plugin_multiselect/jquery.dimensions.js'
p3394
asbasbasbag48
(g64
g50
NtRp3395
(dp3396
g53
(dp3397
sg62
g3378
sg55
(lp3398
g48
(g69
g50
NtRp3399
(dp3400
g53
(dp3401
sg62
g3395
sg55
(lp3402
g48
(g49
g50
NtRp3403
(dp3404
g53
(dp3405
g61
I4
ssg62
g3399
sg55
(lp3406
S'/admin/static/plugin_multiselect/jquery.multiselect.js'
p3407
asbasbasbag48
(g64
g50
NtRp3408
(dp3409
g53
(dp3410
sg62
g3378
sg55
(lp3411
g48
(g69
g50
NtRp3412
(dp3413
g53
(dp3414
sg62
g3408
sg55
(lp3415
g48
(g49
g50
NtRp3416
(dp3417
g53
(dp3418
g61
I4
ssg62
g3412
sg55
(lp3419
S'/admin/static/plugin_multiselect/jquery.multiselect.css'
p3420
asbasbasbag48
(g64
g50
NtRp3421
(dp3422
g53
(dp3423
sg62
g3378
sg55
(lp3424
g48
(g69
g50
NtRp3425
(dp3426
g53
(dp3427
sg62
g3421
sg55
(lp3428
g48
(g49
g50
NtRp3429
(dp3430
g53
(dp3431
g61
I4
ssg62
g3425
sg55
(lp3432
S'/admin/static/plugin_multiselect/start.js'
p3433
asbasbasbasbasbasbasbag48
(g64
g50
NtRp3434
(dp3435
g53
(dp3436
sg62
g3143
sg55
(lp3437
g48
(g69
g50
NtRp3438
(dp3439
g53
(dp3440
g73
g74
ssg62
g3434
sg55
(lp3441
S'flash'
p3442
asbag48
(g69
g50
NtRp3443
(dp3444
g53
(dp3445
g80
g81
ssg62
g3434
sg55
(lp3446
S':'
asbag48
(g69
g50
NtRp3447
(dp3448
g53
(dp3449
sg62
g3434
sg55
(lp3450
g48
(g49
g50
NtRp3451
(dp3452
g53
(dp3453
g61
I5
ssg62
g3447
sg55
(lp3454
S''
asbasbasbag48
(g64
g50
NtRp3455
(dp3456
g53
(dp3457
sg62
g3143
sg55
(lp3458
g48
(g69
g50
NtRp3459
(dp3460
g53
(dp3461
g73
g74
ssg62
g3455
sg55
(lp3462
S'generic_patterns'
p3463
asbag48
(g69
g50
NtRp3464
(dp3465
g53
(dp3466
g80
g81
ssg62
g3455
sg55
(lp3467
S':'
asbag48
(g69
g50
NtRp3468
(dp3469
g53
(dp3470
sg62
g3455
sg55
(lp3471
g48
(g49
g50
NtRp3472
(dp3473
g53
(dp3474
g61
I5
ssg62
g3468
sg55
(lp3475
g48
(g57
g50
NtRp3476
(dp3477
g53
(dp3478
g61
I4
ssg62
Nsg55
(lp3479
sbasbasbasbag48
(g64
g50
NtRp3480
(dp3481
g53
(dp3482
sg62
g3143
sg55
(lp3483
g48
(g69
g50
NtRp3484
(dp3485
g53
(dp3486
g73
g74
ssg62
g3480
sg55
(lp3487
S'headers'
p3488
asbag48
(g69
g50
NtRp3489
(dp3490
g53
(dp3491
g80
g81
ssg62
g3480
sg55
(lp3492
S':'
asbag48
(g69
g50
NtRp3493
(dp3494
g53
(dp3495
sg62
g3480
sg55
(lp3496
g48
(g49
g50
NtRp3497
(dp3498
g53
(dp3499
g61
I5
ssg62
g3493
sg55
(lp3500
g48
(g57
g50
NtRp3501
(dp3502
g53
(dp3503
g61
I4
ssg62
Nsg55
(lp3504
g48
(g64
g50
NtRp3505
(dp3506
g53
(dp3507
sg62
g3501
sg55
(lp3508
g48
(g69
g50
NtRp3509
(dp3510
g53
(dp3511
g73
g74
ssg62
g3505
sg55
(lp3512
S'Cache-Control'
p3513
asbag48
(g69
g50
NtRp3514
(dp3515
g53
(dp3516
g80
g81
ssg62
g3505
sg55
(lp3517
S':'
asbag48
(g69
g50
NtRp3518
(dp3519
g53
(dp3520
sg62
g3505
sg55
(lp3521
g48
(g49
g50
NtRp3522
(dp3523
g53
(dp3524
g61
I4
ssg62
g3518
sg55
(lp3525
S'no-store, no-cache, must-revalidate, post-check=0, pre-check=0'
p3526
asbasbasbag48
(g64
g50
NtRp3527
(dp3528
g53
(dp3529
sg62
g3501
sg55
(lp3530
g48
(g69
g50
NtRp3531
(dp3532
g53
(dp3533
g73
g74
ssg62
g3527
sg55
(lp3534
S'Content-Type'
p3535
asbag48
(g69
g50
NtRp3536
(dp3537
g53
(dp3538
g80
g81
ssg62
g3527
sg55
(lp3539
S':'
asbag48
(g69
g50
NtRp3540
(dp3541
g53
(dp3542
sg62
g3527
sg55
(lp3543
g48
(g49
g50
NtRp3544
(dp3545
g53
(dp3546
g61
I4
ssg62
g3540
sg55
(lp3547
S'text/html; charset=utf-8'
p3548
asbasbasbag48
(g64
g50
NtRp3549
(dp3550
g53
(dp3551
sg62
g3501
sg55
(lp3552
g48
(g69
g50
NtRp3553
(dp3554
g53
(dp3555
g73
g74
ssg62
g3549
sg55
(lp3556
S'Expires'
p3557
asbag48
(g69
g50
NtRp3558
(dp3559
g53
(dp3560
g80
g81
ssg62
g3549
sg55
(lp3561
S':'
asbag48
(g69
g50
NtRp3562
(dp3563
g53
(dp3564
sg62
g3549
sg55
(lp3565
g48
(g49
g50
NtRp3566
(dp3567
g53
(dp3568
g61
I4
ssg62
g3562
sg55
(lp3569
S'Mon, 23 Jan 2012 09:49:00 GMT'
p3570
asbasbasbag48
(g64
g50
NtRp3571
(dp3572
g53
(dp3573
sg62
g3501
sg55
(lp3574
g48
(g69
g50
NtRp3575
(dp3576
g53
(dp3577
g73
g74
ssg62
g3571
sg55
(lp3578
S'NingNang'
p3579
asbag48
(g69
g50
NtRp3580
(dp3581
g53
(dp3582
g80
g81
ssg62
g3571
sg55
(lp3583
S':'
asbag48
(g69
g50
NtRp3584
(dp3585
g53
(dp3586
sg62
g3571
sg55
(lp3587
g48
(g49
g50
NtRp3588
(dp3589
g53
(dp3590
g61
I4
ssg62
g3584
sg55
(lp3591
S'Nong'
p3592
asbasbasbag48
(g64
g50
NtRp3593
(dp3594
g53
(dp3595
sg62
g3501
sg55
(lp3596
g48
(g69
g50
NtRp3597
(dp3598
g53
(dp3599
g73
g74
ssg62
g3593
sg55
(lp3600
S'Pragma'
p3601
asbag48
(g69
g50
NtRp3602
(dp3603
g53
(dp3604
g80
g81
ssg62
g3593
sg55
(lp3605
S':'
asbag48
(g69
g50
NtRp3606
(dp3607
g53
(dp3608
sg62
g3593
sg55
(lp3609
g48
(g49
g50
NtRp3610
(dp3611
g53
(dp3612
g61
I4
ssg62
g3606
sg55
(lp3613
S'no-cache'
p3614
asbasbasbasbasbasbasbag48
(g64
g50
NtRp3615
(dp3616
g53
(dp3617
sg62
g3143
sg55
(lp3618
g48
(g69
g50
NtRp3619
(dp3620
g53
(dp3621
g73
g74
ssg62
g3615
sg55
(lp3622
S'menu'
p3623
asbag48
(g69
g50
NtRp3624
(dp3625
g53
(dp3626
g80
g81
ssg62
g3615
sg55
(lp3627
S':'
asbag48
(g69
g50
NtRp3628
(dp3629
g53
(dp3630
sg62
g3615
sg55
(lp3631
g48
(g49
g50
NtRp3632
(dp3633
g53
(dp3634
g61
I5
ssg62
g3628
sg55
(lp3635
g48
(g57
g50
NtRp3636
(dp3637
g53
(dp3638
g61
I4
ssg62
Nsg55
(lp3639
g48
(g64
g50
NtRp3640
(dp3641
g53
(dp3642
sg62
g3636
sg55
(lp3643
g48
(g69
g50
NtRp3644
(dp3645
g53
(dp3646
sg62
g3640
sg55
(lp3647
g48
(g49
g50
NtRp3648
(dp3649
g53
(dp3650
g61
I4
ssg62
g3644
sg55
(lp3651
g48
(g57
g50
NtRp3652
(dp3653
g53
(dp3654
g61
I3
ssg62
Nsg55
(lp3655
g48
(g64
g50
NtRp3656
(dp3657
g53
(dp3658
sg62
g3652
sg55
(lp3659
g48
(g69
g50
NtRp3660
(dp3661
g53
(dp3662
sg62
g3656
sg55
(lp3663
g48
(g49
g50
NtRp3664
(dp3665
g53
(dp3666
g61
I3
ssg62
g3660
sg55
(lp3667
cgluon.languages
lazyT_unpickle
p3668
(S's\x04\x00\x00\x00Site'
tRp3669
asbasbasbag48
(g64
g50
NtRp3670
(dp3671
g53
(dp3672
sg62
g3652
sg55
(lp3673
g48
(g69
g50
NtRp3674
(dp3675
g53
(dp3676
sg62
g3670
sg55
(lp3677
g48
(g49
g50
NtRp3678
(dp3679
g53
(dp3680
g61
I3
ssg62
g3674
sg55
(lp3681
g746
asbasbasbag48
(g64
g50
NtRp3682
(dp3683
g53
(dp3684
sg62
g3652
sg55
(lp3685
g48
(g69
g50
NtRp3686
(dp3687
g53
(dp3688
sg62
g3682
sg55
(lp3689
g48
(g49
g50
NtRp3690
(dp3691
g53
(dp3692
g61
I3
ssg62
g3686
sg55
(lp3693
S'/admin/default/site'
p3694
asbasbasbasbasbasbasbag48
(g64
g50
NtRp3695
(dp3696
g53
(dp3697
sg62
g3636
sg55
(lp3698
g48
(g69
g50
NtRp3699
(dp3700
g53
(dp3701
sg62
g3695
sg55
(lp3702
g48
(g49
g50
NtRp3703
(dp3704
g53
(dp3705
g61
I4
ssg62
g3699
sg55
(lp3706
g48
(g57
g50
NtRp3707
(dp3708
g53
(dp3709
g61
I3
ssg62
Nsg55
(lp3710
g48
(g64
g50
NtRp3711
(dp3712
g53
(dp3713
sg62
g3707
sg55
(lp3714
g48
(g69
g50
NtRp3715
(dp3716
g53
(dp3717
sg62
g3711
sg55
(lp3718
g48
(g49
g50
NtRp3719
(dp3720
g53
(dp3721
g61
I3
ssg62
g3715
sg55
(lp3722
g3668
(S's\x06\x00\x00\x00Logout'
tRp3723
asbasbasbag48
(g64
g50
NtRp3724
(dp3725
g53
(dp3726
sg62
g3707
sg55
(lp3727
g48
(g69
g50
NtRp3728
(dp3729
g53
(dp3730
sg62
g3724
sg55
(lp3731
g48
(g49
g50
NtRp3732
(dp3733
g53
(dp3734
g61
I3
ssg62
g3728
sg55
(lp3735
g746
asbasbasbag48
(g64
g50
NtRp3736
(dp3737
g53
(dp3738
sg62
g3707
sg55
(lp3739
g48
(g69
g50
NtRp3740
(dp3741
g53
(dp3742
sg62
g3736
sg55
(lp3743
g48
(g49
g50
NtRp3744
(dp3745
g53
(dp3746
g61
I3
ssg62
g3740
sg55
(lp3747
S'/admin/default/logout'
p3748
asbasbasbasbasbasbasbag48
(g64
g50
NtRp3749
(dp3750
g53
(dp3751
sg62
g3636
sg55
(lp3752
g48
(g69
g50
NtRp3753
(dp3754
g53
(dp3755
sg62
g3749
sg55
(lp3756
g48
(g49
g50
NtRp3757
(dp3758
g53
(dp3759
g61
I4
ssg62
g3753
sg55
(lp3760
g48
(g57
g50
NtRp3761
(dp3762
g53
(dp3763
g61
I3
ssg62
Nsg55
(lp3764
g48
(g64
g50
NtRp3765
(dp3766
g53
(dp3767
sg62
g3761
sg55
(lp3768
g48
(g69
g50
NtRp3769
(dp3770
g53
(dp3771
sg62
g3765
sg55
(lp3772
g48
(g49
g50
NtRp3773
(dp3774
g53
(dp3775
g61
I3
ssg62
g3769
sg55
(lp3776
g3668
(S's\x04\x00\x00\x00Help'
tRp3777
asbasbasbag48
(g64
g50
NtRp3778
(dp3779
g53
(dp3780
sg62
g3761
sg55
(lp3781
g48
(g69
g50
NtRp3782
(dp3783
g53
(dp3784
sg62
g3778
sg55
(lp3785
g48
(g49
g50
NtRp3786
(dp3787
g53
(dp3788
g61
I3
ssg62
g3782
sg55
(lp3789
g746
asbasbasbag48
(g64
g50
NtRp3790
(dp3791
g53
(dp3792
sg62
g3761
sg55
(lp3793
g48
(g69
g50
NtRp3794
(dp3795
g53
(dp3796
sg62
g3790
sg55
(lp3797
g48
(g49
g50
NtRp3798
(dp3799
g53
(dp3800
g61
I3
ssg62
g3794
sg55
(lp3801
S'/examples/default/index'
p3802
asbasbasbasbasbasbasbasbasbasbasbag48
(g64
g50
NtRp3803
(dp3804
g53
(dp3805
sg62
g3143
sg55
(lp3806
g48
(g69
g50
NtRp3807
(dp3808
g53
(dp3809
g73
g74
ssg62
g3803
sg55
(lp3810
S'meta'
p3811
asbag48
(g69
g50
NtRp3812
(dp3813
g53
(dp3814
g80
g81
ssg62
g3803
sg55
(lp3815
S':'
asbag48
(g69
g50
NtRp3816
(dp3817
g53
(dp3818
sg62
g3803
sg55
(lp3819
g48
(g49
g50
NtRp3820
(dp3821
g53
(dp3822
g61
I5
ssg62
g3816
sg55
(lp3823
g48
(g57
g50
NtRp3824
(dp3825
g53
(dp3826
g61
I4
ssg62
Nsg55
(lp3827
sbasbasbasbag48
(g64
g50
NtRp3828
(dp3829
g53
(dp3830
sg62
g3143
sg55
(lp3831
g48
(g69
g50
NtRp3832
(dp3833
g53
(dp3834
g73
g74
ssg62
g3828
sg55
(lp3835
S'postprocessing'
p3836
asbag48
(g69
g50
NtRp3837
(dp3838
g53
(dp3839
g80
g81
ssg62
g3828
sg55
(lp3840
S':'
asbag48
(g69
g50
NtRp3841
(dp3842
g53
(dp3843
sg62
g3828
sg55
(lp3844
g48
(g49
g50
NtRp3845
(dp3846
g53
(dp3847
g61
I5
ssg62
g3841
sg55
(lp3848
g48
(g57
g50
NtRp3849
(dp3850
g53
(dp3851
g61
I4
ssg62
Nsg55
(lp3852
sbasbasbasbag48
(g64
g50
NtRp3853
(dp3854
g53
(dp3855
sg62
g3143
sg55
(lp3856
g48
(g69
g50
NtRp3857
(dp3858
g53
(dp3859
g73
g74
ssg62
g3853
sg55
(lp3860
S'session_file'
p3861
asbag48
(g69
g50
NtRp3862
(dp3863
g53
(dp3864
g80
g81
ssg62
g3853
sg55
(lp3865
S':'
asbag48
(g69
g50
NtRp3866
(dp3867
g53
(dp3868
sg62
g3853
sg55
(lp3869
g48
(g49
g50
NtRp3870
(dp3871
g53
(dp3872
g61
I5
ssg62
g3866
sg55
(lp3873
S"<open file 'D:\\Dropbox\\Eclipse\\OJDevSourceProject\\project\\web2py\\applications\\admin\\sessions\\127.0.0.1-4d97c160-9cf8-4b46-a79e-1902d9276e64', mode 'rb+' at 0x09DF8770>"
p3874
asbasbasbag48
(g64
g50
NtRp3875
(dp3876
g53
(dp3877
sg62
g3143
sg55
(lp3878
g48
(g69
g50
NtRp3879
(dp3880
g53
(dp3881
g73
g74
ssg62
g3875
sg55
(lp3882
S'session_filename'
p3883
asbag48
(g69
g50
NtRp3884
(dp3885
g53
(dp3886
g80
g81
ssg62
g3875
sg55
(lp3887
S':'
asbag48
(g69
g50
NtRp3888
(dp3889
g53
(dp3890
sg62
g3875
sg55
(lp3891
g48
(g49
g50
NtRp3892
(dp3893
g53
(dp3894
g61
I5
ssg62
g3888
sg55
(lp3895
S'D:\\Dropbox\\Eclipse\\OJDevSourceProject\\project\\web2py\\applications\\admin\\sessions\\127.0.0.1-4d97c160-9cf8-4b46-a79e-1902d9276e64'
p3896
asbasbasbag48
(g64
g50
NtRp3897
(dp3898
g53
(dp3899
sg62
g3143
sg55
(lp3900
g48
(g69
g50
NtRp3901
(dp3902
g53
(dp3903
g73
g74
ssg62
g3897
sg55
(lp3904
S'session_id'
p3905
asbag48
(g69
g50
NtRp3906
(dp3907
g53
(dp3908
g80
g81
ssg62
g3897
sg55
(lp3909
S':'
asbag48
(g69
g50
NtRp3910
(dp3911
g53
(dp3912
sg62
g3897
sg55
(lp3913
g48
(g49
g50
NtRp3914
(dp3915
g53
(dp3916
g61
I5
ssg62
g3910
sg55
(lp3917
S'127.0.0.1-4d97c160-9cf8-4b46-a79e-1902d9276e64'
p3918
asbasbasbag48
(g64
g50
NtRp3919
(dp3920
g53
(dp3921
sg62
g3143
sg55
(lp3922
g48
(g69
g50
NtRp3923
(dp3924
g53
(dp3925
g73
g74
ssg62
g3919
sg55
(lp3926
S'session_id_name'
p3927
asbag48
(g69
g50
NtRp3928
(dp3929
g53
(dp3930
g80
g81
ssg62
g3919
sg55
(lp3931
S':'
asbag48
(g69
g50
NtRp3932
(dp3933
g53
(dp3934
sg62
g3919
sg55
(lp3935
g48
(g49
g50
NtRp3936
(dp3937
g53
(dp3938
g61
I5
ssg62
g3932
sg55
(lp3939
g3200
asbasbasbag48
(g64
g50
NtRp3940
(dp3941
g53
(dp3942
sg62
g3143
sg55
(lp3943
g48
(g69
g50
NtRp3944
(dp3945
g53
(dp3946
g73
g74
ssg62
g3940
sg55
(lp3947
S'session_locked'
p3948
asbag48
(g69
g50
NtRp3949
(dp3950
g53
(dp3951
g80
g81
ssg62
g3940
sg55
(lp3952
S':'
asbag48
(g69
g50
NtRp3953
(dp3954
g53
(dp3955
sg62
g3940
sg55
(lp3956
g48
(g49
g50
NtRp3957
(dp3958
g53
(dp3959
g61
I5
ssg62
g3953
sg55
(lp3960
g746
asbasbasbag48
(g64
g50
NtRp3961
(dp3962
g53
(dp3963
sg62
g3143
sg55
(lp3964
g48
(g69
g50
NtRp3965
(dp3966
g53
(dp3967
g73
g74
ssg62
g3961
sg55
(lp3968
S'session_new'
p3969
asbag48
(g69
g50
NtRp3970
(dp3971
g53
(dp3972
g80
g81
ssg62
g3961
sg55
(lp3973
S':'
asbag48
(g69
g50
NtRp3974
(dp3975
g53
(dp3976
sg62
g3961
sg55
(lp3977
g48
(g49
g50
NtRp3978
(dp3979
g53
(dp3980
g61
I5
ssg62
g3974
sg55
(lp3981
g746
asbasbasbag48
(g64
g50
NtRp3982
(dp3983
g53
(dp3984
sg62
g3143
sg55
(lp3985
g48
(g69
g50
NtRp3986
(dp3987
g53
(dp3988
g73
g74
ssg62
g3982
sg55
(lp3989
S'status'
p3990
asbag48
(g69
g50
NtRp3991
(dp3992
g53
(dp3993
g80
g81
ssg62
g3982
sg55
(lp3994
S':'
asbag48
(g69
g50
NtRp3995
(dp3996
g53
(dp3997
sg62
g3982
sg55
(lp3998
g48
(g49
g50
NtRp3999
(dp4000
g53
(dp4001
g61
I5
ssg62
g3995
sg55
(lp4002
S'200'
p4003
asbasbasbag48
(g64
g50
NtRp4004
(dp4005
g53
(dp4006
sg62
g3143
sg55
(lp4007
g48
(g69
g50
NtRp4008
(dp4009
g53
(dp4010
g73
g74
ssg62
g4004
sg55
(lp4011
S'subtitle'
p4012
asbag48
(g69
g50
NtRp4013
(dp4014
g53
(dp4015
g80
g81
ssg62
g4004
sg55
(lp4016
S':'
asbag48
(g69
g50
NtRp4017
(dp4018
g53
(dp4019
sg62
g4004
sg55
(lp4020
g48
(g49
g50
NtRp4021
(dp4022
g53
(dp4023
g61
I5
ssg62
g4017
sg55
(lp4024
S'admin'
p4025
asbasbasbag48
(g64
g50
NtRp4026
(dp4027
g53
(dp4028
sg62
g3143
sg55
(lp4029
g48
(g69
g50
NtRp4030
(dp4031
g53
(dp4032
g73
g74
ssg62
g4026
sg55
(lp4033
S'title'
p4034
asbag48
(g69
g50
NtRp4035
(dp4036
g53
(dp4037
g80
g81
ssg62
g4026
sg55
(lp4038
S':'
asbag48
(g69
g50
NtRp4039
(dp4040
g53
(dp4041
sg62
g4026
sg55
(lp4042
g48
(g49
g50
NtRp4043
(dp4044
g53
(dp4045
g61
I5
ssg62
g4039
sg55
(lp4046
S'check_version '
p4047
asbasbasbag48
(g64
g50
NtRp4048
(dp4049
g53
(dp4050
sg62
g3143
sg55
(lp4051
g48
(g69
g50
NtRp4052
(dp4053
g53
(dp4054
g73
g74
ssg62
g4048
sg55
(lp4055
g2195
asbag48
(g69
g50
NtRp4056
(dp4057
g53
(dp4058
g80
g81
ssg62
g4048
sg55
(lp4059
S':'
asbag48
(g69
g50
NtRp4060
(dp4061
g53
(dp4062
sg62
g4048
sg55
(lp4063
g48
(g49
g50
NtRp4064
(dp4065
g53
(dp4066
g61
I5
ssg62
g4060
sg55
(lp4067
g2208
asbasbasbag48
(g64
g50
NtRp4068
(dp4069
g53
(dp4070
sg62
g3143
sg55
(lp4071
g48
(g69
g50
NtRp4072
(dp4073
g53
(dp4074
g73
g74
ssg62
g4068
sg55
(lp4075
S'view'
p4076
asbag48
(g69
g50
NtRp4077
(dp4078
g53
(dp4079
g80
g81
ssg62
g4068
sg55
(lp4080
S':'
asbag48
(g69
g50
NtRp4081
(dp4082
g53
(dp4083
sg62
g4068
sg55
(lp4084
g48
(g49
g50
NtRp4085
(dp4086
g53
(dp4087
g61
I5
ssg62
g4081
sg55
(lp4088
S'default/check_version.html'
p4089
asbasbasbasbasbsS'locals'
p4090
(dp4091
S'version_number'
p4092
S"(1, 99, 4, datetime.datetime(2011, 12, 14, 14, 46, 14), 'stable')"
p4093
sS'new_version'
p4094
g91
sssS'traceback'
p4095
S'Traceback (most recent call last):\n  File "D:\\Dropbox\\Eclipse\\OJDevSourceProject\\project\\web2py\\gluon\\restricted.py", line 194, in restricted\n    exec ccode in environment\n  File "D:\\Dropbox\\Eclipse\\OJDevSourceProject\\project\\web2py\\applications\\admin\\controllers/default.py", line 1225, in <module>\n  File "D:\\Dropbox\\Eclipse\\OJDevSourceProject\\project\\web2py\\gluon\\globals.py", line 149, in <lambda>\n    self._caller = lambda f: f()\n  File "D:\\Dropbox\\Eclipse\\OJDevSourceProject\\project\\web2py\\applications\\admin\\controllers/default.py", line 105, in check_version\n    + XML(\' <strong class="upgrade_version">%s</strong>\' % version_number)\nTypeError: not all arguments converted during string formatting\n'
p4096
s.