(dp1
S'output'
p2
S''
sS'layer'
p3
S'C:\\webapps\\dopbox\\Dropbox\\Eclipse\\OJDevSourceProject\\project\\web2py\\applications\\admin\\controllers/default.py'
p4
sS'code'
p5
S'# coding: utf8\n\nfrom gluon.admin import *\nfrom gluon.fileutils import abspath, read_file, write_file\nfrom glob import glob\nimport shutil\nimport platform\n\nif DEMO_MODE and request.function in [\'change_password\',\'pack\',\'pack_plugin\',\'upgrade_web2py\',\'uninstall\',\'cleanup\',\'compile_app\',\'remove_compiled_app\',\'delete\',\'delete_plugin\',\'create_file\',\'upload_file\',\'update_languages\',\'reload_routes\']:\n    session.flash = T(\'disabled in demo mode\')\n    redirect(URL(\'site\'))\n\nif not is_manager() and request.function in [\'change_password\',\'upgrade_web2py\']:\n    session.flash = T(\'disabled in multi user mode\')\n    redirect(URL(\'site\'))\n\nif FILTER_APPS and request.args(0) and not request.args(0) in FILTER_APPS:\n    session.flash = T(\'disabled in demo mode\')\n    redirect(URL(\'site\'))\n\ndef safe_open(a,b):\n    if DEMO_MODE and \'w\' in b:\n        class tmp:\n            def write(self,data): pass\n        return tmp()\n    return open(a,b)\n\ndef safe_read(a, b=\'r\'):\n    safe_file = safe_open(a, b)\n    try:\n        return safe_file.read()\n    finally:\n        safe_file.close()\n\ndef safe_write(a, value, b=\'w\'):\n    safe_file = safe_open(a, b)\n    try:\n        safe_file.write(value)\n    finally:\n        safe_file.close()\n\ndef get_app(name=None):\n    app = name or request.args(0)\n    if app and (not MULTI_USER_MODE or db(db.app.name==app)(db.app.owner==auth.user.id).count()):\n        return app\n    session.flash = \'App does not exist or your are not authorized\'\n    redirect(URL(\'site\'))\n\ndef index():\n    """ Index handler """\n\n    send = request.vars.send\n    if DEMO_MODE:\n        session.authorized = True\n        session.last_time = t0\n    if not send:\n        send = URL(\'site\')\n    if session.authorized:\n        redirect(send)\n    elif request.vars.password:\n        if verify_password(request.vars.password):\n            session.authorized = True\n            login_record(True)\n\n            if CHECK_VERSION:\n                session.check_version = True\n            else:\n                session.check_version = False\n\n            session.last_time = t0\n            if isinstance(send, list):  # ## why does this happen?\n                send = str(send[0])\n\n            redirect(send)\n        else:\n            times_denied = login_record(False)\n            if times_denied >= allowed_number_of_attempts:\n                response.flash = \\\n                    T(\'admin disabled because too many invalid login attempts\')\n            elif times_denied == allowed_number_of_attempts - 1:\n                response.flash = \\\n                    T(\'You have one more login attempt before you are locked out\')\n            else:\n                response.flash = T(\'invalid password.\')\n    return dict(send=send)\n\n\ndef check_version():\n    """ Checks if web2py is up to date """\n\n    session.forget()\n    session._unlock(response)\n\n    new_version, version_number = check_new_version(request.env.web2py_version,\n                                    WEB2PY_VERSION_URL)\n\n    if new_version == -1:\n        return A(T(\'Unable to check for upgrades\'), _href=WEB2PY_URL)\n    elif new_version != True:\n        return A(T(\'web2py is up to date\'), _href=WEB2PY_URL)\n    elif platform.system().lower() in (\'windows\',\'win32\',\'win64\') and os.path.exists("web2py.exe"):\n        return SPAN(\'You should upgrade to version %s\' % version_number)\n    else:\n        return sp_button(URL(\'upgrade_web2py\'), T(\'upgrade now\')) \\\n          + XML(\' <strong class="upgrade_version">%s</strong>\' % version_number)\n\n\ndef logout():\n    """ Logout handler """\n    session.authorized = None\n    if MULTI_USER_MODE:\n        redirect(URL(\'user/logout\'))\n    redirect(URL(\'index\'))\n\n\ndef change_password():\n\n    if session.pam_user:\n        session.flash = T(\'PAM authenticated user, cannot change password here\')\n        redirect(URL(\'site\'))\n    form=SQLFORM.factory(Field(\'current_admin_password\',\'password\'),\n                         Field(\'new_admin_password\',\'password\',requires=IS_STRONG()),\n                         Field(\'new_admin_password_again\',\'password\'))\n    if form.accepts(request.vars):\n        if not verify_password(request.vars.current_admin_password):\n            form.errors.current_admin_password = T(\'invalid password\')\n        elif form.vars.new_admin_password != form.vars.new_admin_password_again:\n            form.errors.new_admin_password_again = T(\'no match\')\n        else:\n            path = abspath(\'parameters_%s.py\' % request.env.server_port)\n            safe_write(path, \'password="%s"\' % CRYPT()(request.vars.new_admin_password)[0])\n            session.flash = T(\'password changed\')\n            redirect(URL(\'site\'))\n    return dict(form=form)\n\ndef site():\n    """ Site handler """\n\n    myversion = request.env.web2py_version\n\n    # Shortcut to make the elif statements more legible\n    file_or_appurl = \'file\' in request.vars or \'appurl\' in request.vars\n\n    if DEMO_MODE:\n        pass\n\n    elif request.vars.filename and not \'file\' in request.vars:\n        # create a new application\n        appname = cleanpath(request.vars.filename).replace(\'.\', \'_\')\n        if app_create(appname, request):\n            if MULTI_USER_MODE:\n                db.app.insert(name=appname,owner=auth.user.id)\n            session.flash = T(\'new application "%s" created\', appname)\n            redirect(URL(\'design\',args=appname))\n        else:\n            session.flash = \\\n                T(\'unable to create application "%s" (it may exist already)\', request.vars.filename)\n        redirect(URL(r=request))\n\n    elif file_or_appurl and not request.vars.filename:\n        # can\'t do anything without an app name\n        msg = \'you must specify a name for the uploaded application\'\n        response.flash = T(msg)\n\n    elif file_or_appurl and request.vars.filename:\n        # fetch an application via URL or file upload\n        f = None\n        if request.vars.appurl is not \'\':\n            try:\n                f = urllib.urlopen(request.vars.appurl)\n            except Exception, e:\n                session.flash = DIV(T(\'Unable to download app because:\'),PRE(str(e)))\n                redirect(URL(r=request))\n            fname = request.vars.appurl\n        elif request.vars.file is not \'\':\n            f = request.vars.file.file\n            fname = request.vars.file.filename\n\n        if f:\n            appname = cleanpath(request.vars.filename).replace(\'.\', \'_\')\n            installed = app_install(appname, f, request, fname,\n                                    overwrite=request.vars.overwrite_check)\n        if f and installed:\n            msg = \'application %(appname)s installed with md5sum: %(digest)s\'\n            session.flash = T(msg, dict(appname=appname,\n                                        digest=md5_hash(installed)))\n        elif f and request.vars.overwrite_check:\n            msg = \'unable to install application "%(appname)s"\'\n            session.flash = T(msg, dict(appname=request.vars.filename))\n\n        else:\n            msg = \'unable to install application "%(appname)s"\'\n            session.flash = T(msg, dict(appname=request.vars.filename))\n\n        redirect(URL(r=request))\n\n    regex = re.compile(\'^\\w+$\')\n\n    if is_manager():\n        apps = [f for f in os.listdir(apath(r=request)) if regex.match(f)]\n    else:\n        apps = [f.name for f in db(db.app.owner==auth.user_id).select()]\n\n    if FILTER_APPS:\n        apps = [f for f in apps if f in FILTER_APPS]\n\n    apps = sorted(apps,lambda a,b:cmp(a.upper(),b.upper()))\n\n    return dict(app=None, apps=apps, myversion=myversion)\n\n\ndef pack():\n    app = get_app()\n\n    if len(request.args) == 1:\n        fname = \'web2py.app.%s.w2p\' % app\n        filename = app_pack(app, request)\n    else:\n        fname = \'web2py.app.%s.compiled.w2p\' % app\n        filename = app_pack_compiled(app, request)\n\n    if filename:\n        response.headers[\'Content-Type\'] = \'application/w2p\'\n        disposition = \'attachment; filename=%s\' % fname\n        response.headers[\'Content-Disposition\'] = disposition\n        return safe_read(filename, \'rb\')\n    else:\n        session.flash = T(\'internal error\')\n        redirect(URL(\'site\'))\n\ndef pack_plugin():\n    app = get_app()\n    if len(request.args) == 2:\n        fname = \'web2py.plugin.%s.w2p\' % request.args[1]\n        filename = plugin_pack(app, request.args[1], request)\n    if filename:\n        response.headers[\'Content-Type\'] = \'application/w2p\'\n        disposition = \'attachment; filename=%s\' % fname\n        response.headers[\'Content-Disposition\'] = disposition\n        return safe_read(filename, \'rb\')\n    else:\n        session.flash = T(\'internal error\')\n        redirect(URL(\'plugin\',args=request.args))\n\ndef upgrade_web2py():\n    if \'upgrade\' in request.vars:\n        (success, error) = upgrade(request)\n        if success:\n            session.flash = T(\'web2py upgraded; please restart it\')\n        else:\n            session.flash = T(\'unable to upgrade because "%s"\', error)\n        redirect(URL(\'site\'))\n    elif \'noupgrade\' in request.vars:\n        redirect(URL(\'site\'))\n    return dict()\n\ndef uninstall():\n    app = get_app()\n    if \'delete\' in request.vars:\n        if MULTI_USER_MODE:\n            if is_manager() and db(db.app.name==app).delete():\n                pass\n            elif db(db.app.name==app)(db.app.owner==auth.user.id).delete():\n                pass\n            else:\n                session.flash = T(\'no permission to uninstall "%s"\', app)\n                redirect(URL(\'site\'))\n        if app_uninstall(app, request):            \n            session.flash = T(\'application "%s" uninstalled\', app)\n        else:\n            session.flash = T(\'unable to uninstall "%s"\', app)\n        redirect(URL(\'site\'))\n    elif \'nodelete\' in request.vars:\n        redirect(URL(\'site\'))\n    return dict(app=app)\n\n\ndef cleanup():\n    app = get_app()\n    clean = app_cleanup(app, request)\n    if not clean:\n        session.flash = T("some files could not be removed")\n    else:\n        session.flash = T(\'cache, errors and sessions cleaned\')\n\n    redirect(URL(\'site\'))\n\n\ndef compile_app():\n    app = get_app()\n    c = app_compile(app, request)\n    if not c:\n        session.flash = T(\'application compiled\')\n    else:\n        session.flash = DIV(T(\'Cannot compile: there are errors in your app:\'),\n                              CODE(c))\n    redirect(URL(\'site\'))\n\n\ndef remove_compiled_app():\n    """ Remove the compiled application """\n    app = get_app()\n    remove_compiled_application(apath(app, r=request))\n    session.flash = T(\'compiled application removed\')\n    redirect(URL(\'site\'))\n\ndef delete():\n    """ Object delete handler """\n    app = get_app()\n    filename = \'/\'.join(request.args)\n    sender = request.vars.sender\n\n    if isinstance(sender, list):  # ## fix a problem with Vista\n        sender = sender[0]\n\n    if \'nodelete\' in request.vars:\n        redirect(URL(sender))\n    elif \'delete\' in request.vars:\n        try:\n            os.unlink(apath(filename, r=request))\n            session.flash = T(\'file "%(filename)s" deleted\',\n                              dict(filename=filename))\n        except Exception:\n            session.flash = T(\'unable to delete file "%(filename)s"\',\n                              dict(filename=filename))\n        redirect(URL(sender))\n    return dict(filename=filename, sender=sender)\n\ndef peek():\n    """ Visualize object code """\n    app = get_app()\n    filename = \'/\'.join(request.args)\n    try:\n        data = safe_read(apath(filename, r=request)).replace(\'\\r\',\'\')\n    except IOError:\n        session.flash = T(\'file does not exist\')\n        redirect(URL(\'site\'))\n\n    extension = filename[filename.rfind(\'.\') + 1:].lower()\n\n    return dict(app=request.args[0],\n                filename=filename,\n                data=data,\n                extension=extension)\n\n\ndef test():\n    """ Execute controller tests """\n    app = get_app()\n    if len(request.args) > 1:\n        file = request.args[1]\n    else:\n        file = \'.*\\.py\'\n\n    controllers = listdir(apath(\'%s/controllers/\' % app, r=request), file + \'$\')\n\n    return dict(app=app, controllers=controllers)\n\ndef keepalive():\n    return \'\'\n\ndef search():\n    keywords=request.vars.keywords or \'\'\n    app = get_app()\n    def match(filename,keywords):\n        filename=os.path.join(apath(app, r=request),filename)\n        if keywords in read_file(filename,\'rb\'):\n            return True\n        return False\n    path = apath(request.args[0], r=request)\n    files1 = glob(os.path.join(path,\'*/*.py\'))\n    files2 = glob(os.path.join(path,\'*/*.html\'))\n    files3 = glob(os.path.join(path,\'*/*/*.html\'))\n    files=[x[len(path)+1:].replace(\'\\\\\',\'/\') for x in files1+files2+files3 if match(x,keywords)]\n    return response.json({\'files\':files})\n\ndef edit():\n    """ File edit handler """\n    # Load json only if it is ajax edited...\n    app = get_app()\n    filename = \'/\'.join(request.args)\n    # Try to discover the file type\n    if filename[-3:] == \'.py\':\n        filetype = \'python\'\n    elif filename[-5:] == \'.html\':\n        filetype = \'html\'\n    elif filename[-5:] == \'.load\':\n        filetype = \'html\'\n    elif filename[-4:] == \'.css\':\n        filetype = \'css\'\n    elif filename[-3:] == \'.js\':\n        filetype = \'js\'\n    else:\n        filetype = \'html\'\n\n    # ## check if file is not there\n\n    path = apath(filename, r=request)\n\n    if request.vars.revert and os.path.exists(path + \'.bak\'):\n        try:\n            data = safe_read(path + \'.bak\')\n            data1 = safe_read(path)\n        except IOError:\n            session.flash = T(\'Invalid action\')\n            if \'from_ajax\' in request.vars:\n                 return response.json({\'error\': str(T(\'Invalid action\'))})\n            else:\n                redirect(URL(\'site\'))\n\n        safe_write(path, data)\n        file_hash = md5_hash(data)\n        saved_on = time.ctime(os.stat(path)[stat.ST_MTIME])\n        safe_write(path + \'.bak\', data1)\n        response.flash = T(\'file "%s" of %s restored\', (filename, saved_on))\n    else:\n        try:\n            data = safe_read(path)\n        except IOError:\n            session.flash = T(\'Invalid action\')\n            if \'from_ajax\' in request.vars:\n                return response.json({\'error\': str(T(\'Invalid action\'))})\n            else:\n                redirect(URL(\'site\'))\n\n        file_hash = md5_hash(data)\n        saved_on = time.ctime(os.stat(path)[stat.ST_MTIME])\n\n        if request.vars.file_hash and request.vars.file_hash != file_hash:\n            session.flash = T(\'file changed on disk\')\n            data = request.vars.data.replace(\'\\r\\n\', \'\\n\').strip() + \'\\n\'\n            safe_write(path + \'.1\', data)\n            if \'from_ajax\' in request.vars:\n                return response.json({\'error\': str(T(\'file changed on disk\')),\n                                      \'redirect\': URL(\'resolve\',\n                                                      args=request.args)})\n            else:\n                redirect(URL(\'resolve\', args=request.args))\n        elif request.vars.data:\n            safe_write(path + \'.bak\', data)\n            data = request.vars.data.replace(\'\\r\\n\', \'\\n\').strip() + \'\\n\'\n            safe_write(path, data)\n            file_hash = md5_hash(data)\n            saved_on = time.ctime(os.stat(path)[stat.ST_MTIME])\n            response.flash = T(\'file saved on %s\', saved_on)\n\n    data_or_revert = (request.vars.data or request.vars.revert)\n\n    # Check compile errors\n    highlight = None\n    if filetype == \'python\' and request.vars.data:\n        import _ast\n        try:\n            code = request.vars.data.rstrip().replace(\'\\r\\n\',\'\\n\')+\'\\n\'\n            compile(code, path, "exec", _ast.PyCF_ONLY_AST)\n        except Exception, e:\n            start = sum([len(line)+1 for l, line\n                            in enumerate(request.vars.data.split("\\n"))\n                            if l < e.lineno-1])\n            if e.text and e.offset:\n                offset = e.offset - (len(e.text) - len(e.text.splitlines()[-1]))\n            else:\n                offset = 0\n            highlight = {\'start\': start, \'end\': start + offset + 1}\n            try:\n                ex_name = e.__class__.__name__\n            except:\n                ex_name = \'unknown exception!\'\n            response.flash = DIV(T(\'failed to compile file because:\'), BR(),\n                                 B(ex_name), T(\' at line %s\') % e.lineno,\n                                 offset and T(\' at char %s\') % offset or \'\',\n                                 PRE(str(e)))\n\n    if data_or_revert and request.args[1] == \'modules\':\n        # Lets try to reload the modules\n        try:\n            mopath = \'.\'.join(request.args[2:])[:-3]\n            exec \'import applications.%s.modules.%s\' % (request.args[0], mopath)\n            reload(sys.modules[\'applications.%s.modules.%s\'\n                    % (request.args[0], mopath)])\n        except Exception, e:\n            response.flash = DIV(T(\'failed to reload module because:\'),PRE(str(e)))\n\n    edit_controller = None\n    editviewlinks = None\n    view_link = None\n    if filetype == \'html\' and len(request.args) >= 3:\n        cfilename = os.path.join(request.args[0], \'controllers\',\n                                 request.args[2] + \'.py\')\n        if os.path.exists(apath(cfilename, r=request)):\n            edit_controller = URL(\'edit\', args=[cfilename])\n            view = request.args[3].replace(\'.html\',\'\')\n            view_link = URL(request.args[0],request.args[2],view)\n    elif filetype == \'python\' and request.args[1] == \'controllers\':\n        ## it\'s a controller file.\n        ## Create links to all of the associated view files.\n        app = get_app()\n        viewname = os.path.splitext(request.args[2])[0]\n        viewpath = os.path.join(app,\'views\',viewname)\n        aviewpath = apath(viewpath, r=request)\n        viewlist = []\n        if os.path.exists(aviewpath):\n            if os.path.isdir(aviewpath):\n                viewlist = glob(os.path.join(aviewpath,\'*.html\'))\n        elif os.path.exists(aviewpath+\'.html\'):\n            viewlist.append(aviewpath+\'.html\')\n        if len(viewlist):\n            editviewlinks = []\n            for v in viewlist:\n                vf = os.path.split(v)[-1]\n                vargs = "/".join([viewpath.replace(os.sep,"/"),vf])\n                editviewlinks.append(A(T(vf.split(".")[0]),\\\n                    _href=URL(\'edit\',args=[vargs])))\n\n    if len(request.args) > 2 and request.args[1] == \'controllers\':\n        controller = (request.args[2])[:-3]\n        functions = regex_expose.findall(data)\n    else:\n        (controller, functions) = (None, None)\n\n    if \'from_ajax\' in request.vars:\n        return response.json({\'file_hash\': file_hash, \'saved_on\': saved_on, \'functions\':functions, \'controller\': controller, \'application\': request.args[0], \'highlight\': highlight })\n    else:\n\n        editarea_preferences = {}\n        editarea_preferences[\'FONT_SIZE\'] = \'10\'\n        editarea_preferences[\'FULL_SCREEN\'] = \'false\'\n        editarea_preferences[\'ALLOW_TOGGLE\'] = \'true\'\n        editarea_preferences[\'REPLACE_TAB_BY_SPACES\'] = \'4\'\n        editarea_preferences[\'DISPLAY\'] = \'onload\'\n        for key in editarea_preferences:\n            if globals().has_key(key):\n                editarea_preferences[key]=globals()[key]\n        return dict(app=request.args[0],\n                    filename=filename,\n                    filetype=filetype,\n                    data=data,\n                    edit_controller=edit_controller,\n                    file_hash=file_hash,\n                    saved_on=saved_on,\n                    controller=controller,\n                    functions=functions,\n                    view_link=view_link,\n                    editarea_preferences=editarea_preferences,\n                    editviewlinks=editviewlinks)\n\ndef resolve():\n    """\n    """\n\n    filename = \'/\'.join(request.args)\n    # ## check if file is not there\n    path = apath(filename, r=request)\n    a = safe_read(path).split(\'\\n\')\n    try:\n        b = safe_read(path + \'.1\').split(\'\\n\')\n    except IOError:\n        session.flash = \'Other file, no longer there\'\n        redirect(URL(\'edit\', args=request.args))\n\n    d = difflib.ndiff(a, b)\n\n    def leading(line):\n        """  """\n\n        # TODO: we really need to comment this\n        z = \'\'\n        for (k, c) in enumerate(line):\n            if c == \' \':\n                z += \'&nbsp;\'\n            elif c == \' \\t\':\n                z += \'&nbsp;\'\n            elif k == 0 and c == \'?\':\n                pass\n            else:\n                break\n\n        return XML(z)\n\n    def getclass(item):\n        """ Determine item class """\n\n        if item[0] == \' \':\n            return \'normal\'\n        if item[0] == \'+\':\n            return \'plus\'\n        if item[0] == \'-\':\n            return \'minus\'\n\n    if request.vars:\n        c = \'\\n\'.join([item[2:].rstrip() for (i, item) in enumerate(d) if item[0] \\\n                           == \' \' or \'line%i\' % i in request.vars])\n        safe_write(path, c)\n        session.flash = \'files merged\'\n        redirect(URL(\'edit\', args=request.args))\n    else:\n        # Making the short circuit compatible with <= python2.4\n        gen_data = lambda index,item: not item[:1] in [\'+\',\'-\'] and "" \\\n                   or INPUT(_type=\'checkbox\',\n                            _name=\'line%i\' % index,\n                            value=item[0] == \'+\')\n\n        diff = TABLE(*[TR(TD(gen_data(i,item)),\n                          TD(item[0]),\n                          TD(leading(item[2:]),\n                          TT(item[2:].rstrip())), _class=getclass(item))\n                       for (i, item) in enumerate(d) if item[0] != \'?\'])\n\n    return dict(diff=diff, filename=filename)\n\n\ndef edit_language():\n    """ Edit language file """\n    app = get_app()\n    filename = \'/\'.join(request.args)\n    from gluon.languages import read_dict, write_dict\n    strings = read_dict(apath(filename, r=request))\n    keys = sorted(strings.keys(),lambda x,y: cmp(x.lower(), y.lower()))\n    rows = []\n    rows.append(H2(T(\'Original/Translation\')))\n\n    for key in keys:\n        name = md5_hash(key)\n        if key==strings[key]:\n            _class=\'untranslated\'\n        else:\n            _class=\'translated\'\n        if len(key) <= 40:\n            elem = INPUT(_type=\'text\', _name=name,value=strings[key],\n                         _size=70,_class=_class)\n        else:\n            elem = TEXTAREA(_name=name, value=strings[key], _cols=70,\n                            _rows=5, _class=_class)\n\n        # Making the short circuit compatible with <= python2.4\n        k = (strings[key] != key) and key or B(key)\n\n        rows.append(P(k, BR(), elem, TAG.BUTTON(T(\'delete\'),\n                            _onclick=\'return delkey("%s")\' % name), _id=name))\n\n    rows.append(INPUT(_type=\'submit\', _value=T(\'update\')))\n    form = FORM(*rows)\n    if form.accepts(request.vars, keepvalues=True):\n        strs = dict()\n        for key in keys:\n            name = md5_hash(key)\n            if form.vars[name]==chr(127): continue\n            strs[key] = form.vars[name]\n        write_dict(apath(filename, r=request), strs)\n        session.flash = T(\'file saved on %(time)s\', dict(time=time.ctime()))\n        redirect(URL(r=request,args=request.args))\n    return dict(app=request.args[0], filename=filename, form=form)\n\n\ndef about():\n    """ Read about info """\n    app = get_app()\n    # ## check if file is not there\n    about = safe_read(apath(\'%s/ABOUT\' % app, r=request))\n    license = safe_read(apath(\'%s/LICENSE\' % app, r=request))\n    return dict(app=app, about=MARKMIN(about), license=MARKMIN(license))\n\n\ndef design():\n    """ Application design handler """\n    app = get_app()\n\n    if not response.flash and app == request.application:\n        msg = T(\'ATTENTION: you cannot edit the running application!\')\n        response.flash = msg\n\n    if request.vars.pluginfile!=None and not isinstance(request.vars.pluginfile,str):\n        filename=os.path.basename(request.vars.pluginfile.filename)\n        if plugin_install(app, request.vars.pluginfile.file,\n                          request, filename):\n            session.flash = T(\'new plugin installed\')\n            redirect(URL(\'design\',args=app))\n        else:\n            session.flash = \\\n                T(\'unable to create application "%s"\', request.vars.filename)\n        redirect(URL(r=request))\n    elif isinstance(request.vars.pluginfile,str):\n        session.flash = T(\'plugin not specified\')\n        redirect(URL(r=request))\n\n\n    # If we have only pyc files it means that\n    # we cannot design\n    if os.path.exists(apath(\'%s/compiled\' % app, r=request)):\n        session.flash = \\\n            T(\'application is compiled and cannot be designed\')\n        redirect(URL(\'site\'))\n\n    # Get all models\n    models = listdir(apath(\'%s/models/\' % app, r=request), \'.*\\.py$\')\n    models=[x.replace(\'\\\\\',\'/\') for x in models]\n    defines = {}\n    for m in models:\n        data = safe_read(apath(\'%s/models/%s\' % (app, m), r=request))\n        defines[m] = regex_tables.findall(data)\n        defines[m].sort()\n\n    # Get all controllers\n    controllers = sorted(listdir(apath(\'%s/controllers/\' % app, r=request), \'.*\\.py$\'))\n    controllers = [x.replace(\'\\\\\',\'/\') for x in controllers]\n    functions = {}\n    for c in controllers:\n        data = safe_read(apath(\'%s/controllers/%s\' % (app, c), r=request))\n        items = regex_expose.findall(data)\n        functions[c] = items\n\n    # Get all views\n    views = sorted(listdir(apath(\'%s/views/\' % app, r=request), \'[\\w/\\-]+(\\.\\w+)+$\'))\n    views = [x.replace(\'\\\\\',\'/\') for x in views if not x.endswith(\'.bak\')]\n    extend = {}\n    include = {}\n    for c in views:\n        data = safe_read(apath(\'%s/views/%s\' % (app, c), r=request))\n        items = regex_extend.findall(data)\n\n        if items:\n            extend[c] = items[0][1]\n\n        items = regex_include.findall(data)\n        include[c] = [i[1] for i in items]\n\n    # Get all modules\n    modules = listdir(apath(\'%s/modules/\' % app, r=request), \'.*\\.py$\')\n    modules = modules=[x.replace(\'\\\\\',\'/\') for x in modules]\n    modules.sort()\n\n    # Get all static files\n    statics = listdir(apath(\'%s/static/\' % app, r=request), \'[^\\.#].*\')\n    statics = [x.replace(\'\\\\\',\'/\') for x in statics]\n    statics.sort()\n\n    # Get all languages\n    languages = listdir(apath(\'%s/languages/\' % app, r=request), \'[\\w-]*\\.py\')\n\n    #Get crontab\n    cronfolder = apath(\'%s/cron\' % app, r=request)\n    if not os.path.exists(cronfolder): os.mkdir(cronfolder)\n    crontab = apath(\'%s/cron/crontab\' % app, r=request)\n    if not os.path.exists(crontab):\n        safe_write(crontab, \'#crontab\')\n\n    plugins=[]\n    def filter_plugins(items,plugins):\n        plugins+=[item[7:].split(\'/\')[0].split(\'.\')[0] for item in items if item.startswith(\'plugin_\')]\n        plugins[:]=list(set(plugins))\n        plugins.sort()\n        return [item for item in items if not item.startswith(\'plugin_\')]\n\n    return dict(app=app,\n                models=filter_plugins(models,plugins),\n                defines=defines,\n                controllers=filter_plugins(controllers,plugins),\n                functions=functions,\n                views=filter_plugins(views,plugins),\n                modules=filter_plugins(modules,plugins),\n                extend=extend,\n                include=include,\n                statics=filter_plugins(statics,plugins),\n                languages=languages,\n                crontab=crontab,\n                plugins=plugins)\n\ndef delete_plugin():\n    """ Object delete handler """\n    app=request.args(0)\n    plugin = request.args(1)\n    plugin_name=\'plugin_\'+plugin\n    if \'nodelete\' in request.vars:\n        redirect(URL(\'design\',args=app))\n    elif \'delete\' in request.vars:\n        try:\n            for folder in [\'models\',\'views\',\'controllers\',\'static\',\'modules\']:\n                path=os.path.join(apath(app,r=request),folder)\n                for item in os.listdir(path):\n                    if item.startswith(plugin_name):\n                        filename=os.path.join(path,item)\n                        if os.path.isdir(filename):\n                            shutil.rmtree(filename)\n                        else:\n                            os.unlink(filename)\n            session.flash = T(\'plugin "%(plugin)s" deleted\',\n                              dict(plugin=plugin))\n        except Exception:\n            session.flash = T(\'unable to delete file plugin "%(plugin)s"\',\n                              dict(plugin=plugin))\n        redirect(URL(\'design\',args=request.args(0)))\n    return dict(plugin=plugin)\n\ndef plugin():\n    """ Application design handler """\n    app = get_app()\n    plugin = request.args(1)\n\n    if not response.flash and app == request.application:\n        msg = T(\'ATTENTION: you cannot edit the running application!\')\n        response.flash = msg\n\n    # If we have only pyc files it means that\n    # we cannot design\n    if os.path.exists(apath(\'%s/compiled\' % app, r=request)):\n        session.flash = \\\n            T(\'application is compiled and cannot be designed\')\n        redirect(URL(\'site\'))\n\n    # Get all models\n    models = listdir(apath(\'%s/models/\' % app, r=request), \'.*\\.py$\')\n    models=[x.replace(\'\\\\\',\'/\') for x in models]\n    defines = {}\n    for m in models:\n        data = safe_read(apath(\'%s/models/%s\' % (app, m), r=request))\n        defines[m] = regex_tables.findall(data)\n        defines[m].sort()\n\n    # Get all controllers\n    controllers = sorted(listdir(apath(\'%s/controllers/\' % app, r=request), \'.*\\.py$\'))\n    controllers = [x.replace(\'\\\\\',\'/\') for x in controllers]\n    functions = {}\n    for c in controllers:\n        data = safe_read(apath(\'%s/controllers/%s\' % (app, c), r=request))\n        items = regex_expose.findall(data)\n        functions[c] = items\n\n    # Get all views\n    views = sorted(listdir(apath(\'%s/views/\' % app, r=request), \'[\\w/\\-]+\\.\\w+$\'))\n    views = [x.replace(\'\\\\\',\'/\') for x in views]\n    extend = {}\n    include = {}\n    for c in views:\n        data = safe_read(apath(\'%s/views/%s\' % (app, c), r=request))\n        items = regex_extend.findall(data)\n        if items:\n            extend[c] = items[0][1]\n\n        items = regex_include.findall(data)\n        include[c] = [i[1] for i in items]\n\n    # Get all modules\n    modules = listdir(apath(\'%s/modules/\' % app, r=request), \'.*\\.py$\')\n    modules = modules=[x.replace(\'\\\\\',\'/\') for x in modules]\n    modules.sort()\n\n    # Get all static files\n    statics = listdir(apath(\'%s/static/\' % app, r=request), \'[^\\.#].*\')\n    statics = [x.replace(\'\\\\\',\'/\') for x in statics]\n    statics.sort()\n\n    # Get all languages\n    languages = listdir(apath(\'%s/languages/\' % app, r=request), \'[\\w-]*\\.py\')\n\n    #Get crontab\n    crontab = apath(\'%s/cron/crontab\' % app, r=request)\n    if not os.path.exists(crontab):\n        safe_write(crontab, \'#crontab\')\n\n    def filter_plugins(items):\n        regex=re.compile(\'^plugin_\'+plugin+\'(/.*|\\..*)?$\')\n        return [item for item in items if regex.match(item)]\n\n    return dict(app=app,\n                models=filter_plugins(models),\n                defines=defines,\n                controllers=filter_plugins(controllers),\n                functions=functions,\n                views=filter_plugins(views),\n                modules=filter_plugins(modules),\n                extend=extend,\n                include=include,\n                statics=filter_plugins(statics),\n                languages=languages,\n                crontab=crontab)\n\n\ndef create_file():\n    """ Create files handler """\n    try:\n        app = get_app(name=request.vars.location.split(\'/\')[0])\n        path = apath(request.vars.location, r=request)\n        filename = re.sub(\'[^\\w./-]+\', \'_\', request.vars.filename)\n\n        if path[-11:] == \'/languages/\':\n            # Handle language files\n            if len(filename) == 0:\n                raise SyntaxError\n            if not filename[-3:] == \'.py\':\n                filename += \'.py\'\n            app = path.split(\'/\')[-3]\n            path=os.path.join(apath(app, r=request),\'languages\',filename)\n            if not os.path.exists(path):\n                safe_write(path, \'\')\n            findT(apath(app, r=request), filename[:-3])\n            session.flash = T(\'language file "%(filename)s" created/updated\',\n                              dict(filename=filename))\n            redirect(request.vars.sender)\n\n        elif path[-8:] == \'/models/\':\n            # Handle python models\n            if not filename[-3:] == \'.py\':\n                filename += \'.py\'\n\n            if len(filename) == 3:\n                raise SyntaxError\n\n            text = \'# coding: utf8\\n\'\n\n        elif path[-13:] == \'/controllers/\':\n            # Handle python controllers\n            if not filename[-3:] == \'.py\':\n                filename += \'.py\'\n\n            if len(filename) == 3:\n                raise SyntaxError\n\n            text = \'# coding: utf8\\n# %s\\ndef index(): return dict(message="hello from %s")\'\n            text = text % (T(\'try something like\'), filename)\n\n        elif path[-7:] == \'/views/\':\n            if request.vars.plugin and not filename.startswith(\'plugin_%s/\' % request.vars.plugin):\n                filename = \'plugin_%s/%s\' % (request.vars.plugin, filename)\n            # Handle template (html) views\n            if filename.find(\'.\')<0:\n                filename += \'.html\'\n            extension = filename.split(\'.\')[-1].lower()\n\n            if len(filename) == 5:\n                raise SyntaxError\n\n            msg = T(\'This is the %(filename)s template\',\n                    dict(filename=filename))            \n            if extension == \'html\':\n                text = dedent("""\n                   {{extend \'layout.html\'}}\n                   <h1>%s</h1>\n                   {{=BEAUTIFY(response._vars)}}""" % msg)\n            else:\n                generic = os.path.join(path,\'generic.\'+extension)\n                if os.path.exists(generic):\n                    text = read_file(generic)\n                else:\n                    text = \'\'\n                \n        elif path[-9:] == \'/modules/\':\n            if request.vars.plugin and not filename.startswith(\'plugin_%s/\' % request.vars.plugin):\n                filename = \'plugin_%s/%s\' % (request.vars.plugin, filename)\n            # Handle python module files\n            if not filename[-3:] == \'.py\':\n                filename += \'.py\'\n\n            if len(filename) == 3:\n                raise SyntaxError\n\n            text = dedent("""\n                   #!/usr/bin/env python\n                   # coding: utf8\n                   from gluon import *\\n""")\n\n        elif path[-8:] == \'/static/\':\n            if request.vars.plugin and not filename.startswith(\'plugin_%s/\' % request.vars.plugin):\n                filename = \'plugin_%s/%s\' % (request.vars.plugin, filename)\n            text = \'\'\n        else:\n            redirect(request.vars.sender)\n\n        full_filename = os.path.join(path, filename)\n        dirpath = os.path.dirname(full_filename)\n\n        if not os.path.exists(dirpath):\n            os.makedirs(dirpath)\n\n        if os.path.exists(full_filename):\n            raise SyntaxError\n\n        safe_write(full_filename, text)\n        session.flash = T(\'file "%(filename)s" created\',\n                          dict(filename=full_filename[len(path):]))\n        redirect(URL(\'edit\',\n                 args=[os.path.join(request.vars.location, filename)]))\n    except Exception, e:\n        if not isinstance(e,HTTP):\n            session.flash = T(\'cannot create file\')\n\n    redirect(request.vars.sender)\n\n\ndef upload_file():\n    """ File uploading handler """\n\n    try:\n        filename = None\n        app = get_app(name=request.vars.location.split(\'/\')[0])\n        path = apath(request.vars.location, r=request)\n\n        if request.vars.filename:\n            filename = re.sub(\'[^\\w\\./]+\', \'_\', request.vars.filename)\n        else:\n            filename = os.path.split(request.vars.file.filename)[-1]\n\n        if path[-8:] == \'/models/\' and not filename[-3:] == \'.py\':\n            filename += \'.py\'\n\n        if path[-9:] == \'/modules/\' and not filename[-3:] == \'.py\':\n            filename += \'.py\'\n\n        if path[-13:] == \'/controllers/\' and not filename[-3:] == \'.py\':\n            filename += \'.py\'\n\n        if path[-7:] == \'/views/\' and not filename[-5:] == \'.html\':\n            filename += \'.html\'\n\n        if path[-11:] == \'/languages/\' and not filename[-3:] == \'.py\':\n            filename += \'.py\'\n\n        filename = os.path.join(path, filename)\n        dirpath = os.path.dirname(filename)\n\n        if not os.path.exists(dirpath):\n            os.makedirs(dirpath)\n\n        safe_write(filename, request.vars.file.file.read(), \'wb\')\n        session.flash = T(\'file "%(filename)s" uploaded\',\n                          dict(filename=filename[len(path):]))\n    except Exception:\n        if filename:\n            d = dict(filename = filename[len(path):])\n        else:\n            d = dict(filename = \'unkown\')\n        session.flash = T(\'cannot upload file "%(filename)s"\', d)\n\n    redirect(request.vars.sender)\n\n\ndef errors():\n    """ Error handler """\n    import operator\n    import os\n    import pickle\n    import hashlib\n\n    app = get_app()\n\n    method = request.args(1) or \'new\'\n\n\n    if method == \'new\':\n        errors_path = apath(\'%s/errors\' % app, r=request)\n\n        delete_hashes = []\n        for item in request.vars:\n            if item[:7] == \'delete_\':\n                delete_hashes.append(item[7:])\n\n        hash2error = dict()\n\n        for fn in listdir(errors_path, \'^\\w.*\'):\n            fullpath = os.path.join(errors_path, fn)\n            if not os.path.isfile(fullpath): continue\n            try:\n                fullpath_file = open(fullpath, \'r\')\n                try:\n                    error = pickle.load(fullpath_file)\n                finally:\n                    fullpath_file.close()\n            except IOError:\n                continue\n\n            hash = hashlib.md5(error[\'traceback\']).hexdigest()\n\n            if hash in delete_hashes:\n                os.unlink(fullpath)\n            else:\n                try:\n                    hash2error[hash][\'count\'] += 1\n                except KeyError:\n                    error_lines = error[\'traceback\'].split("\\n")\n                    last_line = error_lines[-2]\n                    error_causer = os.path.split(error[\'layer\'])[1]\n                    hash2error[hash] = dict(count=1, pickel=error,\n                                            causer=error_causer,\n                                            last_line=last_line,\n                                            hash=hash,ticket=fn)\n\n        decorated = [(x[\'count\'], x) for x in hash2error.values()]\n        decorated.sort(key=operator.itemgetter(0), reverse=True)\n\n        return dict(errors = [x[1] for x in decorated], app=app, method=method)\n    else:\n        for item in request.vars:\n            if item[:7] == \'delete_\':\n                os.unlink(apath(\'%s/errors/%s\' % (app, item[7:]), r=request))\n        func = lambda p: os.stat(apath(\'%s/errors/%s\' % \\\n                                           (app, p), r=request)).st_mtime\n        tickets = sorted(listdir(apath(\'%s/errors/\' % app, r=request), \'^\\w.*\'),\n                         key=func,\n                         reverse=True)\n\n        return dict(app=app, tickets=tickets, method=method)\n\n\ndef make_link(path):\n    """ Create a link from a path """\n    tryFile = path.replace(\'\\\\\', \'/\')\n\n    if os.path.isabs(tryFile) and os.path.isfile(tryFile):\n        (folder, filename) = os.path.split(tryFile)\n        (base, ext) = os.path.splitext(filename)\n        app = get_app()\n\n        editable = {\'controllers\': \'.py\', \'models\': \'.py\', \'views\': \'.html\'}\n        for key in editable.keys():\n            check_extension = folder.endswith("%s/%s" % (app,key))\n            if ext.lower() == editable[key] and check_extension:\n                return A(\'"\' + tryFile + \'"\',\n                         _href=URL(r=request,\n                         f=\'edit/%s/%s/%s\' % (app, key, filename))).xml()\n    return \'\'\n\n\ndef make_links(traceback):\n    """ Make links using the given traceback """\n\n    lwords = traceback.split(\'"\')\n\n    # Making the short circuit compatible with <= python2.4\n    result = (len(lwords) != 0) and lwords[0] or \'\'\n\n    i = 1\n\n    while i < len(lwords):\n        link = make_link(lwords[i])\n\n        if link == \'\':\n            result += \'"\' + lwords[i]\n        else:\n            result += link\n\n            if i + 1 < len(lwords):\n                result += lwords[i + 1]\n                i = i + 1\n\n        i = i + 1\n\n    return result\n\n\nclass TRACEBACK(object):\n    """ Generate the traceback """\n\n    def __init__(self, text):\n        """ TRACEBACK constructor """\n\n        self.s = make_links(CODE(text).xml())\n\n    def xml(self):\n        """ Returns the xml """\n\n        return self.s\n\n\ndef ticket():\n    """ Ticket handler """\n\n    if len(request.args) != 2:\n        session.flash = T(\'invalid ticket\')\n        redirect(URL(\'site\'))\n\n    app = get_app()\n    myversion = request.env.web2py_version\n    ticket = request.args[1]\n    e = RestrictedError()\n    e.load(request, app, ticket)\n\n    return dict(app=app,\n                ticket=ticket,\n                output=e.output,\n                traceback=(e.traceback and TRACEBACK(e.traceback)),\n                snapshot=e.snapshot,\n                code=e.code,\n                layer=e.layer,\n                myversion=myversion)\n\ndef error():\n    """ Generate a ticket (for testing) """\n    raise RuntimeError(\'admin ticket generator at your service\')\n\ndef update_languages():\n    """ Update available languages """\n\n    app = get_app()\n    update_all_languages(apath(app, r=request))\n    session.flash = T(\'Language files (static strings) updated\')\n    redirect(URL(\'design\',args=app,anchor=\'languages\'))\n\ndef twitter():\n    session.forget()\n    session._unlock(response)\n    import gluon.tools\n    import gluon.contrib.simplejson as sj\n    try:\n        if TWITTER_HASH:\n            page = gluon.tools.fetch(\'http://twitter.com/%s?format=json\'%TWITTER_HASH)\n            return sj.loads(page)[\'#timeline\']\n        else:\n            return \'disabled\'\n    except Exception, e:\n        return DIV(T(\'Unable to download because:\'),BR(),str(e))\n\ndef user():\n    if MULTI_USER_MODE:\n        if not db(db.auth_user).count():\n            auth.settings.registration_requires_approval = False            \n        return dict(form=auth())\n    else:\n        return dict(form=T("Disabled"))\n\ndef reload_routes():\n    """ Reload routes.py """\n    import gluon.rewrite\n    gluon.rewrite.load()\n    redirect(URL(\'site\'))\n\nresponse._vars=response._caller(ticket)\n'
p6
sS'snapshot'
p7
(dp8
S'exception'
p9
(dp10
S'__getslice__'
p11
S"<method-wrapper '__getslice__' of exceptions.IOError object>"
p12
sS'__str__'
p13
S"<method-wrapper '__str__' of exceptions.IOError object>"
p14
sS'__reduce__'
p15
S'<built-in method __reduce__ of exceptions.IOError object>'
p16
sS'__dict__'
p17
S'{}'
p18
sS'__sizeof__'
p19
S'<built-in method __sizeof__ of exceptions.IOError object>'
p20
sS'__init__'
p21
S"<method-wrapper '__init__' of exceptions.IOError object>"
p22
sS'__setattr__'
p23
S"<method-wrapper '__setattr__' of exceptions.IOError object>"
p24
sS'__reduce_ex__'
p25
S'<built-in method __reduce_ex__ of exceptions.IOError object>'
p26
sS'__new__'
p27
S'<built-in method __new__ of type object>'
p28
sS'errno'
p29
S'2'
sS'__format__'
p30
S'<built-in method __format__ of exceptions.IOError object>'
p31
sS'__class__'
p32
S"<type 'exceptions.IOError'>"
p33
sS'filename'
p34
S"r'C:\\webapps\\dopbox\\Dropbox\\Eclipse\\OJDevSourcePro...-19.05-52-40.73e3f8d5-172e-4643-86ab-281e1292851a'"
p35
sS'__doc__'
p36
S"'I/O operation failed.'"
p37
sS'__getitem__'
p38
S"<method-wrapper '__getitem__' of exceptions.IOError object>"
p39
sS'__setstate__'
p40
S'<built-in method __setstate__ of exceptions.IOError object>'
p41
sS'__getattribute__'
p42
S"<method-wrapper '__getattribute__' of exceptions.IOError object>"
p43
sS'args'
p44
S"(2, 'No such file or directory')"
p45
sS'__subclasshook__'
p46
S'<built-in method __subclasshook__ of type object>'
p47
sS'__unicode__'
p48
S'<built-in method __unicode__ of exceptions.IOError object>'
p49
sS'strerror'
p50
S"'No such file or directory'"
p51
sS'__delattr__'
p52
S"<method-wrapper '__delattr__' of exceptions.IOError object>"
p53
sS'__repr__'
p54
S"<method-wrapper '__repr__' of exceptions.IOError object>"
p55
sS'__hash__'
p56
S"<method-wrapper '__hash__' of exceptions.IOError object>"
p57
ssS'evalue'
p58
S"[Errno 2] No such file or directory: 'C:\\\\webapps\\\\dopbox\\\\Dropbox\\\\Eclipse\\\\OJDevSourceProject\\\\project\\\\web2py\\\\applications\\\\OJTest\\\\errors\\\\60.242.177.184.2012-01-19.05-52-40.73e3f8d5-172e-4643-86ab-281e1292851a'"
p59
sS'request'
p60
ccopy_reg
_reconstructor
p61
(cgluon.html
BEAUTIFY
p62
c__builtin__
object
p63
NtRp64
(dp65
S'attributes'
p66
(dp67
sS'components'
p68
(lp69
g61
(cgluon.html
TABLE
p70
g63
NtRp71
(dp72
g66
(dp73
S'level'
p74
I5
ssS'parent'
p75
Nsg68
(lp76
g61
(cgluon.html
TR
p77
g63
NtRp78
(dp79
g66
(dp80
sg75
g71
sg68
(lp81
g61
(cgluon.html
TD
p82
g63
NtRp83
(dp84
g66
(dp85
S'_style'
p86
S'font-weight:bold;'
p87
ssg75
g78
sg68
(lp88
S'ajax'
p89
asbag61
(g82
g63
NtRp90
(dp91
g66
(dp92
S'_valign'
p93
S'top'
p94
ssg75
g78
sg68
(lp95
S':'
asbag61
(g82
g63
NtRp96
(dp97
g66
(dp98
sg75
g78
sg68
(lp99
g61
(g62
g63
NtRp100
(dp101
g66
(dp102
g74
I5
ssg75
g96
sg68
(lp103
S'False'
p104
asbasbasbag61
(g77
g63
NtRp105
(dp106
g66
(dp107
sg75
g71
sg68
(lp108
g61
(g82
g63
NtRp109
(dp110
g66
(dp111
g86
g87
ssg75
g105
sg68
(lp112
S'application'
p113
asbag61
(g82
g63
NtRp114
(dp115
g66
(dp116
g93
g94
ssg75
g105
sg68
(lp117
S':'
asbag61
(g82
g63
NtRp118
(dp119
g66
(dp120
sg75
g105
sg68
(lp121
g61
(g62
g63
NtRp122
(dp123
g66
(dp124
g74
I5
ssg75
g118
sg68
(lp125
S'admin'
p126
asbasbasbag61
(g77
g63
NtRp127
(dp128
g66
(dp129
sg75
g71
sg68
(lp130
g61
(g82
g63
NtRp131
(dp132
g66
(dp133
g86
g87
ssg75
g127
sg68
(lp134
g44
asbag61
(g82
g63
NtRp135
(dp136
g66
(dp137
g93
g94
ssg75
g127
sg68
(lp138
S':'
asbag61
(g82
g63
NtRp139
(dp140
g66
(dp141
sg75
g127
sg68
(lp142
g61
(g62
g63
NtRp143
(dp144
g66
(dp145
g74
I5
ssg75
g139
sg68
(lp146
g61
(g70
g63
NtRp147
(dp148
g66
(dp149
g74
I4
ssg75
Nsg68
(lp150
g61
(g77
g63
NtRp151
(dp152
g66
(dp153
sg75
g147
sg68
(lp154
g61
(g82
g63
NtRp155
(dp156
g66
(dp157
sg75
g151
sg68
(lp158
g61
(g62
g63
NtRp159
(dp160
g66
(dp161
g74
I4
ssg75
g155
sg68
(lp162
S'OJTest'
p163
asbasbasbag61
(g77
g63
NtRp164
(dp165
g66
(dp166
sg75
g147
sg68
(lp167
g61
(g82
g63
NtRp168
(dp169
g66
(dp170
sg75
g164
sg68
(lp171
g61
(g62
g63
NtRp172
(dp173
g66
(dp174
g74
I4
ssg75
g168
sg68
(lp175
S'60.242.177.184.2012-01-19.05-52-40.73e3f8d5-172e-4643-86ab-281e1292851a'
p176
asbasbasbasbasbasbasbag61
(g77
g63
NtRp177
(dp178
g66
(dp179
sg75
g71
sg68
(lp180
g61
(g82
g63
NtRp181
(dp182
g66
(dp183
g86
g87
ssg75
g177
sg68
(lp184
S'body'
p185
asbag61
(g82
g63
NtRp186
(dp187
g66
(dp188
g93
g94
ssg75
g177
sg68
(lp189
S':'
asbag61
(g82
g63
NtRp190
(dp191
g66
(dp192
sg75
g177
sg68
(lp193
g61
(g62
g63
NtRp194
(dp195
g66
(dp196
g74
I5
ssg75
g190
sg68
(lp197
S'<cStringIO.StringO object at 0x0000000004382BC8>'
p198
asbasbasbag61
(g77
g63
NtRp199
(dp200
g66
(dp201
sg75
g71
sg68
(lp202
g61
(g82
g63
NtRp203
(dp204
g66
(dp205
g86
g87
ssg75
g199
sg68
(lp206
S'client'
p207
asbag61
(g82
g63
NtRp208
(dp209
g66
(dp210
g93
g94
ssg75
g199
sg68
(lp211
S':'
asbag61
(g82
g63
NtRp212
(dp213
g66
(dp214
sg75
g199
sg68
(lp215
g61
(g62
g63
NtRp216
(dp217
g66
(dp218
g74
I5
ssg75
g212
sg68
(lp219
S'127.0.0.1'
p220
asbasbasbag61
(g77
g63
NtRp221
(dp222
g66
(dp223
sg75
g71
sg68
(lp224
g61
(g82
g63
NtRp225
(dp226
g66
(dp227
g86
g87
ssg75
g221
sg68
(lp228
S'controller'
p229
asbag61
(g82
g63
NtRp230
(dp231
g66
(dp232
g93
g94
ssg75
g221
sg68
(lp233
S':'
asbag61
(g82
g63
NtRp234
(dp235
g66
(dp236
sg75
g221
sg68
(lp237
g61
(g62
g63
NtRp238
(dp239
g66
(dp240
g74
I5
ssg75
g234
sg68
(lp241
S'default'
p242
asbasbasbag61
(g77
g63
NtRp243
(dp244
g66
(dp245
sg75
g71
sg68
(lp246
g61
(g82
g63
NtRp247
(dp248
g66
(dp249
g86
g87
ssg75
g243
sg68
(lp250
S'cookies'
p251
asbag61
(g82
g63
NtRp252
(dp253
g66
(dp254
g93
g94
ssg75
g243
sg68
(lp255
S':'
asbag61
(g82
g63
NtRp256
(dp257
g66
(dp258
sg75
g243
sg68
(lp259
g61
(g62
g63
NtRp260
(dp261
g66
(dp262
g74
I5
ssg75
g256
sg68
(lp263
g61
(g70
g63
NtRp264
(dp265
g66
(dp266
g74
I4
ssg75
Nsg68
(lp267
g61
(g77
g63
NtRp268
(dp269
g66
(dp270
sg75
g264
sg68
(lp271
g61
(g82
g63
NtRp272
(dp273
g66
(dp274
g86
g87
ssg75
g268
sg68
(lp275
S'session_id_admin'
p276
asbag61
(g82
g63
NtRp277
(dp278
g66
(dp279
g93
g94
ssg75
g268
sg68
(lp280
S':'
asbag61
(g82
g63
NtRp281
(dp282
g66
(dp283
sg75
g268
sg68
(lp284
g61
(g62
g63
NtRp285
(dp286
g66
(dp287
g74
I4
ssg75
g281
sg68
(lp288
g61
(g70
g63
NtRp289
(dp290
g66
(dp291
g74
I3
ssg75
Nsg68
(lp292
g61
(g77
g63
NtRp293
(dp294
g66
(dp295
sg75
g289
sg68
(lp296
g61
(g82
g63
NtRp297
(dp298
g66
(dp299
g86
g87
ssg75
g293
sg68
(lp300
S'comment'
p301
asbag61
(g82
g63
NtRp302
(dp303
g66
(dp304
g93
g94
ssg75
g293
sg68
(lp305
S':'
asbag61
(g82
g63
NtRp306
(dp307
g66
(dp308
sg75
g293
sg68
(lp309
g61
(g62
g63
NtRp310
(dp311
g66
(dp312
g74
I3
ssg75
g306
sg68
(lp313
S''
asbasbasbag61
(g77
g63
NtRp314
(dp315
g66
(dp316
sg75
g289
sg68
(lp317
g61
(g82
g63
NtRp318
(dp319
g66
(dp320
g86
g87
ssg75
g314
sg68
(lp321
S'domain'
p322
asbag61
(g82
g63
NtRp323
(dp324
g66
(dp325
g93
g94
ssg75
g314
sg68
(lp326
S':'
asbag61
(g82
g63
NtRp327
(dp328
g66
(dp329
sg75
g314
sg68
(lp330
g61
(g62
g63
NtRp331
(dp332
g66
(dp333
g74
I3
ssg75
g327
sg68
(lp334
S''
asbasbasbag61
(g77
g63
NtRp335
(dp336
g66
(dp337
sg75
g289
sg68
(lp338
g61
(g82
g63
NtRp339
(dp340
g66
(dp341
g86
g87
ssg75
g335
sg68
(lp342
S'expires'
p343
asbag61
(g82
g63
NtRp344
(dp345
g66
(dp346
g93
g94
ssg75
g335
sg68
(lp347
S':'
asbag61
(g82
g63
NtRp348
(dp349
g66
(dp350
sg75
g335
sg68
(lp351
g61
(g62
g63
NtRp352
(dp353
g66
(dp354
g74
I3
ssg75
g348
sg68
(lp355
S''
asbasbasbag61
(g77
g63
NtRp356
(dp357
g66
(dp358
sg75
g289
sg68
(lp359
g61
(g82
g63
NtRp360
(dp361
g66
(dp362
g86
g87
ssg75
g356
sg68
(lp363
S'httponly'
p364
asbag61
(g82
g63
NtRp365
(dp366
g66
(dp367
g93
g94
ssg75
g356
sg68
(lp368
S':'
asbag61
(g82
g63
NtRp369
(dp370
g66
(dp371
sg75
g356
sg68
(lp372
g61
(g62
g63
NtRp373
(dp374
g66
(dp375
g74
I3
ssg75
g369
sg68
(lp376
S''
asbasbasbag61
(g77
g63
NtRp377
(dp378
g66
(dp379
sg75
g289
sg68
(lp380
g61
(g82
g63
NtRp381
(dp382
g66
(dp383
g86
g87
ssg75
g377
sg68
(lp384
S'max-age'
p385
asbag61
(g82
g63
NtRp386
(dp387
g66
(dp388
g93
g94
ssg75
g377
sg68
(lp389
S':'
asbag61
(g82
g63
NtRp390
(dp391
g66
(dp392
sg75
g377
sg68
(lp393
g61
(g62
g63
NtRp394
(dp395
g66
(dp396
g74
I3
ssg75
g390
sg68
(lp397
S''
asbasbasbag61
(g77
g63
NtRp398
(dp399
g66
(dp400
sg75
g289
sg68
(lp401
g61
(g82
g63
NtRp402
(dp403
g66
(dp404
g86
g87
ssg75
g398
sg68
(lp405
S'path'
p406
asbag61
(g82
g63
NtRp407
(dp408
g66
(dp409
g93
g94
ssg75
g398
sg68
(lp410
S':'
asbag61
(g82
g63
NtRp411
(dp412
g66
(dp413
sg75
g398
sg68
(lp414
g61
(g62
g63
NtRp415
(dp416
g66
(dp417
g74
I3
ssg75
g411
sg68
(lp418
S''
asbasbasbag61
(g77
g63
NtRp419
(dp420
g66
(dp421
sg75
g289
sg68
(lp422
g61
(g82
g63
NtRp423
(dp424
g66
(dp425
g86
g87
ssg75
g419
sg68
(lp426
S'secure'
p427
asbag61
(g82
g63
NtRp428
(dp429
g66
(dp430
g93
g94
ssg75
g419
sg68
(lp431
S':'
asbag61
(g82
g63
NtRp432
(dp433
g66
(dp434
sg75
g419
sg68
(lp435
g61
(g62
g63
NtRp436
(dp437
g66
(dp438
g74
I3
ssg75
g432
sg68
(lp439
S''
asbasbasbag61
(g77
g63
NtRp440
(dp441
g66
(dp442
sg75
g289
sg68
(lp443
g61
(g82
g63
NtRp444
(dp445
g66
(dp446
g86
g87
ssg75
g440
sg68
(lp447
S'version'
p448
asbag61
(g82
g63
NtRp449
(dp450
g66
(dp451
g93
g94
ssg75
g440
sg68
(lp452
S':'
asbag61
(g82
g63
NtRp453
(dp454
g66
(dp455
sg75
g440
sg68
(lp456
g61
(g62
g63
NtRp457
(dp458
g66
(dp459
g74
I3
ssg75
g453
sg68
(lp460
S''
asbasbasbasbasbasbasbag61
(g77
g63
NtRp461
(dp462
g66
(dp463
sg75
g264
sg68
(lp464
g61
(g82
g63
NtRp465
(dp466
g66
(dp467
g86
g87
ssg75
g461
sg68
(lp468
S'session_id_ojtest'
p469
asbag61
(g82
g63
NtRp470
(dp471
g66
(dp472
g93
g94
ssg75
g461
sg68
(lp473
S':'
asbag61
(g82
g63
NtRp474
(dp475
g66
(dp476
sg75
g461
sg68
(lp477
g61
(g62
g63
NtRp478
(dp479
g66
(dp480
g74
I4
ssg75
g474
sg68
(lp481
g61
(g70
g63
NtRp482
(dp483
g66
(dp484
g74
I3
ssg75
Nsg68
(lp485
g61
(g77
g63
NtRp486
(dp487
g66
(dp488
sg75
g482
sg68
(lp489
g61
(g82
g63
NtRp490
(dp491
g66
(dp492
g86
g87
ssg75
g486
sg68
(lp493
g301
asbag61
(g82
g63
NtRp494
(dp495
g66
(dp496
g93
g94
ssg75
g486
sg68
(lp497
S':'
asbag61
(g82
g63
NtRp498
(dp499
g66
(dp500
sg75
g486
sg68
(lp501
g61
(g62
g63
NtRp502
(dp503
g66
(dp504
g74
I3
ssg75
g498
sg68
(lp505
S''
asbasbasbag61
(g77
g63
NtRp506
(dp507
g66
(dp508
sg75
g482
sg68
(lp509
g61
(g82
g63
NtRp510
(dp511
g66
(dp512
g86
g87
ssg75
g506
sg68
(lp513
g322
asbag61
(g82
g63
NtRp514
(dp515
g66
(dp516
g93
g94
ssg75
g506
sg68
(lp517
S':'
asbag61
(g82
g63
NtRp518
(dp519
g66
(dp520
sg75
g506
sg68
(lp521
g61
(g62
g63
NtRp522
(dp523
g66
(dp524
g74
I3
ssg75
g518
sg68
(lp525
S''
asbasbasbag61
(g77
g63
NtRp526
(dp527
g66
(dp528
sg75
g482
sg68
(lp529
g61
(g82
g63
NtRp530
(dp531
g66
(dp532
g86
g87
ssg75
g526
sg68
(lp533
g343
asbag61
(g82
g63
NtRp534
(dp535
g66
(dp536
g93
g94
ssg75
g526
sg68
(lp537
S':'
asbag61
(g82
g63
NtRp538
(dp539
g66
(dp540
sg75
g526
sg68
(lp541
g61
(g62
g63
NtRp542
(dp543
g66
(dp544
g74
I3
ssg75
g538
sg68
(lp545
S''
asbasbasbag61
(g77
g63
NtRp546
(dp547
g66
(dp548
sg75
g482
sg68
(lp549
g61
(g82
g63
NtRp550
(dp551
g66
(dp552
g86
g87
ssg75
g546
sg68
(lp553
g364
asbag61
(g82
g63
NtRp554
(dp555
g66
(dp556
g93
g94
ssg75
g546
sg68
(lp557
S':'
asbag61
(g82
g63
NtRp558
(dp559
g66
(dp560
sg75
g546
sg68
(lp561
g61
(g62
g63
NtRp562
(dp563
g66
(dp564
g74
I3
ssg75
g558
sg68
(lp565
S''
asbasbasbag61
(g77
g63
NtRp566
(dp567
g66
(dp568
sg75
g482
sg68
(lp569
g61
(g82
g63
NtRp570
(dp571
g66
(dp572
g86
g87
ssg75
g566
sg68
(lp573
g385
asbag61
(g82
g63
NtRp574
(dp575
g66
(dp576
g93
g94
ssg75
g566
sg68
(lp577
S':'
asbag61
(g82
g63
NtRp578
(dp579
g66
(dp580
sg75
g566
sg68
(lp581
g61
(g62
g63
NtRp582
(dp583
g66
(dp584
g74
I3
ssg75
g578
sg68
(lp585
S''
asbasbasbag61
(g77
g63
NtRp586
(dp587
g66
(dp588
sg75
g482
sg68
(lp589
g61
(g82
g63
NtRp590
(dp591
g66
(dp592
g86
g87
ssg75
g586
sg68
(lp593
g406
asbag61
(g82
g63
NtRp594
(dp595
g66
(dp596
g93
g94
ssg75
g586
sg68
(lp597
S':'
asbag61
(g82
g63
NtRp598
(dp599
g66
(dp600
sg75
g586
sg68
(lp601
g61
(g62
g63
NtRp602
(dp603
g66
(dp604
g74
I3
ssg75
g598
sg68
(lp605
S''
asbasbasbag61
(g77
g63
NtRp606
(dp607
g66
(dp608
sg75
g482
sg68
(lp609
g61
(g82
g63
NtRp610
(dp611
g66
(dp612
g86
g87
ssg75
g606
sg68
(lp613
g427
asbag61
(g82
g63
NtRp614
(dp615
g66
(dp616
g93
g94
ssg75
g606
sg68
(lp617
S':'
asbag61
(g82
g63
NtRp618
(dp619
g66
(dp620
sg75
g606
sg68
(lp621
g61
(g62
g63
NtRp622
(dp623
g66
(dp624
g74
I3
ssg75
g618
sg68
(lp625
S''
asbasbasbag61
(g77
g63
NtRp626
(dp627
g66
(dp628
sg75
g482
sg68
(lp629
g61
(g82
g63
NtRp630
(dp631
g66
(dp632
g86
g87
ssg75
g626
sg68
(lp633
g448
asbag61
(g82
g63
NtRp634
(dp635
g66
(dp636
g93
g94
ssg75
g626
sg68
(lp637
S':'
asbag61
(g82
g63
NtRp638
(dp639
g66
(dp640
sg75
g626
sg68
(lp641
g61
(g62
g63
NtRp642
(dp643
g66
(dp644
g74
I3
ssg75
g638
sg68
(lp645
S''
asbasbasbasbasbasbasbasbasbasbasbag61
(g77
g63
NtRp646
(dp647
g66
(dp648
sg75
g71
sg68
(lp649
g61
(g82
g63
NtRp650
(dp651
g66
(dp652
g86
g87
ssg75
g646
sg68
(lp653
S'env'
p654
asbag61
(g82
g63
NtRp655
(dp656
g66
(dp657
g93
g94
ssg75
g646
sg68
(lp658
S':'
asbag61
(g82
g63
NtRp659
(dp660
g66
(dp661
sg75
g646
sg68
(lp662
g61
(g62
g63
NtRp663
(dp664
g66
(dp665
g74
I5
ssg75
g659
sg68
(lp666
g61
(g70
g63
NtRp667
(dp668
g66
(dp669
g74
I4
ssg75
Nsg68
(lp670
g61
(g77
g63
NtRp671
(dp672
g66
(dp673
sg75
g667
sg68
(lp674
g61
(g82
g63
NtRp675
(dp676
g66
(dp677
g86
g87
ssg75
g671
sg68
(lp678
S'app_folders'
p679
asbag61
(g82
g63
NtRp680
(dp681
g66
(dp682
g93
g94
ssg75
g671
sg68
(lp683
S':'
asbag61
(g82
g63
NtRp684
(dp685
g66
(dp686
sg75
g671
sg68
(lp687
g61
(g62
g63
NtRp688
(dp689
g66
(dp690
g74
I4
ssg75
g684
sg68
(lp691
S"set(['C:\\\\webapps\\\\dopbox\\\\Dropbox\\\\Eclipse\\\\OJDevSourceProject\\\\project\\\\web2py\\\\applications\\\\OJTest\\\\', 'C:\\\\webapps\\\\dopbox\\\\Dropbox\\\\Eclipse\\\\OJDevSourceProject\\\\project\\\\web2py\\\\applications\\\\admin\\\\'])"
p692
asbasbasbag61
(g77
g63
NtRp693
(dp694
g66
(dp695
sg75
g667
sg68
(lp696
g61
(g82
g63
NtRp697
(dp698
g66
(dp699
g86
g87
ssg75
g693
sg68
(lp700
S'applications_parent'
p701
asbag61
(g82
g63
NtRp702
(dp703
g66
(dp704
g93
g94
ssg75
g693
sg68
(lp705
S':'
asbag61
(g82
g63
NtRp706
(dp707
g66
(dp708
sg75
g693
sg68
(lp709
g61
(g62
g63
NtRp710
(dp711
g66
(dp712
g74
I4
ssg75
g706
sg68
(lp713
S'C:\\webapps\\dopbox\\Dropbox\\Eclipse\\OJDevSourceProject\\project\\web2py'
p714
asbasbasbag61
(g77
g63
NtRp715
(dp716
g66
(dp717
sg75
g667
sg68
(lp718
g61
(g82
g63
NtRp719
(dp720
g66
(dp721
g86
g87
ssg75
g715
sg68
(lp722
S'cmd_args'
p723
asbag61
(g82
g63
NtRp724
(dp725
g66
(dp726
g93
g94
ssg75
g715
sg68
(lp727
S':'
asbag61
(g82
g63
NtRp728
(dp729
g66
(dp730
sg75
g715
sg68
(lp731
g61
(g62
g63
NtRp732
(dp733
g66
(dp734
g74
I4
ssg75
g728
sg68
(lp735
g61
(g70
g63
NtRp736
(dp737
g66
(dp738
g74
I3
ssg75
Nsg68
(lp739
sbasbasbasbag61
(g77
g63
NtRp740
(dp741
g66
(dp742
sg75
g667
sg68
(lp743
g61
(g82
g63
NtRp744
(dp745
g66
(dp746
g86
g87
ssg75
g740
sg68
(lp747
S'cmd_options'
p748
asbag61
(g82
g63
NtRp749
(dp750
g66
(dp751
g93
g94
ssg75
g740
sg68
(lp752
S':'
asbag61
(g82
g63
NtRp753
(dp754
g66
(dp755
sg75
g740
sg68
(lp756
g61
(g62
g63
NtRp757
(dp758
g66
(dp759
g74
I4
ssg75
g753
sg68
(lp760
S"<Values at 0x37fce08: {'verbose': False, 'ip': '127.0.0.1', 'shutdown_timeout': 5, 'taskbar': False, 'nocron': False, 'pid_filename': 'httpserver.pid', 'maxthreads': None, 'softcron': False, 'server_name': 'Sablasticus-hp', 'bpython': False, 'nogui': False, 'port': 8000, 'extcron': False, 'debuglevel': 30, 'test': None, 'folder': 'C:\\\\webapps\\\\dopbox\\\\Dropbox\\\\Eclipse\\\\OJDevSourceProject\\\\project\\\\web2py', 'config': '', 'import_models': False, 'winservice': '', 'shell': None, 'run': '', 'log_filename': 'httpserver.log', 'args': [''], 'ssl_ca_certificate': None, 'scheduler': None, 'profiler_filename': None, 'ssl_private_key': '', 'password': '<ask>', 'request_queue_size': 5, 'ssl_certificate': '', 'cronjob': False, 'plain': False, 'quiet': False, 'interfaces': None, 'minthreads': None, 'timeout': 10, 'numthreads': None, 'nobanner': False}>"
p761
asbasbasbag61
(g77
g63
NtRp762
(dp763
g66
(dp764
sg75
g667
sg68
(lp765
g61
(g82
g63
NtRp766
(dp767
g66
(dp768
g86
g87
ssg75
g762
sg68
(lp769
S'db_sessions'
p770
asbag61
(g82
g63
NtRp771
(dp772
g66
(dp773
g93
g94
ssg75
g762
sg68
(lp774
S':'
asbag61
(g82
g63
NtRp775
(dp776
g66
(dp777
sg75
g762
sg68
(lp778
g61
(g62
g63
NtRp779
(dp780
g66
(dp781
g74
I4
ssg75
g775
sg68
(lp782
S'set([])'
p783
asbasbasbag61
(g77
g63
NtRp784
(dp785
g66
(dp786
sg75
g667
sg68
(lp787
g61
(g82
g63
NtRp788
(dp789
g66
(dp790
g86
g87
ssg75
g784
sg68
(lp791
S'debugging'
p792
asbag61
(g82
g63
NtRp793
(dp794
g66
(dp795
g93
g94
ssg75
g784
sg68
(lp796
S':'
asbag61
(g82
g63
NtRp797
(dp798
g66
(dp799
sg75
g784
sg68
(lp800
g61
(g62
g63
NtRp801
(dp802
g66
(dp803
g74
I4
ssg75
g797
sg68
(lp804
g104
asbasbasbag61
(g77
g63
NtRp805
(dp806
g66
(dp807
sg75
g667
sg68
(lp808
g61
(g82
g63
NtRp809
(dp810
g66
(dp811
g86
g87
ssg75
g805
sg68
(lp812
S'gluon_parent'
p813
asbag61
(g82
g63
NtRp814
(dp815
g66
(dp816
g93
g94
ssg75
g805
sg68
(lp817
S':'
asbag61
(g82
g63
NtRp818
(dp819
g66
(dp820
sg75
g805
sg68
(lp821
g61
(g62
g63
NtRp822
(dp823
g66
(dp824
g74
I4
ssg75
g818
sg68
(lp825
S'C:\\webapps\\dopbox\\Dropbox\\Eclipse\\OJDevSourceProject\\project\\web2py'
p826
asbasbasbag61
(g77
g63
NtRp827
(dp828
g66
(dp829
sg75
g667
sg68
(lp830
g61
(g82
g63
NtRp831
(dp832
g66
(dp833
g86
g87
ssg75
g827
sg68
(lp834
S'http_accept'
p835
asbag61
(g82
g63
NtRp836
(dp837
g66
(dp838
g93
g94
ssg75
g827
sg68
(lp839
S':'
asbag61
(g82
g63
NtRp840
(dp841
g66
(dp842
sg75
g827
sg68
(lp843
g61
(g62
g63
NtRp844
(dp845
g66
(dp846
g74
I4
ssg75
g840
sg68
(lp847
S'text/html,application/xhtml+xml,application/xml;q=0.9,*/*;q=0.8'
p848
asbasbasbag61
(g77
g63
NtRp849
(dp850
g66
(dp851
sg75
g667
sg68
(lp852
g61
(g82
g63
NtRp853
(dp854
g66
(dp855
g86
g87
ssg75
g849
sg68
(lp856
S'http_accept_charset'
p857
asbag61
(g82
g63
NtRp858
(dp859
g66
(dp860
g93
g94
ssg75
g849
sg68
(lp861
S':'
asbag61
(g82
g63
NtRp862
(dp863
g66
(dp864
sg75
g849
sg68
(lp865
g61
(g62
g63
NtRp866
(dp867
g66
(dp868
g74
I4
ssg75
g862
sg68
(lp869
S'ISO-8859-1,utf-8;q=0.7,*;q=0.3'
p870
asbasbasbag61
(g77
g63
NtRp871
(dp872
g66
(dp873
sg75
g667
sg68
(lp874
g61
(g82
g63
NtRp875
(dp876
g66
(dp877
g86
g87
ssg75
g871
sg68
(lp878
S'http_accept_encoding'
p879
asbag61
(g82
g63
NtRp880
(dp881
g66
(dp882
g93
g94
ssg75
g871
sg68
(lp883
S':'
asbag61
(g82
g63
NtRp884
(dp885
g66
(dp886
sg75
g871
sg68
(lp887
g61
(g62
g63
NtRp888
(dp889
g66
(dp890
g74
I4
ssg75
g884
sg68
(lp891
S'gzip,deflate,sdch'
p892
asbasbasbag61
(g77
g63
NtRp893
(dp894
g66
(dp895
sg75
g667
sg68
(lp896
g61
(g82
g63
NtRp897
(dp898
g66
(dp899
g86
g87
ssg75
g893
sg68
(lp900
S'http_accept_language'
p901
asbag61
(g82
g63
NtRp902
(dp903
g66
(dp904
g93
g94
ssg75
g893
sg68
(lp905
S':'
asbag61
(g82
g63
NtRp906
(dp907
g66
(dp908
sg75
g893
sg68
(lp909
g61
(g62
g63
NtRp910
(dp911
g66
(dp912
g74
I4
ssg75
g906
sg68
(lp913
S'en-GB,en-US;q=0.8,en;q=0.6'
p914
asbasbasbag61
(g77
g63
NtRp915
(dp916
g66
(dp917
sg75
g667
sg68
(lp918
g61
(g82
g63
NtRp919
(dp920
g66
(dp921
g86
g87
ssg75
g915
sg68
(lp922
S'http_cache_control'
p923
asbag61
(g82
g63
NtRp924
(dp925
g66
(dp926
g93
g94
ssg75
g915
sg68
(lp927
S':'
asbag61
(g82
g63
NtRp928
(dp929
g66
(dp930
sg75
g915
sg68
(lp931
g61
(g62
g63
NtRp932
(dp933
g66
(dp934
g74
I4
ssg75
g928
sg68
(lp935
S'max-age=0'
p936
asbasbasbag61
(g77
g63
NtRp937
(dp938
g66
(dp939
sg75
g667
sg68
(lp940
g61
(g82
g63
NtRp941
(dp942
g66
(dp943
g86
g87
ssg75
g937
sg68
(lp944
S'http_connection'
p945
asbag61
(g82
g63
NtRp946
(dp947
g66
(dp948
g93
g94
ssg75
g937
sg68
(lp949
S':'
asbag61
(g82
g63
NtRp950
(dp951
g66
(dp952
sg75
g937
sg68
(lp953
g61
(g62
g63
NtRp954
(dp955
g66
(dp956
g74
I4
ssg75
g950
sg68
(lp957
S'keep-alive'
p958
asbasbasbag61
(g77
g63
NtRp959
(dp960
g66
(dp961
sg75
g667
sg68
(lp962
g61
(g82
g63
NtRp963
(dp964
g66
(dp965
g86
g87
ssg75
g959
sg68
(lp966
S'http_cookie'
p967
asbag61
(g82
g63
NtRp968
(dp969
g66
(dp970
g93
g94
ssg75
g959
sg68
(lp971
S':'
asbag61
(g82
g63
NtRp972
(dp973
g66
(dp974
sg75
g959
sg68
(lp975
g61
(g62
g63
NtRp976
(dp977
g66
(dp978
g74
I4
ssg75
g972
sg68
(lp979
S'__utma_a2a=6359846849.1349104586.1317547660.1319653128.1320077843.5; __utma=96992031.1518381523.1326395213.1326395213.1326395213.1; __utmz=96992031.1326395213.1.1.utmcsr=(direct)|utmccn=(direct)|utmcmd=(none); session_id_ojtest=127.0.0.1-b5b57796-0e2a-4052-be36-e0dfc18c0f95; session_id_admin=127.0.0.1-8fb055eb-ba39-44ee-b834-ead10179a2b2'
p980
asbasbasbag61
(g77
g63
NtRp981
(dp982
g66
(dp983
sg75
g667
sg68
(lp984
g61
(g82
g63
NtRp985
(dp986
g66
(dp987
g86
g87
ssg75
g981
sg68
(lp988
S'http_host'
p989
asbag61
(g82
g63
NtRp990
(dp991
g66
(dp992
g93
g94
ssg75
g981
sg68
(lp993
S':'
asbag61
(g82
g63
NtRp994
(dp995
g66
(dp996
sg75
g981
sg68
(lp997
g61
(g62
g63
NtRp998
(dp999
g66
(dp1000
g74
I4
ssg75
g994
sg68
(lp1001
S'127.0.0.1:8000'
p1002
asbasbasbag61
(g77
g63
NtRp1003
(dp1004
g66
(dp1005
sg75
g667
sg68
(lp1006
g61
(g82
g63
NtRp1007
(dp1008
g66
(dp1009
g86
g87
ssg75
g1003
sg68
(lp1010
S'http_referer'
p1011
asbag61
(g82
g63
NtRp1012
(dp1013
g66
(dp1014
g93
g94
ssg75
g1003
sg68
(lp1015
S':'
asbag61
(g82
g63
NtRp1016
(dp1017
g66
(dp1018
sg75
g1003
sg68
(lp1019
g61
(g62
g63
NtRp1020
(dp1021
g66
(dp1022
g74
I4
ssg75
g1016
sg68
(lp1023
S'http://127.0.0.1:8000/admin/default/index'
p1024
asbasbasbag61
(g77
g63
NtRp1025
(dp1026
g66
(dp1027
sg75
g667
sg68
(lp1028
g61
(g82
g63
NtRp1029
(dp1030
g66
(dp1031
g86
g87
ssg75
g1025
sg68
(lp1032
S'http_user_agent'
p1033
asbag61
(g82
g63
NtRp1034
(dp1035
g66
(dp1036
g93
g94
ssg75
g1025
sg68
(lp1037
S':'
asbag61
(g82
g63
NtRp1038
(dp1039
g66
(dp1040
sg75
g1025
sg68
(lp1041
g61
(g62
g63
NtRp1042
(dp1043
g66
(dp1044
g74
I4
ssg75
g1038
sg68
(lp1045
S'Mozilla/5.0 (Windows NT 6.1; WOW64) AppleWebKit/535.7 (KHTML, like Gecko) Chrome/16.0.912.75 Safari/535.7'
p1046
asbasbasbag61
(g77
g63
NtRp1047
(dp1048
g66
(dp1049
sg75
g667
sg68
(lp1050
g61
(g82
g63
NtRp1051
(dp1052
g66
(dp1053
g86
g87
ssg75
g1047
sg68
(lp1054
S'is_jython'
p1055
asbag61
(g82
g63
NtRp1056
(dp1057
g66
(dp1058
g93
g94
ssg75
g1047
sg68
(lp1059
S':'
asbag61
(g82
g63
NtRp1060
(dp1061
g66
(dp1062
sg75
g1047
sg68
(lp1063
g61
(g62
g63
NtRp1064
(dp1065
g66
(dp1066
g74
I4
ssg75
g1060
sg68
(lp1067
g104
asbasbasbag61
(g77
g63
NtRp1068
(dp1069
g66
(dp1070
sg75
g667
sg68
(lp1071
g61
(g82
g63
NtRp1072
(dp1073
g66
(dp1074
g86
g87
ssg75
g1068
sg68
(lp1075
S'path_info'
p1076
asbag61
(g82
g63
NtRp1077
(dp1078
g66
(dp1079
g93
g94
ssg75
g1068
sg68
(lp1080
S':'
asbag61
(g82
g63
NtRp1081
(dp1082
g66
(dp1083
sg75
g1068
sg68
(lp1084
g61
(g62
g63
NtRp1085
(dp1086
g66
(dp1087
g74
I4
ssg75
g1081
sg68
(lp1088
S'/admin/default/ticket/OJTest/60.242.177.184.2012-01-19.05-52-40.73e3f8d5-172e-4643-86ab-281e1292851a'
p1089
asbasbasbag61
(g77
g63
NtRp1090
(dp1091
g66
(dp1092
sg75
g667
sg68
(lp1093
g61
(g82
g63
NtRp1094
(dp1095
g66
(dp1096
g86
g87
ssg75
g1090
sg68
(lp1097
S'query_string'
p1098
asbag61
(g82
g63
NtRp1099
(dp1100
g66
(dp1101
g93
g94
ssg75
g1090
sg68
(lp1102
S':'
asbag61
(g82
g63
NtRp1103
(dp1104
g66
(dp1105
sg75
g1090
sg68
(lp1106
g61
(g62
g63
NtRp1107
(dp1108
g66
(dp1109
g74
I4
ssg75
g1103
sg68
(lp1110
S''
asbasbasbag61
(g77
g63
NtRp1111
(dp1112
g66
(dp1113
sg75
g667
sg68
(lp1114
g61
(g82
g63
NtRp1115
(dp1116
g66
(dp1117
g86
g87
ssg75
g1111
sg68
(lp1118
S'remote_addr'
p1119
asbag61
(g82
g63
NtRp1120
(dp1121
g66
(dp1122
g93
g94
ssg75
g1111
sg68
(lp1123
S':'
asbag61
(g82
g63
NtRp1124
(dp1125
g66
(dp1126
sg75
g1111
sg68
(lp1127
g61
(g62
g63
NtRp1128
(dp1129
g66
(dp1130
g74
I4
ssg75
g1124
sg68
(lp1131
g220
asbasbasbag61
(g77
g63
NtRp1132
(dp1133
g66
(dp1134
sg75
g667
sg68
(lp1135
g61
(g82
g63
NtRp1136
(dp1137
g66
(dp1138
g86
g87
ssg75
g1132
sg68
(lp1139
S'remote_port'
p1140
asbag61
(g82
g63
NtRp1141
(dp1142
g66
(dp1143
g93
g94
ssg75
g1132
sg68
(lp1144
S':'
asbag61
(g82
g63
NtRp1145
(dp1146
g66
(dp1147
sg75
g1132
sg68
(lp1148
g61
(g62
g63
NtRp1149
(dp1150
g66
(dp1151
g74
I4
ssg75
g1145
sg68
(lp1152
S'58808'
p1153
asbasbasbag61
(g77
g63
NtRp1154
(dp1155
g66
(dp1156
sg75
g667
sg68
(lp1157
g61
(g82
g63
NtRp1158
(dp1159
g66
(dp1160
g86
g87
ssg75
g1154
sg68
(lp1161
S'request_method'
p1162
asbag61
(g82
g63
NtRp1163
(dp1164
g66
(dp1165
g93
g94
ssg75
g1154
sg68
(lp1166
S':'
asbag61
(g82
g63
NtRp1167
(dp1168
g66
(dp1169
sg75
g1154
sg68
(lp1170
g61
(g62
g63
NtRp1171
(dp1172
g66
(dp1173
g74
I4
ssg75
g1167
sg68
(lp1174
S'GET'
p1175
asbasbasbag61
(g77
g63
NtRp1176
(dp1177
g66
(dp1178
sg75
g667
sg68
(lp1179
g61
(g82
g63
NtRp1180
(dp1181
g66
(dp1182
g86
g87
ssg75
g1176
sg68
(lp1183
S'request_uri'
p1184
asbag61
(g82
g63
NtRp1185
(dp1186
g66
(dp1187
g93
g94
ssg75
g1176
sg68
(lp1188
S':'
asbag61
(g82
g63
NtRp1189
(dp1190
g66
(dp1191
sg75
g1176
sg68
(lp1192
g61
(g62
g63
NtRp1193
(dp1194
g66
(dp1195
g74
I4
ssg75
g1189
sg68
(lp1196
g1089
asbasbasbag61
(g77
g63
NtRp1197
(dp1198
g66
(dp1199
sg75
g667
sg68
(lp1200
g61
(g82
g63
NtRp1201
(dp1202
g66
(dp1203
g86
g87
ssg75
g1197
sg68
(lp1204
S'script_name'
p1205
asbag61
(g82
g63
NtRp1206
(dp1207
g66
(dp1208
g93
g94
ssg75
g1197
sg68
(lp1209
S':'
asbag61
(g82
g63
NtRp1210
(dp1211
g66
(dp1212
sg75
g1197
sg68
(lp1213
g61
(g62
g63
NtRp1214
(dp1215
g66
(dp1216
g74
I4
ssg75
g1210
sg68
(lp1217
S''
asbasbasbag61
(g77
g63
NtRp1218
(dp1219
g66
(dp1220
sg75
g667
sg68
(lp1221
g61
(g82
g63
NtRp1222
(dp1223
g66
(dp1224
g86
g87
ssg75
g1218
sg68
(lp1225
S'server_name'
p1226
asbag61
(g82
g63
NtRp1227
(dp1228
g66
(dp1229
g93
g94
ssg75
g1218
sg68
(lp1230
S':'
asbag61
(g82
g63
NtRp1231
(dp1232
g66
(dp1233
sg75
g1218
sg68
(lp1234
g61
(g62
g63
NtRp1235
(dp1236
g66
(dp1237
g74
I4
ssg75
g1231
sg68
(lp1238
S'Sablasticus-hp'
p1239
asbasbasbag61
(g77
g63
NtRp1240
(dp1241
g66
(dp1242
sg75
g667
sg68
(lp1243
g61
(g82
g63
NtRp1244
(dp1245
g66
(dp1246
g86
g87
ssg75
g1240
sg68
(lp1247
S'server_port'
p1248
asbag61
(g82
g63
NtRp1249
(dp1250
g66
(dp1251
g93
g94
ssg75
g1240
sg68
(lp1252
S':'
asbag61
(g82
g63
NtRp1253
(dp1254
g66
(dp1255
sg75
g1240
sg68
(lp1256
g61
(g62
g63
NtRp1257
(dp1258
g66
(dp1259
g74
I4
ssg75
g1253
sg68
(lp1260
S'8000'
p1261
asbasbasbag61
(g77
g63
NtRp1262
(dp1263
g66
(dp1264
sg75
g667
sg68
(lp1265
g61
(g82
g63
NtRp1266
(dp1267
g66
(dp1268
g86
g87
ssg75
g1262
sg68
(lp1269
S'server_protocol'
p1270
asbag61
(g82
g63
NtRp1271
(dp1272
g66
(dp1273
g93
g94
ssg75
g1262
sg68
(lp1274
S':'
asbag61
(g82
g63
NtRp1275
(dp1276
g66
(dp1277
sg75
g1262
sg68
(lp1278
g61
(g62
g63
NtRp1279
(dp1280
g66
(dp1281
g74
I4
ssg75
g1275
sg68
(lp1282
S'HTTP/1.1'
p1283
asbasbasbag61
(g77
g63
NtRp1284
(dp1285
g66
(dp1286
sg75
g667
sg68
(lp1287
g61
(g82
g63
NtRp1288
(dp1289
g66
(dp1290
g86
g87
ssg75
g1284
sg68
(lp1291
S'server_software'
p1292
asbag61
(g82
g63
NtRp1293
(dp1294
g66
(dp1295
g93
g94
ssg75
g1284
sg68
(lp1296
S':'
asbag61
(g82
g63
NtRp1297
(dp1298
g66
(dp1299
sg75
g1284
sg68
(lp1300
g61
(g62
g63
NtRp1301
(dp1302
g66
(dp1303
g74
I4
ssg75
g1297
sg68
(lp1304
S'Rocket 1.2.4'
p1305
asbasbasbag61
(g77
g63
NtRp1306
(dp1307
g66
(dp1308
sg75
g667
sg68
(lp1309
g61
(g82
g63
NtRp1310
(dp1311
g66
(dp1312
g86
g87
ssg75
g1306
sg68
(lp1313
S'web2py_crontype'
p1314
asbag61
(g82
g63
NtRp1315
(dp1316
g66
(dp1317
g93
g94
ssg75
g1306
sg68
(lp1318
S':'
asbag61
(g82
g63
NtRp1319
(dp1320
g66
(dp1321
sg75
g1306
sg68
(lp1322
g61
(g62
g63
NtRp1323
(dp1324
g66
(dp1325
g74
I4
ssg75
g1319
sg68
(lp1326
S'hard'
p1327
asbasbasbag61
(g77
g63
NtRp1328
(dp1329
g66
(dp1330
sg75
g667
sg68
(lp1331
g61
(g82
g63
NtRp1332
(dp1333
g66
(dp1334
g86
g87
ssg75
g1328
sg68
(lp1335
S'web2py_original_uri'
p1336
asbag61
(g82
g63
NtRp1337
(dp1338
g66
(dp1339
g93
g94
ssg75
g1328
sg68
(lp1340
S':'
asbag61
(g82
g63
NtRp1341
(dp1342
g66
(dp1343
sg75
g1328
sg68
(lp1344
g61
(g62
g63
NtRp1345
(dp1346
g66
(dp1347
g74
I4
ssg75
g1341
sg68
(lp1348
g1089
asbasbasbag61
(g77
g63
NtRp1349
(dp1350
g66
(dp1351
sg75
g667
sg68
(lp1352
g61
(g82
g63
NtRp1353
(dp1354
g66
(dp1355
g86
g87
ssg75
g1349
sg68
(lp1356
S'web2py_path'
p1357
asbag61
(g82
g63
NtRp1358
(dp1359
g66
(dp1360
g93
g94
ssg75
g1349
sg68
(lp1361
S':'
asbag61
(g82
g63
NtRp1362
(dp1363
g66
(dp1364
sg75
g1349
sg68
(lp1365
g61
(g62
g63
NtRp1366
(dp1367
g66
(dp1368
g74
I4
ssg75
g1362
sg68
(lp1369
g714
asbasbasbag61
(g77
g63
NtRp1370
(dp1371
g66
(dp1372
sg75
g667
sg68
(lp1373
g61
(g82
g63
NtRp1374
(dp1375
g66
(dp1376
g86
g87
ssg75
g1370
sg68
(lp1377
S'web2py_version'
p1378
asbag61
(g82
g63
NtRp1379
(dp1380
g66
(dp1381
g93
g94
ssg75
g1370
sg68
(lp1382
S':'
asbag61
(g82
g63
NtRp1383
(dp1384
g66
(dp1385
sg75
g1370
sg68
(lp1386
g61
(g62
g63
NtRp1387
(dp1388
g66
(dp1389
g74
I4
ssg75
g1383
sg68
(lp1390
g61
(g70
g63
NtRp1391
(dp1392
g66
(dp1393
g74
I3
ssg75
Nsg68
(lp1394
g61
(g77
g63
NtRp1395
(dp1396
g66
(dp1397
sg75
g1391
sg68
(lp1398
g61
(g82
g63
NtRp1399
(dp1400
g66
(dp1401
sg75
g1395
sg68
(lp1402
g61
(g62
g63
NtRp1403
(dp1404
g66
(dp1405
g74
I3
ssg75
g1399
sg68
(lp1406
S'1'
asbasbasbag61
(g77
g63
NtRp1407
(dp1408
g66
(dp1409
sg75
g1391
sg68
(lp1410
g61
(g82
g63
NtRp1411
(dp1412
g66
(dp1413
sg75
g1407
sg68
(lp1414
g61
(g62
g63
NtRp1415
(dp1416
g66
(dp1417
g74
I3
ssg75
g1411
sg68
(lp1418
S'99'
p1419
asbasbasbag61
(g77
g63
NtRp1420
(dp1421
g66
(dp1422
sg75
g1391
sg68
(lp1423
g61
(g82
g63
NtRp1424
(dp1425
g66
(dp1426
sg75
g1420
sg68
(lp1427
g61
(g62
g63
NtRp1428
(dp1429
g66
(dp1430
g74
I3
ssg75
g1424
sg68
(lp1431
S'2'
asbasbasbag61
(g77
g63
NtRp1432
(dp1433
g66
(dp1434
sg75
g1391
sg68
(lp1435
g61
(g82
g63
NtRp1436
(dp1437
g66
(dp1438
sg75
g1432
sg68
(lp1439
g61
(g62
g63
NtRp1440
(dp1441
g66
(dp1442
g74
I3
ssg75
g1436
sg68
(lp1443
S'datetime.datetime(2011, 9, 26, 6, 55, 33)'
p1444
asbasbasbag61
(g77
g63
NtRp1445
(dp1446
g66
(dp1447
sg75
g1391
sg68
(lp1448
g61
(g82
g63
NtRp1449
(dp1450
g66
(dp1451
sg75
g1445
sg68
(lp1452
g61
(g62
g63
NtRp1453
(dp1454
g66
(dp1455
g74
I3
ssg75
g1449
sg68
(lp1456
S'stable'
p1457
asbasbasbasbasbasbasbag61
(g77
g63
NtRp1458
(dp1459
g66
(dp1460
sg75
g667
sg68
(lp1461
g61
(g82
g63
NtRp1462
(dp1463
g66
(dp1464
g86
g87
ssg75
g1458
sg68
(lp1465
S'wsgi_errors'
p1466
asbag61
(g82
g63
NtRp1467
(dp1468
g66
(dp1469
g93
g94
ssg75
g1458
sg68
(lp1470
S':'
asbag61
(g82
g63
NtRp1471
(dp1472
g66
(dp1473
sg75
g1458
sg68
(lp1474
g61
(g62
g63
NtRp1475
(dp1476
g66
(dp1477
g74
I4
ssg75
g1471
sg68
(lp1478
S"<open file '<stderr>', mode 'w' at 0x0000000001D7E1E0>"
p1479
asbasbasbag61
(g77
g63
NtRp1480
(dp1481
g66
(dp1482
sg75
g667
sg68
(lp1483
g61
(g82
g63
NtRp1484
(dp1485
g66
(dp1486
g86
g87
ssg75
g1480
sg68
(lp1487
S'wsgi_file_wrapper'
p1488
asbag61
(g82
g63
NtRp1489
(dp1490
g66
(dp1491
g93
g94
ssg75
g1480
sg68
(lp1492
S':'
asbag61
(g82
g63
NtRp1493
(dp1494
g66
(dp1495
sg75
g1480
sg68
(lp1496
g61
(g62
g63
NtRp1497
(dp1498
g66
(dp1499
g74
I4
ssg75
g1493
sg68
(lp1500
S'<class wsgiref.util.FileWrapper at 0x00000000033B0288>'
p1501
asbasbasbag61
(g77
g63
NtRp1502
(dp1503
g66
(dp1504
sg75
g667
sg68
(lp1505
g61
(g82
g63
NtRp1506
(dp1507
g66
(dp1508
g86
g87
ssg75
g1502
sg68
(lp1509
S'wsgi_input'
p1510
asbag61
(g82
g63
NtRp1511
(dp1512
g66
(dp1513
g93
g94
ssg75
g1502
sg68
(lp1514
S':'
asbag61
(g82
g63
NtRp1515
(dp1516
g66
(dp1517
sg75
g1502
sg68
(lp1518
g61
(g62
g63
NtRp1519
(dp1520
g66
(dp1521
g74
I4
ssg75
g1515
sg68
(lp1522
S'<socket._fileobject object at 0x0000000003C3D0C0>'
p1523
asbasbasbag61
(g77
g63
NtRp1524
(dp1525
g66
(dp1526
sg75
g667
sg68
(lp1527
g61
(g82
g63
NtRp1528
(dp1529
g66
(dp1530
g86
g87
ssg75
g1524
sg68
(lp1531
S'wsgi_multiprocess'
p1532
asbag61
(g82
g63
NtRp1533
(dp1534
g66
(dp1535
g93
g94
ssg75
g1524
sg68
(lp1536
S':'
asbag61
(g82
g63
NtRp1537
(dp1538
g66
(dp1539
sg75
g1524
sg68
(lp1540
g61
(g62
g63
NtRp1541
(dp1542
g66
(dp1543
g74
I4
ssg75
g1537
sg68
(lp1544
g104
asbasbasbag61
(g77
g63
NtRp1545
(dp1546
g66
(dp1547
sg75
g667
sg68
(lp1548
g61
(g82
g63
NtRp1549
(dp1550
g66
(dp1551
g86
g87
ssg75
g1545
sg68
(lp1552
S'wsgi_multithread'
p1553
asbag61
(g82
g63
NtRp1554
(dp1555
g66
(dp1556
g93
g94
ssg75
g1545
sg68
(lp1557
S':'
asbag61
(g82
g63
NtRp1558
(dp1559
g66
(dp1560
sg75
g1545
sg68
(lp1561
g61
(g62
g63
NtRp1562
(dp1563
g66
(dp1564
g74
I4
ssg75
g1558
sg68
(lp1565
S'True'
p1566
asbasbasbag61
(g77
g63
NtRp1567
(dp1568
g66
(dp1569
sg75
g667
sg68
(lp1570
g61
(g82
g63
NtRp1571
(dp1572
g66
(dp1573
g86
g87
ssg75
g1567
sg68
(lp1574
S'wsgi_run_once'
p1575
asbag61
(g82
g63
NtRp1576
(dp1577
g66
(dp1578
g93
g94
ssg75
g1567
sg68
(lp1579
S':'
asbag61
(g82
g63
NtRp1580
(dp1581
g66
(dp1582
sg75
g1567
sg68
(lp1583
g61
(g62
g63
NtRp1584
(dp1585
g66
(dp1586
g74
I4
ssg75
g1580
sg68
(lp1587
g104
asbasbasbag61
(g77
g63
NtRp1588
(dp1589
g66
(dp1590
sg75
g667
sg68
(lp1591
g61
(g82
g63
NtRp1592
(dp1593
g66
(dp1594
g86
g87
ssg75
g1588
sg68
(lp1595
S'wsgi_url_scheme'
p1596
asbag61
(g82
g63
NtRp1597
(dp1598
g66
(dp1599
g93
g94
ssg75
g1588
sg68
(lp1600
S':'
asbag61
(g82
g63
NtRp1601
(dp1602
g66
(dp1603
sg75
g1588
sg68
(lp1604
g61
(g62
g63
NtRp1605
(dp1606
g66
(dp1607
g74
I4
ssg75
g1601
sg68
(lp1608
S'http'
p1609
asbasbasbag61
(g77
g63
NtRp1610
(dp1611
g66
(dp1612
sg75
g667
sg68
(lp1613
g61
(g82
g63
NtRp1614
(dp1615
g66
(dp1616
g86
g87
ssg75
g1610
sg68
(lp1617
S'wsgi_version'
p1618
asbag61
(g82
g63
NtRp1619
(dp1620
g66
(dp1621
g93
g94
ssg75
g1610
sg68
(lp1622
S':'
asbag61
(g82
g63
NtRp1623
(dp1624
g66
(dp1625
sg75
g1610
sg68
(lp1626
g61
(g62
g63
NtRp1627
(dp1628
g66
(dp1629
g74
I4
ssg75
g1623
sg68
(lp1630
g61
(g70
g63
NtRp1631
(dp1632
g66
(dp1633
g74
I3
ssg75
Nsg68
(lp1634
g61
(g77
g63
NtRp1635
(dp1636
g66
(dp1637
sg75
g1631
sg68
(lp1638
g61
(g82
g63
NtRp1639
(dp1640
g66
(dp1641
sg75
g1635
sg68
(lp1642
g61
(g62
g63
NtRp1643
(dp1644
g66
(dp1645
g74
I3
ssg75
g1639
sg68
(lp1646
S'1'
asbasbasbag61
(g77
g63
NtRp1647
(dp1648
g66
(dp1649
sg75
g1631
sg68
(lp1650
g61
(g82
g63
NtRp1651
(dp1652
g66
(dp1653
sg75
g1647
sg68
(lp1654
g61
(g62
g63
NtRp1655
(dp1656
g66
(dp1657
g74
I3
ssg75
g1651
sg68
(lp1658
S'0'
asbasbasbasbasbasbasbasbasbasbasbag61
(g77
g63
NtRp1659
(dp1660
g66
(dp1661
sg75
g71
sg68
(lp1662
g61
(g82
g63
NtRp1663
(dp1664
g66
(dp1665
g86
g87
ssg75
g1659
sg68
(lp1666
S'extension'
p1667
asbag61
(g82
g63
NtRp1668
(dp1669
g66
(dp1670
g93
g94
ssg75
g1659
sg68
(lp1671
S':'
asbag61
(g82
g63
NtRp1672
(dp1673
g66
(dp1674
sg75
g1659
sg68
(lp1675
g61
(g62
g63
NtRp1676
(dp1677
g66
(dp1678
g74
I5
ssg75
g1672
sg68
(lp1679
S'html'
p1680
asbasbasbag61
(g77
g63
NtRp1681
(dp1682
g66
(dp1683
sg75
g71
sg68
(lp1684
g61
(g82
g63
NtRp1685
(dp1686
g66
(dp1687
g86
g87
ssg75
g1681
sg68
(lp1688
S'folder'
p1689
asbag61
(g82
g63
NtRp1690
(dp1691
g66
(dp1692
g93
g94
ssg75
g1681
sg68
(lp1693
S':'
asbag61
(g82
g63
NtRp1694
(dp1695
g66
(dp1696
sg75
g1681
sg68
(lp1697
g61
(g62
g63
NtRp1698
(dp1699
g66
(dp1700
g74
I5
ssg75
g1694
sg68
(lp1701
S'C:\\webapps\\dopbox\\Dropbox\\Eclipse\\OJDevSourceProject\\project\\web2py\\applications\\admin\\'
p1702
asbasbasbag61
(g77
g63
NtRp1703
(dp1704
g66
(dp1705
sg75
g71
sg68
(lp1706
g61
(g82
g63
NtRp1707
(dp1708
g66
(dp1709
g86
g87
ssg75
g1703
sg68
(lp1710
S'function'
p1711
asbag61
(g82
g63
NtRp1712
(dp1713
g66
(dp1714
g93
g94
ssg75
g1703
sg68
(lp1715
S':'
asbag61
(g82
g63
NtRp1716
(dp1717
g66
(dp1718
sg75
g1703
sg68
(lp1719
g61
(g62
g63
NtRp1720
(dp1721
g66
(dp1722
g74
I5
ssg75
g1716
sg68
(lp1723
S'ticket'
p1724
asbasbasbag61
(g77
g63
NtRp1725
(dp1726
g66
(dp1727
sg75
g71
sg68
(lp1728
g61
(g82
g63
NtRp1729
(dp1730
g66
(dp1731
g86
g87
ssg75
g1725
sg68
(lp1732
S'get_vars'
p1733
asbag61
(g82
g63
NtRp1734
(dp1735
g66
(dp1736
g93
g94
ssg75
g1725
sg68
(lp1737
S':'
asbag61
(g82
g63
NtRp1738
(dp1739
g66
(dp1740
sg75
g1725
sg68
(lp1741
g61
(g62
g63
NtRp1742
(dp1743
g66
(dp1744
g74
I5
ssg75
g1738
sg68
(lp1745
g61
(g70
g63
NtRp1746
(dp1747
g66
(dp1748
g74
I4
ssg75
Nsg68
(lp1749
sbasbasbasbag61
(g77
g63
NtRp1750
(dp1751
g66
(dp1752
sg75
g71
sg68
(lp1753
g61
(g82
g63
NtRp1754
(dp1755
g66
(dp1756
g86
g87
ssg75
g1750
sg68
(lp1757
S'global_settings'
p1758
asbag61
(g82
g63
NtRp1759
(dp1760
g66
(dp1761
g93
g94
ssg75
g1750
sg68
(lp1762
S':'
asbag61
(g82
g63
NtRp1763
(dp1764
g66
(dp1765
sg75
g1750
sg68
(lp1766
g61
(g62
g63
NtRp1767
(dp1768
g66
(dp1769
g74
I5
ssg75
g1763
sg68
(lp1770
g61
(g70
g63
NtRp1771
(dp1772
g66
(dp1773
g74
I4
ssg75
Nsg68
(lp1774
g61
(g77
g63
NtRp1775
(dp1776
g66
(dp1777
sg75
g1771
sg68
(lp1778
g61
(g82
g63
NtRp1779
(dp1780
g66
(dp1781
g86
g87
ssg75
g1775
sg68
(lp1782
g679
asbag61
(g82
g63
NtRp1783
(dp1784
g66
(dp1785
g93
g94
ssg75
g1775
sg68
(lp1786
S':'
asbag61
(g82
g63
NtRp1787
(dp1788
g66
(dp1789
sg75
g1775
sg68
(lp1790
g61
(g62
g63
NtRp1791
(dp1792
g66
(dp1793
g74
I4
ssg75
g1787
sg68
(lp1794
S"set(['C:\\\\webapps\\\\dopbox\\\\Dropbox\\\\Eclipse\\\\OJDevSourceProject\\\\project\\\\web2py\\\\applications\\\\OJTest\\\\', 'C:\\\\webapps\\\\dopbox\\\\Dropbox\\\\Eclipse\\\\OJDevSourceProject\\\\project\\\\web2py\\\\applications\\\\admin\\\\'])"
p1795
asbasbasbag61
(g77
g63
NtRp1796
(dp1797
g66
(dp1798
sg75
g1771
sg68
(lp1799
g61
(g82
g63
NtRp1800
(dp1801
g66
(dp1802
g86
g87
ssg75
g1796
sg68
(lp1803
g701
asbag61
(g82
g63
NtRp1804
(dp1805
g66
(dp1806
g93
g94
ssg75
g1796
sg68
(lp1807
S':'
asbag61
(g82
g63
NtRp1808
(dp1809
g66
(dp1810
sg75
g1796
sg68
(lp1811
g61
(g62
g63
NtRp1812
(dp1813
g66
(dp1814
g74
I4
ssg75
g1808
sg68
(lp1815
g714
asbasbasbag61
(g77
g63
NtRp1816
(dp1817
g66
(dp1818
sg75
g1771
sg68
(lp1819
g61
(g82
g63
NtRp1820
(dp1821
g66
(dp1822
g86
g87
ssg75
g1816
sg68
(lp1823
g723
asbag61
(g82
g63
NtRp1824
(dp1825
g66
(dp1826
g93
g94
ssg75
g1816
sg68
(lp1827
S':'
asbag61
(g82
g63
NtRp1828
(dp1829
g66
(dp1830
sg75
g1816
sg68
(lp1831
g61
(g62
g63
NtRp1832
(dp1833
g66
(dp1834
g74
I4
ssg75
g1828
sg68
(lp1835
g61
(g70
g63
NtRp1836
(dp1837
g66
(dp1838
g74
I3
ssg75
Nsg68
(lp1839
sbasbasbasbag61
(g77
g63
NtRp1840
(dp1841
g66
(dp1842
sg75
g1771
sg68
(lp1843
g61
(g82
g63
NtRp1844
(dp1845
g66
(dp1846
g86
g87
ssg75
g1840
sg68
(lp1847
g748
asbag61
(g82
g63
NtRp1848
(dp1849
g66
(dp1850
g93
g94
ssg75
g1840
sg68
(lp1851
S':'
asbag61
(g82
g63
NtRp1852
(dp1853
g66
(dp1854
sg75
g1840
sg68
(lp1855
g61
(g62
g63
NtRp1856
(dp1857
g66
(dp1858
g74
I4
ssg75
g1852
sg68
(lp1859
S"<Values at 0x37fce08: {'verbose': False, 'ip': '127.0.0.1', 'shutdown_timeout': 5, 'taskbar': False, 'nocron': False, 'pid_filename': 'httpserver.pid', 'maxthreads': None, 'softcron': False, 'server_name': 'Sablasticus-hp', 'bpython': False, 'nogui': False, 'port': 8000, 'extcron': False, 'debuglevel': 30, 'test': None, 'folder': 'C:\\\\webapps\\\\dopbox\\\\Dropbox\\\\Eclipse\\\\OJDevSourceProject\\\\project\\\\web2py', 'config': '', 'import_models': False, 'winservice': '', 'shell': None, 'run': '', 'log_filename': 'httpserver.log', 'args': [''], 'ssl_ca_certificate': None, 'scheduler': None, 'profiler_filename': None, 'ssl_private_key': '', 'password': '<ask>', 'request_queue_size': 5, 'ssl_certificate': '', 'cronjob': False, 'plain': False, 'quiet': False, 'interfaces': None, 'minthreads': None, 'timeout': 10, 'numthreads': None, 'nobanner': False}>"
p1860
asbasbasbag61
(g77
g63
NtRp1861
(dp1862
g66
(dp1863
sg75
g1771
sg68
(lp1864
g61
(g82
g63
NtRp1865
(dp1866
g66
(dp1867
g86
g87
ssg75
g1861
sg68
(lp1868
g770
asbag61
(g82
g63
NtRp1869
(dp1870
g66
(dp1871
g93
g94
ssg75
g1861
sg68
(lp1872
S':'
asbag61
(g82
g63
NtRp1873
(dp1874
g66
(dp1875
sg75
g1861
sg68
(lp1876
g61
(g62
g63
NtRp1877
(dp1878
g66
(dp1879
g74
I4
ssg75
g1873
sg68
(lp1880
S'set([])'
p1881
asbasbasbag61
(g77
g63
NtRp1882
(dp1883
g66
(dp1884
sg75
g1771
sg68
(lp1885
g61
(g82
g63
NtRp1886
(dp1887
g66
(dp1888
g86
g87
ssg75
g1882
sg68
(lp1889
g792
asbag61
(g82
g63
NtRp1890
(dp1891
g66
(dp1892
g93
g94
ssg75
g1882
sg68
(lp1893
S':'
asbag61
(g82
g63
NtRp1894
(dp1895
g66
(dp1896
sg75
g1882
sg68
(lp1897
g61
(g62
g63
NtRp1898
(dp1899
g66
(dp1900
g74
I4
ssg75
g1894
sg68
(lp1901
g104
asbasbasbag61
(g77
g63
NtRp1902
(dp1903
g66
(dp1904
sg75
g1771
sg68
(lp1905
g61
(g82
g63
NtRp1906
(dp1907
g66
(dp1908
g86
g87
ssg75
g1902
sg68
(lp1909
g813
asbag61
(g82
g63
NtRp1910
(dp1911
g66
(dp1912
g93
g94
ssg75
g1902
sg68
(lp1913
S':'
asbag61
(g82
g63
NtRp1914
(dp1915
g66
(dp1916
sg75
g1902
sg68
(lp1917
g61
(g62
g63
NtRp1918
(dp1919
g66
(dp1920
g74
I4
ssg75
g1914
sg68
(lp1921
g826
asbasbasbag61
(g77
g63
NtRp1922
(dp1923
g66
(dp1924
sg75
g1771
sg68
(lp1925
g61
(g82
g63
NtRp1926
(dp1927
g66
(dp1928
g86
g87
ssg75
g1922
sg68
(lp1929
g1055
asbag61
(g82
g63
NtRp1930
(dp1931
g66
(dp1932
g93
g94
ssg75
g1922
sg68
(lp1933
S':'
asbag61
(g82
g63
NtRp1934
(dp1935
g66
(dp1936
sg75
g1922
sg68
(lp1937
g61
(g62
g63
NtRp1938
(dp1939
g66
(dp1940
g74
I4
ssg75
g1934
sg68
(lp1941
g104
asbasbasbag61
(g77
g63
NtRp1942
(dp1943
g66
(dp1944
sg75
g1771
sg68
(lp1945
g61
(g82
g63
NtRp1946
(dp1947
g66
(dp1948
g86
g87
ssg75
g1942
sg68
(lp1949
g1314
asbag61
(g82
g63
NtRp1950
(dp1951
g66
(dp1952
g93
g94
ssg75
g1942
sg68
(lp1953
S':'
asbag61
(g82
g63
NtRp1954
(dp1955
g66
(dp1956
sg75
g1942
sg68
(lp1957
g61
(g62
g63
NtRp1958
(dp1959
g66
(dp1960
g74
I4
ssg75
g1954
sg68
(lp1961
g1327
asbasbasbag61
(g77
g63
NtRp1962
(dp1963
g66
(dp1964
sg75
g1771
sg68
(lp1965
g61
(g82
g63
NtRp1966
(dp1967
g66
(dp1968
g86
g87
ssg75
g1962
sg68
(lp1969
g1378
asbag61
(g82
g63
NtRp1970
(dp1971
g66
(dp1972
g93
g94
ssg75
g1962
sg68
(lp1973
S':'
asbag61
(g82
g63
NtRp1974
(dp1975
g66
(dp1976
sg75
g1962
sg68
(lp1977
g61
(g62
g63
NtRp1978
(dp1979
g66
(dp1980
g74
I4
ssg75
g1974
sg68
(lp1981
g61
(g70
g63
NtRp1982
(dp1983
g66
(dp1984
g74
I3
ssg75
Nsg68
(lp1985
g61
(g77
g63
NtRp1986
(dp1987
g66
(dp1988
sg75
g1982
sg68
(lp1989
g61
(g82
g63
NtRp1990
(dp1991
g66
(dp1992
sg75
g1986
sg68
(lp1993
g61
(g62
g63
NtRp1994
(dp1995
g66
(dp1996
g74
I3
ssg75
g1990
sg68
(lp1997
S'1'
asbasbasbag61
(g77
g63
NtRp1998
(dp1999
g66
(dp2000
sg75
g1982
sg68
(lp2001
g61
(g82
g63
NtRp2002
(dp2003
g66
(dp2004
sg75
g1998
sg68
(lp2005
g61
(g62
g63
NtRp2006
(dp2007
g66
(dp2008
g74
I3
ssg75
g2002
sg68
(lp2009
S'99'
p2010
asbasbasbag61
(g77
g63
NtRp2011
(dp2012
g66
(dp2013
sg75
g1982
sg68
(lp2014
g61
(g82
g63
NtRp2015
(dp2016
g66
(dp2017
sg75
g2011
sg68
(lp2018
g61
(g62
g63
NtRp2019
(dp2020
g66
(dp2021
g74
I3
ssg75
g2015
sg68
(lp2022
S'2'
asbasbasbag61
(g77
g63
NtRp2023
(dp2024
g66
(dp2025
sg75
g1982
sg68
(lp2026
g61
(g82
g63
NtRp2027
(dp2028
g66
(dp2029
sg75
g2023
sg68
(lp2030
g61
(g62
g63
NtRp2031
(dp2032
g66
(dp2033
g74
I3
ssg75
g2027
sg68
(lp2034
S'datetime.datetime(2011, 9, 26, 6, 55, 33)'
p2035
asbasbasbag61
(g77
g63
NtRp2036
(dp2037
g66
(dp2038
sg75
g1982
sg68
(lp2039
g61
(g82
g63
NtRp2040
(dp2041
g66
(dp2042
sg75
g2036
sg68
(lp2043
g61
(g62
g63
NtRp2044
(dp2045
g66
(dp2046
g74
I3
ssg75
g2040
sg68
(lp2047
g1457
asbasbasbasbasbasbasbasbasbasbasbag61
(g77
g63
NtRp2048
(dp2049
g66
(dp2050
sg75
g71
sg68
(lp2051
g61
(g82
g63
NtRp2052
(dp2053
g66
(dp2054
g86
g87
ssg75
g2048
sg68
(lp2055
S'is_https'
p2056
asbag61
(g82
g63
NtRp2057
(dp2058
g66
(dp2059
g93
g94
ssg75
g2048
sg68
(lp2060
S':'
asbag61
(g82
g63
NtRp2061
(dp2062
g66
(dp2063
sg75
g2048
sg68
(lp2064
g61
(g62
g63
NtRp2065
(dp2066
g66
(dp2067
g74
I5
ssg75
g2061
sg68
(lp2068
g104
asbasbasbag61
(g77
g63
NtRp2069
(dp2070
g66
(dp2071
sg75
g71
sg68
(lp2072
g61
(g82
g63
NtRp2073
(dp2074
g66
(dp2075
g86
g87
ssg75
g2069
sg68
(lp2076
S'is_local'
p2077
asbag61
(g82
g63
NtRp2078
(dp2079
g66
(dp2080
g93
g94
ssg75
g2069
sg68
(lp2081
S':'
asbag61
(g82
g63
NtRp2082
(dp2083
g66
(dp2084
sg75
g2069
sg68
(lp2085
g61
(g62
g63
NtRp2086
(dp2087
g66
(dp2088
g74
I5
ssg75
g2082
sg68
(lp2089
g1566
asbasbasbag61
(g77
g63
NtRp2090
(dp2091
g66
(dp2092
sg75
g71
sg68
(lp2093
g61
(g82
g63
NtRp2094
(dp2095
g66
(dp2096
g86
g87
ssg75
g2090
sg68
(lp2097
S'is_restful'
p2098
asbag61
(g82
g63
NtRp2099
(dp2100
g66
(dp2101
g93
g94
ssg75
g2090
sg68
(lp2102
S':'
asbag61
(g82
g63
NtRp2103
(dp2104
g66
(dp2105
sg75
g2090
sg68
(lp2106
g61
(g62
g63
NtRp2107
(dp2108
g66
(dp2109
g74
I5
ssg75
g2103
sg68
(lp2110
g104
asbasbasbag61
(g77
g63
NtRp2111
(dp2112
g66
(dp2113
sg75
g71
sg68
(lp2114
g61
(g82
g63
NtRp2115
(dp2116
g66
(dp2117
g86
g87
ssg75
g2111
sg68
(lp2118
S'now'
p2119
asbag61
(g82
g63
NtRp2120
(dp2121
g66
(dp2122
g93
g94
ssg75
g2111
sg68
(lp2123
S':'
asbag61
(g82
g63
NtRp2124
(dp2125
g66
(dp2126
sg75
g2111
sg68
(lp2127
g61
(g62
g63
NtRp2128
(dp2129
g66
(dp2130
g74
I5
ssg75
g2124
sg68
(lp2131
S'datetime.datetime(2012, 1, 19, 22, 31, 3, 864000)'
p2132
asbasbasbag61
(g77
g63
NtRp2133
(dp2134
g66
(dp2135
sg75
g71
sg68
(lp2136
g61
(g82
g63
NtRp2137
(dp2138
g66
(dp2139
g86
g87
ssg75
g2133
sg68
(lp2140
S'post_vars'
p2141
asbag61
(g82
g63
NtRp2142
(dp2143
g66
(dp2144
g93
g94
ssg75
g2133
sg68
(lp2145
S':'
asbag61
(g82
g63
NtRp2146
(dp2147
g66
(dp2148
sg75
g2133
sg68
(lp2149
g61
(g62
g63
NtRp2150
(dp2151
g66
(dp2152
g74
I5
ssg75
g2146
sg68
(lp2153
g61
(g70
g63
NtRp2154
(dp2155
g66
(dp2156
g74
I4
ssg75
Nsg68
(lp2157
sbasbasbasbag61
(g77
g63
NtRp2158
(dp2159
g66
(dp2160
sg75
g71
sg68
(lp2161
g61
(g82
g63
NtRp2162
(dp2163
g66
(dp2164
g86
g87
ssg75
g2158
sg68
(lp2165
S'raw_args'
p2166
asbag61
(g82
g63
NtRp2167
(dp2168
g66
(dp2169
g93
g94
ssg75
g2158
sg68
(lp2170
S':'
asbag61
(g82
g63
NtRp2171
(dp2172
g66
(dp2173
sg75
g2158
sg68
(lp2174
g61
(g62
g63
NtRp2175
(dp2176
g66
(dp2177
g74
I5
ssg75
g2171
sg68
(lp2178
S'OJTest/60.242.177.184.2012-01-19.05-52-40.73e3f8d5-172e-4643-86ab-281e1292851a'
p2179
asbasbasbag61
(g77
g63
NtRp2180
(dp2181
g66
(dp2182
sg75
g71
sg68
(lp2183
g61
(g82
g63
NtRp2184
(dp2185
g66
(dp2186
g86
g87
ssg75
g2180
sg68
(lp2187
S'url'
p2188
asbag61
(g82
g63
NtRp2189
(dp2190
g66
(dp2191
g93
g94
ssg75
g2180
sg68
(lp2192
S':'
asbag61
(g82
g63
NtRp2193
(dp2194
g66
(dp2195
sg75
g2180
sg68
(lp2196
g61
(g62
g63
NtRp2197
(dp2198
g66
(dp2199
g74
I5
ssg75
g2193
sg68
(lp2200
S'/admin/default/ticket/OJTest/60.242.177.184.2012-01-19.05-52-40.73e3f8d5-172e-4643-86ab-281e1292851a'
p2201
asbasbasbag61
(g77
g63
NtRp2202
(dp2203
g66
(dp2204
sg75
g71
sg68
(lp2205
g61
(g82
g63
NtRp2206
(dp2207
g66
(dp2208
g86
g87
ssg75
g2202
sg68
(lp2209
S'utcnow'
p2210
asbag61
(g82
g63
NtRp2211
(dp2212
g66
(dp2213
g93
g94
ssg75
g2202
sg68
(lp2214
S':'
asbag61
(g82
g63
NtRp2215
(dp2216
g66
(dp2217
sg75
g2202
sg68
(lp2218
g61
(g62
g63
NtRp2219
(dp2220
g66
(dp2221
g74
I5
ssg75
g2215
sg68
(lp2222
S'datetime.datetime(2012, 1, 19, 11, 31, 3, 864000)'
p2223
asbasbasbag61
(g77
g63
NtRp2224
(dp2225
g66
(dp2226
sg75
g71
sg68
(lp2227
g61
(g82
g63
NtRp2228
(dp2229
g66
(dp2230
g86
g87
ssg75
g2224
sg68
(lp2231
S'uuid'
p2232
asbag61
(g82
g63
NtRp2233
(dp2234
g66
(dp2235
g93
g94
ssg75
g2224
sg68
(lp2236
S':'
asbag61
(g82
g63
NtRp2237
(dp2238
g66
(dp2239
sg75
g2224
sg68
(lp2240
g61
(g62
g63
NtRp2241
(dp2242
g66
(dp2243
g74
I5
ssg75
g2237
sg68
(lp2244
S'admin/127.0.0.1.2012-01-19.22-31-03.1f35c596-dee3-4aee-a885-9ed8693dedd5'
p2245
asbasbasbag61
(g77
g63
NtRp2246
(dp2247
g66
(dp2248
sg75
g71
sg68
(lp2249
g61
(g82
g63
NtRp2250
(dp2251
g66
(dp2252
g86
g87
ssg75
g2246
sg68
(lp2253
S'vars'
p2254
asbag61
(g82
g63
NtRp2255
(dp2256
g66
(dp2257
g93
g94
ssg75
g2246
sg68
(lp2258
S':'
asbag61
(g82
g63
NtRp2259
(dp2260
g66
(dp2261
sg75
g2246
sg68
(lp2262
g61
(g62
g63
NtRp2263
(dp2264
g66
(dp2265
g74
I5
ssg75
g2259
sg68
(lp2266
g61
(g70
g63
NtRp2267
(dp2268
g66
(dp2269
g74
I4
ssg75
Nsg68
(lp2270
sbasbasbasbag61
(g77
g63
NtRp2271
(dp2272
g66
(dp2273
sg75
g71
sg68
(lp2274
g61
(g82
g63
NtRp2275
(dp2276
g66
(dp2277
g86
g87
ssg75
g2271
sg68
(lp2278
S'wsgi'
p2279
asbag61
(g82
g63
NtRp2280
(dp2281
g66
(dp2282
g93
g94
ssg75
g2271
sg68
(lp2283
S':'
asbag61
(g82
g63
NtRp2284
(dp2285
g66
(dp2286
sg75
g2271
sg68
(lp2287
g61
(g62
g63
NtRp2288
(dp2289
g66
(dp2290
g74
I5
ssg75
g2284
sg68
(lp2291
g61
(g70
g63
NtRp2292
(dp2293
g66
(dp2294
g74
I4
ssg75
Nsg68
(lp2295
g61
(g77
g63
NtRp2296
(dp2297
g66
(dp2298
sg75
g2292
sg68
(lp2299
g61
(g82
g63
NtRp2300
(dp2301
g66
(dp2302
g86
g87
ssg75
g2296
sg68
(lp2303
S'environ'
p2304
asbag61
(g82
g63
NtRp2305
(dp2306
g66
(dp2307
g93
g94
ssg75
g2296
sg68
(lp2308
S':'
asbag61
(g82
g63
NtRp2309
(dp2310
g66
(dp2311
sg75
g2296
sg68
(lp2312
g61
(g62
g63
NtRp2313
(dp2314
g66
(dp2315
g74
I4
ssg75
g2309
sg68
(lp2316
g61
(g70
g63
NtRp2317
(dp2318
g66
(dp2319
g74
I3
ssg75
Nsg68
(lp2320
g61
(g77
g63
NtRp2321
(dp2322
g66
(dp2323
sg75
g2317
sg68
(lp2324
g61
(g82
g63
NtRp2325
(dp2326
g66
(dp2327
g86
g87
ssg75
g2321
sg68
(lp2328
S'HTTP_ACCEPT'
p2329
asbag61
(g82
g63
NtRp2330
(dp2331
g66
(dp2332
g93
g94
ssg75
g2321
sg68
(lp2333
S':'
asbag61
(g82
g63
NtRp2334
(dp2335
g66
(dp2336
sg75
g2321
sg68
(lp2337
g61
(g62
g63
NtRp2338
(dp2339
g66
(dp2340
g74
I3
ssg75
g2334
sg68
(lp2341
g848
asbasbasbag61
(g77
g63
NtRp2342
(dp2343
g66
(dp2344
sg75
g2317
sg68
(lp2345
g61
(g82
g63
NtRp2346
(dp2347
g66
(dp2348
g86
g87
ssg75
g2342
sg68
(lp2349
S'HTTP_ACCEPT_CHARSET'
p2350
asbag61
(g82
g63
NtRp2351
(dp2352
g66
(dp2353
g93
g94
ssg75
g2342
sg68
(lp2354
S':'
asbag61
(g82
g63
NtRp2355
(dp2356
g66
(dp2357
sg75
g2342
sg68
(lp2358
g61
(g62
g63
NtRp2359
(dp2360
g66
(dp2361
g74
I3
ssg75
g2355
sg68
(lp2362
g870
asbasbasbag61
(g77
g63
NtRp2363
(dp2364
g66
(dp2365
sg75
g2317
sg68
(lp2366
g61
(g82
g63
NtRp2367
(dp2368
g66
(dp2369
g86
g87
ssg75
g2363
sg68
(lp2370
S'HTTP_ACCEPT_ENCODING'
p2371
asbag61
(g82
g63
NtRp2372
(dp2373
g66
(dp2374
g93
g94
ssg75
g2363
sg68
(lp2375
S':'
asbag61
(g82
g63
NtRp2376
(dp2377
g66
(dp2378
sg75
g2363
sg68
(lp2379
g61
(g62
g63
NtRp2380
(dp2381
g66
(dp2382
g74
I3
ssg75
g2376
sg68
(lp2383
g892
asbasbasbag61
(g77
g63
NtRp2384
(dp2385
g66
(dp2386
sg75
g2317
sg68
(lp2387
g61
(g82
g63
NtRp2388
(dp2389
g66
(dp2390
g86
g87
ssg75
g2384
sg68
(lp2391
S'HTTP_ACCEPT_LANGUAGE'
p2392
asbag61
(g82
g63
NtRp2393
(dp2394
g66
(dp2395
g93
g94
ssg75
g2384
sg68
(lp2396
S':'
asbag61
(g82
g63
NtRp2397
(dp2398
g66
(dp2399
sg75
g2384
sg68
(lp2400
g61
(g62
g63
NtRp2401
(dp2402
g66
(dp2403
g74
I3
ssg75
g2397
sg68
(lp2404
g914
asbasbasbag61
(g77
g63
NtRp2405
(dp2406
g66
(dp2407
sg75
g2317
sg68
(lp2408
g61
(g82
g63
NtRp2409
(dp2410
g66
(dp2411
g86
g87
ssg75
g2405
sg68
(lp2412
S'HTTP_CACHE_CONTROL'
p2413
asbag61
(g82
g63
NtRp2414
(dp2415
g66
(dp2416
g93
g94
ssg75
g2405
sg68
(lp2417
S':'
asbag61
(g82
g63
NtRp2418
(dp2419
g66
(dp2420
sg75
g2405
sg68
(lp2421
g61
(g62
g63
NtRp2422
(dp2423
g66
(dp2424
g74
I3
ssg75
g2418
sg68
(lp2425
g936
asbasbasbag61
(g77
g63
NtRp2426
(dp2427
g66
(dp2428
sg75
g2317
sg68
(lp2429
g61
(g82
g63
NtRp2430
(dp2431
g66
(dp2432
g86
g87
ssg75
g2426
sg68
(lp2433
S'HTTP_CONNECTION'
p2434
asbag61
(g82
g63
NtRp2435
(dp2436
g66
(dp2437
g93
g94
ssg75
g2426
sg68
(lp2438
S':'
asbag61
(g82
g63
NtRp2439
(dp2440
g66
(dp2441
sg75
g2426
sg68
(lp2442
g61
(g62
g63
NtRp2443
(dp2444
g66
(dp2445
g74
I3
ssg75
g2439
sg68
(lp2446
g958
asbasbasbag61
(g77
g63
NtRp2447
(dp2448
g66
(dp2449
sg75
g2317
sg68
(lp2450
g61
(g82
g63
NtRp2451
(dp2452
g66
(dp2453
g86
g87
ssg75
g2447
sg68
(lp2454
S'HTTP_COOKIE'
p2455
asbag61
(g82
g63
NtRp2456
(dp2457
g66
(dp2458
g93
g94
ssg75
g2447
sg68
(lp2459
S':'
asbag61
(g82
g63
NtRp2460
(dp2461
g66
(dp2462
sg75
g2447
sg68
(lp2463
g61
(g62
g63
NtRp2464
(dp2465
g66
(dp2466
g74
I3
ssg75
g2460
sg68
(lp2467
g980
asbasbasbag61
(g77
g63
NtRp2468
(dp2469
g66
(dp2470
sg75
g2317
sg68
(lp2471
g61
(g82
g63
NtRp2472
(dp2473
g66
(dp2474
g86
g87
ssg75
g2468
sg68
(lp2475
S'HTTP_HOST'
p2476
asbag61
(g82
g63
NtRp2477
(dp2478
g66
(dp2479
g93
g94
ssg75
g2468
sg68
(lp2480
S':'
asbag61
(g82
g63
NtRp2481
(dp2482
g66
(dp2483
sg75
g2468
sg68
(lp2484
g61
(g62
g63
NtRp2485
(dp2486
g66
(dp2487
g74
I3
ssg75
g2481
sg68
(lp2488
g1002
asbasbasbag61
(g77
g63
NtRp2489
(dp2490
g66
(dp2491
sg75
g2317
sg68
(lp2492
g61
(g82
g63
NtRp2493
(dp2494
g66
(dp2495
g86
g87
ssg75
g2489
sg68
(lp2496
S'HTTP_REFERER'
p2497
asbag61
(g82
g63
NtRp2498
(dp2499
g66
(dp2500
g93
g94
ssg75
g2489
sg68
(lp2501
S':'
asbag61
(g82
g63
NtRp2502
(dp2503
g66
(dp2504
sg75
g2489
sg68
(lp2505
g61
(g62
g63
NtRp2506
(dp2507
g66
(dp2508
g74
I3
ssg75
g2502
sg68
(lp2509
g1024
asbasbasbag61
(g77
g63
NtRp2510
(dp2511
g66
(dp2512
sg75
g2317
sg68
(lp2513
g61
(g82
g63
NtRp2514
(dp2515
g66
(dp2516
g86
g87
ssg75
g2510
sg68
(lp2517
S'HTTP_USER_AGENT'
p2518
asbag61
(g82
g63
NtRp2519
(dp2520
g66
(dp2521
g93
g94
ssg75
g2510
sg68
(lp2522
S':'
asbag61
(g82
g63
NtRp2523
(dp2524
g66
(dp2525
sg75
g2510
sg68
(lp2526
g61
(g62
g63
NtRp2527
(dp2528
g66
(dp2529
g74
I3
ssg75
g2523
sg68
(lp2530
g1046
asbasbasbag61
(g77
g63
NtRp2531
(dp2532
g66
(dp2533
sg75
g2317
sg68
(lp2534
g61
(g82
g63
NtRp2535
(dp2536
g66
(dp2537
g86
g87
ssg75
g2531
sg68
(lp2538
S'PATH_INFO'
p2539
asbag61
(g82
g63
NtRp2540
(dp2541
g66
(dp2542
g93
g94
ssg75
g2531
sg68
(lp2543
S':'
asbag61
(g82
g63
NtRp2544
(dp2545
g66
(dp2546
sg75
g2531
sg68
(lp2547
g61
(g62
g63
NtRp2548
(dp2549
g66
(dp2550
g74
I3
ssg75
g2544
sg68
(lp2551
g1089
asbasbasbag61
(g77
g63
NtRp2552
(dp2553
g66
(dp2554
sg75
g2317
sg68
(lp2555
g61
(g82
g63
NtRp2556
(dp2557
g66
(dp2558
g86
g87
ssg75
g2552
sg68
(lp2559
S'QUERY_STRING'
p2560
asbag61
(g82
g63
NtRp2561
(dp2562
g66
(dp2563
g93
g94
ssg75
g2552
sg68
(lp2564
S':'
asbag61
(g82
g63
NtRp2565
(dp2566
g66
(dp2567
sg75
g2552
sg68
(lp2568
g61
(g62
g63
NtRp2569
(dp2570
g66
(dp2571
g74
I3
ssg75
g2565
sg68
(lp2572
S''
asbasbasbag61
(g77
g63
NtRp2573
(dp2574
g66
(dp2575
sg75
g2317
sg68
(lp2576
g61
(g82
g63
NtRp2577
(dp2578
g66
(dp2579
g86
g87
ssg75
g2573
sg68
(lp2580
S'REMOTE_ADDR'
p2581
asbag61
(g82
g63
NtRp2582
(dp2583
g66
(dp2584
g93
g94
ssg75
g2573
sg68
(lp2585
S':'
asbag61
(g82
g63
NtRp2586
(dp2587
g66
(dp2588
sg75
g2573
sg68
(lp2589
g61
(g62
g63
NtRp2590
(dp2591
g66
(dp2592
g74
I3
ssg75
g2586
sg68
(lp2593
g220
asbasbasbag61
(g77
g63
NtRp2594
(dp2595
g66
(dp2596
sg75
g2317
sg68
(lp2597
g61
(g82
g63
NtRp2598
(dp2599
g66
(dp2600
g86
g87
ssg75
g2594
sg68
(lp2601
S'REMOTE_PORT'
p2602
asbag61
(g82
g63
NtRp2603
(dp2604
g66
(dp2605
g93
g94
ssg75
g2594
sg68
(lp2606
S':'
asbag61
(g82
g63
NtRp2607
(dp2608
g66
(dp2609
sg75
g2594
sg68
(lp2610
g61
(g62
g63
NtRp2611
(dp2612
g66
(dp2613
g74
I3
ssg75
g2607
sg68
(lp2614
g1153
asbasbasbag61
(g77
g63
NtRp2615
(dp2616
g66
(dp2617
sg75
g2317
sg68
(lp2618
g61
(g82
g63
NtRp2619
(dp2620
g66
(dp2621
g86
g87
ssg75
g2615
sg68
(lp2622
S'REQUEST_METHOD'
p2623
asbag61
(g82
g63
NtRp2624
(dp2625
g66
(dp2626
g93
g94
ssg75
g2615
sg68
(lp2627
S':'
asbag61
(g82
g63
NtRp2628
(dp2629
g66
(dp2630
sg75
g2615
sg68
(lp2631
g61
(g62
g63
NtRp2632
(dp2633
g66
(dp2634
g74
I3
ssg75
g2628
sg68
(lp2635
g1175
asbasbasbag61
(g77
g63
NtRp2636
(dp2637
g66
(dp2638
sg75
g2317
sg68
(lp2639
g61
(g82
g63
NtRp2640
(dp2641
g66
(dp2642
g86
g87
ssg75
g2636
sg68
(lp2643
S'REQUEST_URI'
p2644
asbag61
(g82
g63
NtRp2645
(dp2646
g66
(dp2647
g93
g94
ssg75
g2636
sg68
(lp2648
S':'
asbag61
(g82
g63
NtRp2649
(dp2650
g66
(dp2651
sg75
g2636
sg68
(lp2652
g61
(g62
g63
NtRp2653
(dp2654
g66
(dp2655
g74
I3
ssg75
g2649
sg68
(lp2656
g1089
asbasbasbag61
(g77
g63
NtRp2657
(dp2658
g66
(dp2659
sg75
g2317
sg68
(lp2660
g61
(g82
g63
NtRp2661
(dp2662
g66
(dp2663
g86
g87
ssg75
g2657
sg68
(lp2664
S'SCRIPT_NAME'
p2665
asbag61
(g82
g63
NtRp2666
(dp2667
g66
(dp2668
g93
g94
ssg75
g2657
sg68
(lp2669
S':'
asbag61
(g82
g63
NtRp2670
(dp2671
g66
(dp2672
sg75
g2657
sg68
(lp2673
g61
(g62
g63
NtRp2674
(dp2675
g66
(dp2676
g74
I3
ssg75
g2670
sg68
(lp2677
S''
asbasbasbag61
(g77
g63
NtRp2678
(dp2679
g66
(dp2680
sg75
g2317
sg68
(lp2681
g61
(g82
g63
NtRp2682
(dp2683
g66
(dp2684
g86
g87
ssg75
g2678
sg68
(lp2685
S'SERVER_NAME'
p2686
asbag61
(g82
g63
NtRp2687
(dp2688
g66
(dp2689
g93
g94
ssg75
g2678
sg68
(lp2690
S':'
asbag61
(g82
g63
NtRp2691
(dp2692
g66
(dp2693
sg75
g2678
sg68
(lp2694
g61
(g62
g63
NtRp2695
(dp2696
g66
(dp2697
g74
I3
ssg75
g2691
sg68
(lp2698
g1239
asbasbasbag61
(g77
g63
NtRp2699
(dp2700
g66
(dp2701
sg75
g2317
sg68
(lp2702
g61
(g82
g63
NtRp2703
(dp2704
g66
(dp2705
g86
g87
ssg75
g2699
sg68
(lp2706
S'SERVER_PORT'
p2707
asbag61
(g82
g63
NtRp2708
(dp2709
g66
(dp2710
g93
g94
ssg75
g2699
sg68
(lp2711
S':'
asbag61
(g82
g63
NtRp2712
(dp2713
g66
(dp2714
sg75
g2699
sg68
(lp2715
g61
(g62
g63
NtRp2716
(dp2717
g66
(dp2718
g74
I3
ssg75
g2712
sg68
(lp2719
g1261
asbasbasbag61
(g77
g63
NtRp2720
(dp2721
g66
(dp2722
sg75
g2317
sg68
(lp2723
g61
(g82
g63
NtRp2724
(dp2725
g66
(dp2726
g86
g87
ssg75
g2720
sg68
(lp2727
S'SERVER_PROTOCOL'
p2728
asbag61
(g82
g63
NtRp2729
(dp2730
g66
(dp2731
g93
g94
ssg75
g2720
sg68
(lp2732
S':'
asbag61
(g82
g63
NtRp2733
(dp2734
g66
(dp2735
sg75
g2720
sg68
(lp2736
g61
(g62
g63
NtRp2737
(dp2738
g66
(dp2739
g74
I3
ssg75
g2733
sg68
(lp2740
g1283
asbasbasbag61
(g77
g63
NtRp2741
(dp2742
g66
(dp2743
sg75
g2317
sg68
(lp2744
g61
(g82
g63
NtRp2745
(dp2746
g66
(dp2747
g86
g87
ssg75
g2741
sg68
(lp2748
S'SERVER_SOFTWARE'
p2749
asbag61
(g82
g63
NtRp2750
(dp2751
g66
(dp2752
g93
g94
ssg75
g2741
sg68
(lp2753
S':'
asbag61
(g82
g63
NtRp2754
(dp2755
g66
(dp2756
sg75
g2741
sg68
(lp2757
g61
(g62
g63
NtRp2758
(dp2759
g66
(dp2760
g74
I3
ssg75
g2754
sg68
(lp2761
g1305
asbasbasbag61
(g77
g63
NtRp2762
(dp2763
g66
(dp2764
sg75
g2317
sg68
(lp2765
g61
(g82
g63
NtRp2766
(dp2767
g66
(dp2768
g86
g87
ssg75
g2762
sg68
(lp2769
S'WEB2PY_ORIGINAL_URI'
p2770
asbag61
(g82
g63
NtRp2771
(dp2772
g66
(dp2773
g93
g94
ssg75
g2762
sg68
(lp2774
S':'
asbag61
(g82
g63
NtRp2775
(dp2776
g66
(dp2777
sg75
g2762
sg68
(lp2778
g61
(g62
g63
NtRp2779
(dp2780
g66
(dp2781
g74
I3
ssg75
g2775
sg68
(lp2782
g1089
asbasbasbag61
(g77
g63
NtRp2783
(dp2784
g66
(dp2785
sg75
g2317
sg68
(lp2786
g61
(g82
g63
NtRp2787
(dp2788
g66
(dp2789
g86
g87
ssg75
g2783
sg68
(lp2790
S'wsgi.errors'
p2791
asbag61
(g82
g63
NtRp2792
(dp2793
g66
(dp2794
g93
g94
ssg75
g2783
sg68
(lp2795
S':'
asbag61
(g82
g63
NtRp2796
(dp2797
g66
(dp2798
sg75
g2783
sg68
(lp2799
g61
(g62
g63
NtRp2800
(dp2801
g66
(dp2802
g74
I3
ssg75
g2796
sg68
(lp2803
S"<open file '<stderr>', mode 'w' at 0x0000000001D7E1E0>"
p2804
asbasbasbag61
(g77
g63
NtRp2805
(dp2806
g66
(dp2807
sg75
g2317
sg68
(lp2808
g61
(g82
g63
NtRp2809
(dp2810
g66
(dp2811
g86
g87
ssg75
g2805
sg68
(lp2812
S'wsgi.file_wrapper'
p2813
asbag61
(g82
g63
NtRp2814
(dp2815
g66
(dp2816
g93
g94
ssg75
g2805
sg68
(lp2817
S':'
asbag61
(g82
g63
NtRp2818
(dp2819
g66
(dp2820
sg75
g2805
sg68
(lp2821
g61
(g62
g63
NtRp2822
(dp2823
g66
(dp2824
g74
I3
ssg75
g2818
sg68
(lp2825
S'<class wsgiref.util.FileWrapper at 0x00000000033B0288>'
p2826
asbasbasbag61
(g77
g63
NtRp2827
(dp2828
g66
(dp2829
sg75
g2317
sg68
(lp2830
g61
(g82
g63
NtRp2831
(dp2832
g66
(dp2833
g86
g87
ssg75
g2827
sg68
(lp2834
S'wsgi.input'
p2835
asbag61
(g82
g63
NtRp2836
(dp2837
g66
(dp2838
g93
g94
ssg75
g2827
sg68
(lp2839
S':'
asbag61
(g82
g63
NtRp2840
(dp2841
g66
(dp2842
sg75
g2827
sg68
(lp2843
g61
(g62
g63
NtRp2844
(dp2845
g66
(dp2846
g74
I3
ssg75
g2840
sg68
(lp2847
S'<cStringIO.StringO object at 0x0000000004382BC8>'
p2848
asbasbasbag61
(g77
g63
NtRp2849
(dp2850
g66
(dp2851
sg75
g2317
sg68
(lp2852
g61
(g82
g63
NtRp2853
(dp2854
g66
(dp2855
g86
g87
ssg75
g2849
sg68
(lp2856
S'wsgi.multiprocess'
p2857
asbag61
(g82
g63
NtRp2858
(dp2859
g66
(dp2860
g93
g94
ssg75
g2849
sg68
(lp2861
S':'
asbag61
(g82
g63
NtRp2862
(dp2863
g66
(dp2864
sg75
g2849
sg68
(lp2865
g61
(g62
g63
NtRp2866
(dp2867
g66
(dp2868
g74
I3
ssg75
g2862
sg68
(lp2869
g104
asbasbasbag61
(g77
g63
NtRp2870
(dp2871
g66
(dp2872
sg75
g2317
sg68
(lp2873
g61
(g82
g63
NtRp2874
(dp2875
g66
(dp2876
g86
g87
ssg75
g2870
sg68
(lp2877
S'wsgi.multithread'
p2878
asbag61
(g82
g63
NtRp2879
(dp2880
g66
(dp2881
g93
g94
ssg75
g2870
sg68
(lp2882
S':'
asbag61
(g82
g63
NtRp2883
(dp2884
g66
(dp2885
sg75
g2870
sg68
(lp2886
g61
(g62
g63
NtRp2887
(dp2888
g66
(dp2889
g74
I3
ssg75
g2883
sg68
(lp2890
g1566
asbasbasbag61
(g77
g63
NtRp2891
(dp2892
g66
(dp2893
sg75
g2317
sg68
(lp2894
g61
(g82
g63
NtRp2895
(dp2896
g66
(dp2897
g86
g87
ssg75
g2891
sg68
(lp2898
S'wsgi.run_once'
p2899
asbag61
(g82
g63
NtRp2900
(dp2901
g66
(dp2902
g93
g94
ssg75
g2891
sg68
(lp2903
S':'
asbag61
(g82
g63
NtRp2904
(dp2905
g66
(dp2906
sg75
g2891
sg68
(lp2907
g61
(g62
g63
NtRp2908
(dp2909
g66
(dp2910
g74
I3
ssg75
g2904
sg68
(lp2911
g104
asbasbasbag61
(g77
g63
NtRp2912
(dp2913
g66
(dp2914
sg75
g2317
sg68
(lp2915
g61
(g82
g63
NtRp2916
(dp2917
g66
(dp2918
g86
g87
ssg75
g2912
sg68
(lp2919
S'wsgi.url_scheme'
p2920
asbag61
(g82
g63
NtRp2921
(dp2922
g66
(dp2923
g93
g94
ssg75
g2912
sg68
(lp2924
S':'
asbag61
(g82
g63
NtRp2925
(dp2926
g66
(dp2927
sg75
g2912
sg68
(lp2928
g61
(g62
g63
NtRp2929
(dp2930
g66
(dp2931
g74
I3
ssg75
g2925
sg68
(lp2932
g1609
asbasbasbag61
(g77
g63
NtRp2933
(dp2934
g66
(dp2935
sg75
g2317
sg68
(lp2936
g61
(g82
g63
NtRp2937
(dp2938
g66
(dp2939
g86
g87
ssg75
g2933
sg68
(lp2940
S'wsgi.version'
p2941
asbag61
(g82
g63
NtRp2942
(dp2943
g66
(dp2944
g93
g94
ssg75
g2933
sg68
(lp2945
S':'
asbag61
(g82
g63
NtRp2946
(dp2947
g66
(dp2948
sg75
g2933
sg68
(lp2949
g61
(g62
g63
NtRp2950
(dp2951
g66
(dp2952
g74
I3
ssg75
g2946
sg68
(lp2953
S'1'
asbasbasbasbasbasbasbasbasbasbasbasbasbsS'frames'
p2954
(lp2955
(dp2956
S'file'
p2957
S'C:\\webapps\\dopbox\\Dropbox\\Eclipse\\OJDevSourceProject\\project\\web2py\\gluon\\restricted.py'
p2958
sS'dump'
p2959
(dp2960
S'environment'
p2961
S"{'A': <class 'gluon.html.A'>, 'ALLOW_TOGGLE': 'true', 'B': <class 'gluon.html.B'>, 'BEAUTIFY': <class 'gluon.html.BEAUTIFY'>, 'BODY': <class 'gluon.html.BODY'>, 'BR': <class 'gluon.html.BR'>, 'BUTTON': <class 'gluon.html.BUTTON'>, 'CAT': <class 'gluon.html.CAT'>, 'CENTER': <class 'gluon.html.CENTER'>, 'CHECK_VERSION': True, ...}"
p2962
sS'ccode'
p2963
S'<code object <module> at 0000000003C30030, file ...plications\\admin\\controllers/default.py", line 3>'
p2964
ssS'lnum'
p2965
I194
sS'lines'
p2966
(dp2967
I192
S'        else:'
p2968
sI193
S'            ccode = compile2(code,layer)'
p2969
sI194
S'        exec ccode in environment'
p2970
sI195
S'    except HTTP:'
p2971
sI196
S'        raise'
p2972
sI197
S'    except Exception, error:'
p2973
sI198
S'        # XXX Show exception in Wing IDE if running in debugger'
p2974
sI189
S'    try:'
p2975
sI190
S'        if type(code) == types.CodeType:'
p2976
sI191
S'            ccode = code'
p2977
ssS'call'
p2978
S'(code="# coding: utf8\\n\\nfrom gluon.admin import *\\nfrom g...site\'))\\n\\nresponse._vars=response._caller(ticket)\\n", environment={\'A\': <class \'gluon.html.A\'>, \'ALLOW_TOGGLE\': \'true\', \'B\': <class \'gluon.html.B\'>, \'BEAUTIFY\': <class \'gluon.html.BEAUTIFY\'>, \'BODY\': <class \'gluon.html.BODY\'>, \'BR\': <class \'gluon.html.BR\'>, \'BUTTON\': <class \'gluon.html.BUTTON\'>, \'CAT\': <class \'gluon.html.CAT\'>, \'CENTER\': <class \'gluon.html.CENTER\'>, \'CHECK_VERSION\': True, ...}, layer=r\'C:\\webapps\\dopbox\\Dropbox\\Eclipse\\OJDevSourcePro...\\web2py\\applications\\admin\\controllers/default.py\')'
p2979
sS'func'
p2980
S'restricted'
p2981
sa(dp2982
g2957
S'C:\\webapps\\dopbox\\Dropbox\\Eclipse\\OJDevSourceProject\\project\\web2py\\applications\\admin\\controllers\\default.py'
p2983
sg2959
(dp2984
sg2965
I1225
sg2966
(dp2985
I1216
S'    else:'
p2986
sI1217
S'        return dict(form=T("Disabled"))'
p2987
sI1218
S''
sI1219
S'def reload_routes():'
p2988
sI1220
S'    """ Reload routes.py """'
p2989
sI1221
S'    import gluon.rewrite'
p2990
sI1222
S'    gluon.rewrite.load()'
p2991
sI1223
S"    redirect(URL('site'))"
p2992
sI1214
S'            auth.settings.registration_requires_approval = False'
p2993
sI1215
S'        return dict(form=auth())'
p2994
ssg2978
S'()'
p2995
sg2980
S'<module>'
p2996
sa(dp2997
g2957
S'C:\\webapps\\dopbox\\Dropbox\\Eclipse\\OJDevSourceProject\\project\\web2py\\gluon\\globals.py'
p2998
sg2959
(dp2999
S'self'
p3000
S'undefined'
p3001
sS'f'
S'<function ticket>'
p3002
ssg2965
I149
sg2966
(dp3003
I144
S'        self.meta = Storage()      # used by web2py_ajax.html'
p3004
sI145
S'        self.menu = []             # used by the default view layout'
p3005
sI146
S'        self.files = []            # used by web2py_ajax.html'
p3006
sI147
S'        self.generic_patterns = [] # patterns to allow generic views'
p3007
sI148
S'        self._vars = None'
p3008
sI149
S'        self._caller = lambda f: f()'
p3009
sI150
S'        self._view_environment = None'
p3010
sI151
S'        self._custom_commit = None'
p3011
sI152
S'        self._custom_rollback = None'
p3012
sI153
S''
ssg2978
S'(f=<function ticket>)'
p3013
sg2980
S'<lambda>'
p3014
sa(dp3015
g2957
S'C:\\webapps\\dopbox\\Dropbox\\Eclipse\\OJDevSourceProject\\project\\web2py\\applications\\admin\\controllers\\default.py'
p3016
sg2959
(dp3017
S'global request'
p3018
S"<Storage {'body': <cStringIO.StringO object at 0..._vars': <Storage {}>, 'post_vars': <Storage {}>}>"
p3019
sS'app'
p3020
S"'OJTest'"
p3021
sS'e'
S'RestrictedError()'
p3022
sS'ticket'
p3023
S"'60.242.177.184.2012-01-19.05-52-40.73e3f8d5-172e-4643-86ab-281e1292851a'"
p3024
sS'e.load'
p3025
S'<bound method RestrictedError.load of RestrictedError()>'
p3026
ssg2965
I1174
sg2966
(dp3027
I1169
S''
sI1170
S'    app = get_app()'
p3028
sI1171
S'    myversion = request.env.web2py_version'
p3029
sI1172
S'    ticket = request.args[1]'
p3030
sI1173
S'    e = RestrictedError()'
p3031
sI1174
S'    e.load(request, app, ticket)'
p3032
sI1175
S''
sI1176
S'    return dict(app=app,'
p3033
sI1177
S'                ticket=ticket,'
p3034
sI1178
S'                output=e.output,'
p3035
ssg2978
S'()'
p3036
sg2980
S'ticket'
p3037
sa(dp3038
g2957
S'C:\\webapps\\dopbox\\Dropbox\\Eclipse\\OJDevSourceProject\\project\\web2py\\gluon\\restricted.py'
p3039
sg2959
(dp3040
S'ticket_storage.load'
p3041
S"<bound method TicketStorage.load of <Storage {'tablename': 'web2py_ticket'}>>"
p3042
sS'd'
g3001
sS'app'
p3043
S"'OJTest'"
p3044
sS'request'
p3045
S"<Storage {'body': <cStringIO.StringO object at 0..._vars': <Storage {}>, 'post_vars': <Storage {}>}>"
p3046
sS'ticket_storage'
p3047
S"<Storage {'tablename': 'web2py_ticket'}>"
p3048
sS'ticket_id'
p3049
S"'60.242.177.184.2012-01-19.05-52-40.73e3f8d5-172e-4643-86ab-281e1292851a'"
p3050
ssg2965
I166
sg2966
(dp3051
I161
S'    def load(self, request, app, ticket_id):'
p3052
sI162
S'        """'
p3053
sI163
S'        loads a logged exception.'
p3054
sI164
S'        """'
p3055
sI165
S'        ticket_storage = TicketStorage(db=request.tickets_db)'
p3056
sI166
S'        d = ticket_storage.load(request, app, ticket_id)'
p3057
sI167
S''
sI168
S"        self.layer = d['layer']"
p3058
sI169
S"        self.code = d['code']"
p3059
sI170
S"        self.output = d['output']"
p3060
ssg2978
S"(self=RestrictedError(), request=<Storage {'body': <cStringIO.StringO object at 0..._vars': <Storage {}>, 'post_vars': <Storage {}>}>, app='OJTest', ticket_id='60.242.177.184.2012-01-19.05-52-40.73e3f8d5-172e-4643-86ab-281e1292851a')"
p3061
sg2980
S'load'
p3062
sa(dp3063
g2957
S'C:\\webapps\\dopbox\\Dropbox\\Eclipse\\OJDevSourceProject\\project\\web2py\\gluon\\restricted.py'
p3064
sg2959
(dp3065
S'app'
p3066
S"'OJTest'"
p3067
sS'ef'
p3068
g3001
sS'request'
p3069
S"<Storage {'body': <cStringIO.StringO object at 0..._vars': <Storage {}>, 'post_vars': <Storage {}>}>"
p3070
sS'self._error_file'
p3071
S"<bound method TicketStorage._error_file of <Storage {'tablename': 'web2py_ticket'}>>"
p3072
sS'ticket_id'
p3073
S"'60.242.177.184.2012-01-19.05-52-40.73e3f8d5-172e-4643-86ab-281e1292851a'"
p3074
sS'self'
p3075
S"<Storage {'tablename': 'web2py_ticket'}>"
p3076
ssg2965
I92
sg2966
(dp3077
I96
S'                ef.close()'
p3078
sI87
S'        request,'
p3079
sI88
S'        app,'
p3080
sI89
S'        ticket_id,'
p3081
sI90
S'        ):'
p3082
sI91
S'        if not self.db:'
p3083
sI92
S"            ef = self._error_file(request, ticket_id, 'rb', app)"
p3084
sI93
S'            try:'
p3085
sI94
S'                return cPickle.load(ef)'
p3086
sI95
S'            finally:'
p3087
ssg2978
S"(self=<Storage {'tablename': 'web2py_ticket'}>, request=<Storage {'body': <cStringIO.StringO object at 0..._vars': <Storage {}>, 'post_vars': <Storage {}>}>, app='OJTest', ticket_id='60.242.177.184.2012-01-19.05-52-40.73e3f8d5-172e-4643-86ab-281e1292851a')"
p3088
sg2980
g3062
sa(dp3089
g2957
S'C:\\webapps\\dopbox\\Dropbox\\Eclipse\\OJDevSourceProject\\project\\web2py\\gluon\\restricted.py'
p3090
sg2959
(dp3091
S'errors_folder'
p3092
S"r'C:\\webapps\\dopbox\\Dropbox\\Eclipse\\OJDevSourceProject\\project\\web2py\\applications\\OJTest\\errors'"
p3093
sS'builtinopen'
p3094
S'<built-in function open>'
p3095
sS'global os'
p3096
S"<module 'os' from 'C:\\Python27\\lib\\os.pyc'>"
p3097
sS'ticket_id'
p3098
S"'60.242.177.184.2012-01-19.05-52-40.73e3f8d5-172e-4643-86ab-281e1292851a'"
p3099
sS'os.path.join'
p3100
S'<function join>'
p3101
sS'os.path'
p3102
S"<module 'ntpath' from 'C:\\Python27\\lib\\ntpath.pyc'>"
p3103
sS'mode'
p3104
S"'rb'"
p3105
ssg2965
I69
sg2966
(dp3106
I64
S'    def _error_file(self, request, ticket_id, mode, app=None):'
p3107
sI65
S'        root = request.folder'
p3108
sI66
S'        if app:'
p3109
sI67
S"            root = os.path.join(os.path.join(root, '..'), app)"
p3110
sI68
S"        errors_folder = os.path.abspath(os.path.join(root, 'errors'))#.replace('\\\\', '/')"
p3111
sI69
S'        return open(os.path.join(errors_folder, ticket_id), mode)'
p3112
sI70
S''
sI71
S'    def _get_table(self, db, tablename, app):'
p3113
sI72
S"        tablename = tablename + '_' + app"
p3114
sI73
S'        table = db.get(tablename, None)'
p3115
ssg2978
S"(self=<Storage {'tablename': 'web2py_ticket'}>, request=<Storage {'body': <cStringIO.StringO object at 0..._vars': <Storage {}>, 'post_vars': <Storage {}>}>, ticket_id='60.242.177.184.2012-01-19.05-52-40.73e3f8d5-172e-4643-86ab-281e1292851a', mode='rb', app='OJTest')"
p3116
sg2980
S'_error_file'
p3117
sasS'pyver'
p3118
S'Python 2.7.2: C:\\Python27\\python.exe'
p3119
sS'session'
p3120
g61
(g62
g63
NtRp3121
(dp3122
g66
(dp3123
sg68
(lp3124
g61
(g70
g63
NtRp3125
(dp3126
g66
(dp3127
g74
I5
ssg75
Nsg68
(lp3128
g61
(g77
g63
NtRp3129
(dp3130
g66
(dp3131
sg75
g3125
sg68
(lp3132
g61
(g82
g63
NtRp3133
(dp3134
g66
(dp3135
g86
g87
ssg75
g3129
sg68
(lp3136
S'authorized'
p3137
asbag61
(g82
g63
NtRp3138
(dp3139
g66
(dp3140
g93
g94
ssg75
g3129
sg68
(lp3141
S':'
asbag61
(g82
g63
NtRp3142
(dp3143
g66
(dp3144
sg75
g3129
sg68
(lp3145
g61
(g62
g63
NtRp3146
(dp3147
g66
(dp3148
g74
I5
ssg75
g3142
sg68
(lp3149
g1566
asbasbasbag61
(g77
g63
NtRp3150
(dp3151
g66
(dp3152
sg75
g3125
sg68
(lp3153
g61
(g82
g63
NtRp3154
(dp3155
g66
(dp3156
g86
g87
ssg75
g3150
sg68
(lp3157
S'check_version'
p3158
asbag61
(g82
g63
NtRp3159
(dp3160
g66
(dp3161
g93
g94
ssg75
g3150
sg68
(lp3162
S':'
asbag61
(g82
g63
NtRp3163
(dp3164
g66
(dp3165
sg75
g3150
sg68
(lp3166
g61
(g62
g63
NtRp3167
(dp3168
g66
(dp3169
g74
I5
ssg75
g3163
sg68
(lp3170
g1566
asbasbasbag61
(g77
g63
NtRp3171
(dp3172
g66
(dp3173
sg75
g3125
sg68
(lp3174
g61
(g82
g63
NtRp3175
(dp3176
g66
(dp3177
g86
g87
ssg75
g3171
sg68
(lp3178
S'last_time'
p3179
asbag61
(g82
g63
NtRp3180
(dp3181
g66
(dp3182
g93
g94
ssg75
g3171
sg68
(lp3183
S':'
asbag61
(g82
g63
NtRp3184
(dp3185
g66
(dp3186
sg75
g3171
sg68
(lp3187
g61
(g62
g63
NtRp3188
(dp3189
g66
(dp3190
g74
I5
ssg75
g3184
sg68
(lp3191
S'1326972663.88'
p3192
asbasbasbasbasbsS'etype'
p3193
S"<type 'exceptions.IOError'>"
p3194
sS'date'
p3195
S'Thu Jan 19 22:31:04 2012'
p3196
sS'response'
p3197
g61
(g62
g63
NtRp3198
(dp3199
g66
(dp3200
sg68
(lp3201
g61
(g70
g63
NtRp3202
(dp3203
g66
(dp3204
g74
I5
ssg75
Nsg68
(lp3205
g61
(g77
g63
NtRp3206
(dp3207
g66
(dp3208
sg75
g3202
sg68
(lp3209
g61
(g82
g63
NtRp3210
(dp3211
g66
(dp3212
g86
g87
ssg75
g3206
sg68
(lp3213
g185
asbag61
(g82
g63
NtRp3214
(dp3215
g66
(dp3216
g93
g94
ssg75
g3206
sg68
(lp3217
S':'
asbag61
(g82
g63
NtRp3218
(dp3219
g66
(dp3220
sg75
g3206
sg68
(lp3221
g61
(g62
g63
NtRp3222
(dp3223
g66
(dp3224
g74
I5
ssg75
g3218
sg68
(lp3225
S'<cStringIO.StringO object at 0x0000000003F3F8F0>'
p3226
asbasbasbag61
(g77
g63
NtRp3227
(dp3228
g66
(dp3229
sg75
g3202
sg68
(lp3230
g61
(g82
g63
NtRp3231
(dp3232
g66
(dp3233
g86
g87
ssg75
g3227
sg68
(lp3234
g251
asbag61
(g82
g63
NtRp3235
(dp3236
g66
(dp3237
g93
g94
ssg75
g3227
sg68
(lp3238
S':'
asbag61
(g82
g63
NtRp3239
(dp3240
g66
(dp3241
sg75
g3227
sg68
(lp3242
g61
(g62
g63
NtRp3243
(dp3244
g66
(dp3245
g74
I5
ssg75
g3239
sg68
(lp3246
g61
(g70
g63
NtRp3247
(dp3248
g66
(dp3249
g74
I4
ssg75
Nsg68
(lp3250
g61
(g77
g63
NtRp3251
(dp3252
g66
(dp3253
sg75
g3247
sg68
(lp3254
g61
(g82
g63
NtRp3255
(dp3256
g66
(dp3257
g86
g87
ssg75
g3251
sg68
(lp3258
S'session_id_admin'
p3259
asbag61
(g82
g63
NtRp3260
(dp3261
g66
(dp3262
g93
g94
ssg75
g3251
sg68
(lp3263
S':'
asbag61
(g82
g63
NtRp3264
(dp3265
g66
(dp3266
sg75
g3251
sg68
(lp3267
g61
(g62
g63
NtRp3268
(dp3269
g66
(dp3270
g74
I4
ssg75
g3264
sg68
(lp3271
g61
(g70
g63
NtRp3272
(dp3273
g66
(dp3274
g74
I3
ssg75
Nsg68
(lp3275
g61
(g77
g63
NtRp3276
(dp3277
g66
(dp3278
sg75
g3272
sg68
(lp3279
g61
(g82
g63
NtRp3280
(dp3281
g66
(dp3282
g86
g87
ssg75
g3276
sg68
(lp3283
g301
asbag61
(g82
g63
NtRp3284
(dp3285
g66
(dp3286
g93
g94
ssg75
g3276
sg68
(lp3287
S':'
asbag61
(g82
g63
NtRp3288
(dp3289
g66
(dp3290
sg75
g3276
sg68
(lp3291
g61
(g62
g63
NtRp3292
(dp3293
g66
(dp3294
g74
I3
ssg75
g3288
sg68
(lp3295
S''
asbasbasbag61
(g77
g63
NtRp3296
(dp3297
g66
(dp3298
sg75
g3272
sg68
(lp3299
g61
(g82
g63
NtRp3300
(dp3301
g66
(dp3302
g86
g87
ssg75
g3296
sg68
(lp3303
g322
asbag61
(g82
g63
NtRp3304
(dp3305
g66
(dp3306
g93
g94
ssg75
g3296
sg68
(lp3307
S':'
asbag61
(g82
g63
NtRp3308
(dp3309
g66
(dp3310
sg75
g3296
sg68
(lp3311
g61
(g62
g63
NtRp3312
(dp3313
g66
(dp3314
g74
I3
ssg75
g3308
sg68
(lp3315
S''
asbasbasbag61
(g77
g63
NtRp3316
(dp3317
g66
(dp3318
sg75
g3272
sg68
(lp3319
g61
(g82
g63
NtRp3320
(dp3321
g66
(dp3322
g86
g87
ssg75
g3316
sg68
(lp3323
g343
asbag61
(g82
g63
NtRp3324
(dp3325
g66
(dp3326
g93
g94
ssg75
g3316
sg68
(lp3327
S':'
asbag61
(g82
g63
NtRp3328
(dp3329
g66
(dp3330
sg75
g3316
sg68
(lp3331
g61
(g62
g63
NtRp3332
(dp3333
g66
(dp3334
g74
I3
ssg75
g3328
sg68
(lp3335
S''
asbasbasbag61
(g77
g63
NtRp3336
(dp3337
g66
(dp3338
sg75
g3272
sg68
(lp3339
g61
(g82
g63
NtRp3340
(dp3341
g66
(dp3342
g86
g87
ssg75
g3336
sg68
(lp3343
g364
asbag61
(g82
g63
NtRp3344
(dp3345
g66
(dp3346
g93
g94
ssg75
g3336
sg68
(lp3347
S':'
asbag61
(g82
g63
NtRp3348
(dp3349
g66
(dp3350
sg75
g3336
sg68
(lp3351
g61
(g62
g63
NtRp3352
(dp3353
g66
(dp3354
g74
I3
ssg75
g3348
sg68
(lp3355
S''
asbasbasbag61
(g77
g63
NtRp3356
(dp3357
g66
(dp3358
sg75
g3272
sg68
(lp3359
g61
(g82
g63
NtRp3360
(dp3361
g66
(dp3362
g86
g87
ssg75
g3356
sg68
(lp3363
g385
asbag61
(g82
g63
NtRp3364
(dp3365
g66
(dp3366
g93
g94
ssg75
g3356
sg68
(lp3367
S':'
asbag61
(g82
g63
NtRp3368
(dp3369
g66
(dp3370
sg75
g3356
sg68
(lp3371
g61
(g62
g63
NtRp3372
(dp3373
g66
(dp3374
g74
I3
ssg75
g3368
sg68
(lp3375
S''
asbasbasbag61
(g77
g63
NtRp3376
(dp3377
g66
(dp3378
sg75
g3272
sg68
(lp3379
g61
(g82
g63
NtRp3380
(dp3381
g66
(dp3382
g86
g87
ssg75
g3376
sg68
(lp3383
g406
asbag61
(g82
g63
NtRp3384
(dp3385
g66
(dp3386
g93
g94
ssg75
g3376
sg68
(lp3387
S':'
asbag61
(g82
g63
NtRp3388
(dp3389
g66
(dp3390
sg75
g3376
sg68
(lp3391
g61
(g62
g63
NtRp3392
(dp3393
g66
(dp3394
g74
I3
ssg75
g3388
sg68
(lp3395
S'/'
asbasbasbag61
(g77
g63
NtRp3396
(dp3397
g66
(dp3398
sg75
g3272
sg68
(lp3399
g61
(g82
g63
NtRp3400
(dp3401
g66
(dp3402
g86
g87
ssg75
g3396
sg68
(lp3403
g427
asbag61
(g82
g63
NtRp3404
(dp3405
g66
(dp3406
g93
g94
ssg75
g3396
sg68
(lp3407
S':'
asbag61
(g82
g63
NtRp3408
(dp3409
g66
(dp3410
sg75
g3396
sg68
(lp3411
g61
(g62
g63
NtRp3412
(dp3413
g66
(dp3414
g74
I3
ssg75
g3408
sg68
(lp3415
S''
asbasbasbag61
(g77
g63
NtRp3416
(dp3417
g66
(dp3418
sg75
g3272
sg68
(lp3419
g61
(g82
g63
NtRp3420
(dp3421
g66
(dp3422
g86
g87
ssg75
g3416
sg68
(lp3423
g448
asbag61
(g82
g63
NtRp3424
(dp3425
g66
(dp3426
g93
g94
ssg75
g3416
sg68
(lp3427
S':'
asbag61
(g82
g63
NtRp3428
(dp3429
g66
(dp3430
sg75
g3416
sg68
(lp3431
g61
(g62
g63
NtRp3432
(dp3433
g66
(dp3434
g74
I3
ssg75
g3428
sg68
(lp3435
S''
asbasbasbasbasbasbasbasbasbasbasbag61
(g77
g63
NtRp3436
(dp3437
g66
(dp3438
sg75
g3202
sg68
(lp3439
g61
(g82
g63
NtRp3440
(dp3441
g66
(dp3442
g86
g87
ssg75
g3436
sg68
(lp3443
S'files'
p3444
asbag61
(g82
g63
NtRp3445
(dp3446
g66
(dp3447
g93
g94
ssg75
g3436
sg68
(lp3448
S':'
asbag61
(g82
g63
NtRp3449
(dp3450
g66
(dp3451
sg75
g3436
sg68
(lp3452
g61
(g62
g63
NtRp3453
(dp3454
g66
(dp3455
g74
I5
ssg75
g3449
sg68
(lp3456
g61
(g70
g63
NtRp3457
(dp3458
g66
(dp3459
g74
I4
ssg75
Nsg68
(lp3460
g61
(g77
g63
NtRp3461
(dp3462
g66
(dp3463
sg75
g3457
sg68
(lp3464
g61
(g82
g63
NtRp3465
(dp3466
g66
(dp3467
sg75
g3461
sg68
(lp3468
g61
(g62
g63
NtRp3469
(dp3470
g66
(dp3471
g74
I4
ssg75
g3465
sg68
(lp3472
S'/admin/static/plugin_multiselect/jquery.dimensions.js'
p3473
asbasbasbag61
(g77
g63
NtRp3474
(dp3475
g66
(dp3476
sg75
g3457
sg68
(lp3477
g61
(g82
g63
NtRp3478
(dp3479
g66
(dp3480
sg75
g3474
sg68
(lp3481
g61
(g62
g63
NtRp3482
(dp3483
g66
(dp3484
g74
I4
ssg75
g3478
sg68
(lp3485
S'/admin/static/plugin_multiselect/jquery.multiselect.js'
p3486
asbasbasbag61
(g77
g63
NtRp3487
(dp3488
g66
(dp3489
sg75
g3457
sg68
(lp3490
g61
(g82
g63
NtRp3491
(dp3492
g66
(dp3493
sg75
g3487
sg68
(lp3494
g61
(g62
g63
NtRp3495
(dp3496
g66
(dp3497
g74
I4
ssg75
g3491
sg68
(lp3498
S'/admin/static/plugin_multiselect/jquery.multiselect.css'
p3499
asbasbasbag61
(g77
g63
NtRp3500
(dp3501
g66
(dp3502
sg75
g3457
sg68
(lp3503
g61
(g82
g63
NtRp3504
(dp3505
g66
(dp3506
sg75
g3500
sg68
(lp3507
g61
(g62
g63
NtRp3508
(dp3509
g66
(dp3510
g74
I4
ssg75
g3504
sg68
(lp3511
S'/admin/static/plugin_multiselect/start.js'
p3512
asbasbasbasbasbasbasbag61
(g77
g63
NtRp3513
(dp3514
g66
(dp3515
sg75
g3202
sg68
(lp3516
g61
(g82
g63
NtRp3517
(dp3518
g66
(dp3519
g86
g87
ssg75
g3513
sg68
(lp3520
S'flash'
p3521
asbag61
(g82
g63
NtRp3522
(dp3523
g66
(dp3524
g93
g94
ssg75
g3513
sg68
(lp3525
S':'
asbag61
(g82
g63
NtRp3526
(dp3527
g66
(dp3528
sg75
g3513
sg68
(lp3529
g61
(g62
g63
NtRp3530
(dp3531
g66
(dp3532
g74
I5
ssg75
g3526
sg68
(lp3533
S''
asbasbasbag61
(g77
g63
NtRp3534
(dp3535
g66
(dp3536
sg75
g3202
sg68
(lp3537
g61
(g82
g63
NtRp3538
(dp3539
g66
(dp3540
g86
g87
ssg75
g3534
sg68
(lp3541
S'generic_patterns'
p3542
asbag61
(g82
g63
NtRp3543
(dp3544
g66
(dp3545
g93
g94
ssg75
g3534
sg68
(lp3546
S':'
asbag61
(g82
g63
NtRp3547
(dp3548
g66
(dp3549
sg75
g3534
sg68
(lp3550
g61
(g62
g63
NtRp3551
(dp3552
g66
(dp3553
g74
I5
ssg75
g3547
sg68
(lp3554
g61
(g70
g63
NtRp3555
(dp3556
g66
(dp3557
g74
I4
ssg75
Nsg68
(lp3558
sbasbasbasbag61
(g77
g63
NtRp3559
(dp3560
g66
(dp3561
sg75
g3202
sg68
(lp3562
g61
(g82
g63
NtRp3563
(dp3564
g66
(dp3565
g86
g87
ssg75
g3559
sg68
(lp3566
S'headers'
p3567
asbag61
(g82
g63
NtRp3568
(dp3569
g66
(dp3570
g93
g94
ssg75
g3559
sg68
(lp3571
S':'
asbag61
(g82
g63
NtRp3572
(dp3573
g66
(dp3574
sg75
g3559
sg68
(lp3575
g61
(g62
g63
NtRp3576
(dp3577
g66
(dp3578
g74
I5
ssg75
g3572
sg68
(lp3579
g61
(g70
g63
NtRp3580
(dp3581
g66
(dp3582
g74
I4
ssg75
Nsg68
(lp3583
g61
(g77
g63
NtRp3584
(dp3585
g66
(dp3586
sg75
g3580
sg68
(lp3587
g61
(g82
g63
NtRp3588
(dp3589
g66
(dp3590
g86
g87
ssg75
g3584
sg68
(lp3591
S'Cache-Control'
p3592
asbag61
(g82
g63
NtRp3593
(dp3594
g66
(dp3595
g93
g94
ssg75
g3584
sg68
(lp3596
S':'
asbag61
(g82
g63
NtRp3597
(dp3598
g66
(dp3599
sg75
g3584
sg68
(lp3600
g61
(g62
g63
NtRp3601
(dp3602
g66
(dp3603
g74
I4
ssg75
g3597
sg68
(lp3604
S'no-store, no-cache, must-revalidate, post-check=0, pre-check=0'
p3605
asbasbasbag61
(g77
g63
NtRp3606
(dp3607
g66
(dp3608
sg75
g3580
sg68
(lp3609
g61
(g82
g63
NtRp3610
(dp3611
g66
(dp3612
g86
g87
ssg75
g3606
sg68
(lp3613
S'Content-Type'
p3614
asbag61
(g82
g63
NtRp3615
(dp3616
g66
(dp3617
g93
g94
ssg75
g3606
sg68
(lp3618
S':'
asbag61
(g82
g63
NtRp3619
(dp3620
g66
(dp3621
sg75
g3606
sg68
(lp3622
g61
(g62
g63
NtRp3623
(dp3624
g66
(dp3625
g74
I4
ssg75
g3619
sg68
(lp3626
S'text/html; charset=utf-8'
p3627
asbasbasbag61
(g77
g63
NtRp3628
(dp3629
g66
(dp3630
sg75
g3580
sg68
(lp3631
g61
(g82
g63
NtRp3632
(dp3633
g66
(dp3634
g86
g87
ssg75
g3628
sg68
(lp3635
S'Expires'
p3636
asbag61
(g82
g63
NtRp3637
(dp3638
g66
(dp3639
g93
g94
ssg75
g3628
sg68
(lp3640
S':'
asbag61
(g82
g63
NtRp3641
(dp3642
g66
(dp3643
sg75
g3628
sg68
(lp3644
g61
(g62
g63
NtRp3645
(dp3646
g66
(dp3647
g74
I4
ssg75
g3641
sg68
(lp3648
S'Thu, 19 Jan 2012 11:31:03 GMT'
p3649
asbasbasbag61
(g77
g63
NtRp3650
(dp3651
g66
(dp3652
sg75
g3580
sg68
(lp3653
g61
(g82
g63
NtRp3654
(dp3655
g66
(dp3656
g86
g87
ssg75
g3650
sg68
(lp3657
S'NingNang'
p3658
asbag61
(g82
g63
NtRp3659
(dp3660
g66
(dp3661
g93
g94
ssg75
g3650
sg68
(lp3662
S':'
asbag61
(g82
g63
NtRp3663
(dp3664
g66
(dp3665
sg75
g3650
sg68
(lp3666
g61
(g62
g63
NtRp3667
(dp3668
g66
(dp3669
g74
I4
ssg75
g3663
sg68
(lp3670
S'Nong'
p3671
asbasbasbag61
(g77
g63
NtRp3672
(dp3673
g66
(dp3674
sg75
g3580
sg68
(lp3675
g61
(g82
g63
NtRp3676
(dp3677
g66
(dp3678
g86
g87
ssg75
g3672
sg68
(lp3679
S'Pragma'
p3680
asbag61
(g82
g63
NtRp3681
(dp3682
g66
(dp3683
g93
g94
ssg75
g3672
sg68
(lp3684
S':'
asbag61
(g82
g63
NtRp3685
(dp3686
g66
(dp3687
sg75
g3672
sg68
(lp3688
g61
(g62
g63
NtRp3689
(dp3690
g66
(dp3691
g74
I4
ssg75
g3685
sg68
(lp3692
S'no-cache'
p3693
asbasbasbasbasbasbasbag61
(g77
g63
NtRp3694
(dp3695
g66
(dp3696
sg75
g3202
sg68
(lp3697
g61
(g82
g63
NtRp3698
(dp3699
g66
(dp3700
g86
g87
ssg75
g3694
sg68
(lp3701
S'menu'
p3702
asbag61
(g82
g63
NtRp3703
(dp3704
g66
(dp3705
g93
g94
ssg75
g3694
sg68
(lp3706
S':'
asbag61
(g82
g63
NtRp3707
(dp3708
g66
(dp3709
sg75
g3694
sg68
(lp3710
g61
(g62
g63
NtRp3711
(dp3712
g66
(dp3713
g74
I5
ssg75
g3707
sg68
(lp3714
g61
(g70
g63
NtRp3715
(dp3716
g66
(dp3717
g74
I4
ssg75
Nsg68
(lp3718
g61
(g77
g63
NtRp3719
(dp3720
g66
(dp3721
sg75
g3715
sg68
(lp3722
g61
(g82
g63
NtRp3723
(dp3724
g66
(dp3725
sg75
g3719
sg68
(lp3726
g61
(g62
g63
NtRp3727
(dp3728
g66
(dp3729
g74
I4
ssg75
g3723
sg68
(lp3730
g61
(g70
g63
NtRp3731
(dp3732
g66
(dp3733
g74
I3
ssg75
Nsg68
(lp3734
g61
(g77
g63
NtRp3735
(dp3736
g66
(dp3737
sg75
g3731
sg68
(lp3738
g61
(g82
g63
NtRp3739
(dp3740
g66
(dp3741
sg75
g3735
sg68
(lp3742
g61
(g62
g63
NtRp3743
(dp3744
g66
(dp3745
g74
I3
ssg75
g3739
sg68
(lp3746
cgluon.languages
lazyT_unpickle
p3747
(S't\x04\x00\x00\x00Site'
tRp3748
asbasbasbag61
(g77
g63
NtRp3749
(dp3750
g66
(dp3751
sg75
g3731
sg68
(lp3752
g61
(g82
g63
NtRp3753
(dp3754
g66
(dp3755
sg75
g3749
sg68
(lp3756
g61
(g62
g63
NtRp3757
(dp3758
g66
(dp3759
g74
I3
ssg75
g3753
sg68
(lp3760
g104
asbasbasbag61
(g77
g63
NtRp3761
(dp3762
g66
(dp3763
sg75
g3731
sg68
(lp3764
g61
(g82
g63
NtRp3765
(dp3766
g66
(dp3767
sg75
g3761
sg68
(lp3768
g61
(g62
g63
NtRp3769
(dp3770
g66
(dp3771
g74
I3
ssg75
g3765
sg68
(lp3772
S'/admin/default/site'
p3773
asbasbasbasbasbasbasbag61
(g77
g63
NtRp3774
(dp3775
g66
(dp3776
sg75
g3715
sg68
(lp3777
g61
(g82
g63
NtRp3778
(dp3779
g66
(dp3780
sg75
g3774
sg68
(lp3781
g61
(g62
g63
NtRp3782
(dp3783
g66
(dp3784
g74
I4
ssg75
g3778
sg68
(lp3785
g61
(g70
g63
NtRp3786
(dp3787
g66
(dp3788
g74
I3
ssg75
Nsg68
(lp3789
g61
(g77
g63
NtRp3790
(dp3791
g66
(dp3792
sg75
g3786
sg68
(lp3793
g61
(g82
g63
NtRp3794
(dp3795
g66
(dp3796
sg75
g3790
sg68
(lp3797
g61
(g62
g63
NtRp3798
(dp3799
g66
(dp3800
g74
I3
ssg75
g3794
sg68
(lp3801
g3747
(S't\x04\x00\x00\x00Edit'
tRp3802
asbasbasbag61
(g77
g63
NtRp3803
(dp3804
g66
(dp3805
sg75
g3786
sg68
(lp3806
g61
(g82
g63
NtRp3807
(dp3808
g66
(dp3809
sg75
g3803
sg68
(lp3810
g61
(g62
g63
NtRp3811
(dp3812
g66
(dp3813
g74
I3
ssg75
g3807
sg68
(lp3814
g104
asbasbasbag61
(g77
g63
NtRp3815
(dp3816
g66
(dp3817
sg75
g3786
sg68
(lp3818
g61
(g82
g63
NtRp3819
(dp3820
g66
(dp3821
sg75
g3815
sg68
(lp3822
g61
(g62
g63
NtRp3823
(dp3824
g66
(dp3825
g74
I3
ssg75
g3819
sg68
(lp3826
S'/admin/default/design/OJTest'
p3827
asbasbasbasbasbasbasbag61
(g77
g63
NtRp3828
(dp3829
g66
(dp3830
sg75
g3715
sg68
(lp3831
g61
(g82
g63
NtRp3832
(dp3833
g66
(dp3834
sg75
g3828
sg68
(lp3835
g61
(g62
g63
NtRp3836
(dp3837
g66
(dp3838
g74
I4
ssg75
g3832
sg68
(lp3839
g61
(g70
g63
NtRp3840
(dp3841
g66
(dp3842
g74
I3
ssg75
Nsg68
(lp3843
g61
(g77
g63
NtRp3844
(dp3845
g66
(dp3846
sg75
g3840
sg68
(lp3847
g61
(g82
g63
NtRp3848
(dp3849
g66
(dp3850
sg75
g3844
sg68
(lp3851
g61
(g62
g63
NtRp3852
(dp3853
g66
(dp3854
g74
I3
ssg75
g3848
sg68
(lp3855
g3747
(S't\x05\x00\x00\x00About'
tRp3856
asbasbasbag61
(g77
g63
NtRp3857
(dp3858
g66
(dp3859
sg75
g3840
sg68
(lp3860
g61
(g82
g63
NtRp3861
(dp3862
g66
(dp3863
sg75
g3857
sg68
(lp3864
g61
(g62
g63
NtRp3865
(dp3866
g66
(dp3867
g74
I3
ssg75
g3861
sg68
(lp3868
g104
asbasbasbag61
(g77
g63
NtRp3869
(dp3870
g66
(dp3871
sg75
g3840
sg68
(lp3872
g61
(g82
g63
NtRp3873
(dp3874
g66
(dp3875
sg75
g3869
sg68
(lp3876
g61
(g62
g63
NtRp3877
(dp3878
g66
(dp3879
g74
I3
ssg75
g3873
sg68
(lp3880
S'/admin/default/about/OJTest'
p3881
asbasbasbasbasbasbasbag61
(g77
g63
NtRp3882
(dp3883
g66
(dp3884
sg75
g3715
sg68
(lp3885
g61
(g82
g63
NtRp3886
(dp3887
g66
(dp3888
sg75
g3882
sg68
(lp3889
g61
(g62
g63
NtRp3890
(dp3891
g66
(dp3892
g74
I4
ssg75
g3886
sg68
(lp3893
g61
(g70
g63
NtRp3894
(dp3895
g66
(dp3896
g74
I3
ssg75
Nsg68
(lp3897
g61
(g77
g63
NtRp3898
(dp3899
g66
(dp3900
sg75
g3894
sg68
(lp3901
g61
(g82
g63
NtRp3902
(dp3903
g66
(dp3904
sg75
g3898
sg68
(lp3905
g61
(g62
g63
NtRp3906
(dp3907
g66
(dp3908
g74
I3
ssg75
g3902
sg68
(lp3909
g3747
(S't\x06\x00\x00\x00Errors'
tRp3910
asbasbasbag61
(g77
g63
NtRp3911
(dp3912
g66
(dp3913
sg75
g3894
sg68
(lp3914
g61
(g82
g63
NtRp3915
(dp3916
g66
(dp3917
sg75
g3911
sg68
(lp3918
g61
(g62
g63
NtRp3919
(dp3920
g66
(dp3921
g74
I3
ssg75
g3915
sg68
(lp3922
g104
asbasbasbag61
(g77
g63
NtRp3923
(dp3924
g66
(dp3925
sg75
g3894
sg68
(lp3926
g61
(g82
g63
NtRp3927
(dp3928
g66
(dp3929
sg75
g3923
sg68
(lp3930
g61
(g62
g63
NtRp3931
(dp3932
g66
(dp3933
g74
I3
ssg75
g3927
sg68
(lp3934
S'/admin/default/errors/OJTest'
p3935
asbasbasbasbasbasbasbag61
(g77
g63
NtRp3936
(dp3937
g66
(dp3938
sg75
g3715
sg68
(lp3939
g61
(g82
g63
NtRp3940
(dp3941
g66
(dp3942
sg75
g3936
sg68
(lp3943
g61
(g62
g63
NtRp3944
(dp3945
g66
(dp3946
g74
I4
ssg75
g3940
sg68
(lp3947
g61
(g70
g63
NtRp3948
(dp3949
g66
(dp3950
g74
I3
ssg75
Nsg68
(lp3951
g61
(g77
g63
NtRp3952
(dp3953
g66
(dp3954
sg75
g3948
sg68
(lp3955
g61
(g82
g63
NtRp3956
(dp3957
g66
(dp3958
sg75
g3952
sg68
(lp3959
g61
(g62
g63
NtRp3960
(dp3961
g66
(dp3962
g74
I3
ssg75
g3956
sg68
(lp3963
g3747
(S't\n\x00\x00\x00Versioning'
tRp3964
asbasbasbag61
(g77
g63
NtRp3965
(dp3966
g66
(dp3967
sg75
g3948
sg68
(lp3968
g61
(g82
g63
NtRp3969
(dp3970
g66
(dp3971
sg75
g3965
sg68
(lp3972
g61
(g62
g63
NtRp3973
(dp3974
g66
(dp3975
g74
I3
ssg75
g3969
sg68
(lp3976
g104
asbasbasbag61
(g77
g63
NtRp3977
(dp3978
g66
(dp3979
sg75
g3948
sg68
(lp3980
g61
(g82
g63
NtRp3981
(dp3982
g66
(dp3983
sg75
g3977
sg68
(lp3984
g61
(g62
g63
NtRp3985
(dp3986
g66
(dp3987
g74
I3
ssg75
g3981
sg68
(lp3988
S'/admin/mercurial/commit/OJTest'
p3989
asbasbasbasbasbasbasbag61
(g77
g63
NtRp3990
(dp3991
g66
(dp3992
sg75
g3715
sg68
(lp3993
g61
(g82
g63
NtRp3994
(dp3995
g66
(dp3996
sg75
g3990
sg68
(lp3997
g61
(g62
g63
NtRp3998
(dp3999
g66
(dp4000
g74
I4
ssg75
g3994
sg68
(lp4001
g61
(g70
g63
NtRp4002
(dp4003
g66
(dp4004
g74
I3
ssg75
Nsg68
(lp4005
g61
(g77
g63
NtRp4006
(dp4007
g66
(dp4008
sg75
g4002
sg68
(lp4009
g61
(g82
g63
NtRp4010
(dp4011
g66
(dp4012
sg75
g4006
sg68
(lp4013
g61
(g62
g63
NtRp4014
(dp4015
g66
(dp4016
g74
I3
ssg75
g4010
sg68
(lp4017
g3747
(S't\x06\x00\x00\x00Logout'
tRp4018
asbasbasbag61
(g77
g63
NtRp4019
(dp4020
g66
(dp4021
sg75
g4002
sg68
(lp4022
g61
(g82
g63
NtRp4023
(dp4024
g66
(dp4025
sg75
g4019
sg68
(lp4026
g61
(g62
g63
NtRp4027
(dp4028
g66
(dp4029
g74
I3
ssg75
g4023
sg68
(lp4030
g104
asbasbasbag61
(g77
g63
NtRp4031
(dp4032
g66
(dp4033
sg75
g4002
sg68
(lp4034
g61
(g82
g63
NtRp4035
(dp4036
g66
(dp4037
sg75
g4031
sg68
(lp4038
g61
(g62
g63
NtRp4039
(dp4040
g66
(dp4041
g74
I3
ssg75
g4035
sg68
(lp4042
S'/admin/default/logout'
p4043
asbasbasbasbasbasbasbag61
(g77
g63
NtRp4044
(dp4045
g66
(dp4046
sg75
g3715
sg68
(lp4047
g61
(g82
g63
NtRp4048
(dp4049
g66
(dp4050
sg75
g4044
sg68
(lp4051
g61
(g62
g63
NtRp4052
(dp4053
g66
(dp4054
g74
I4
ssg75
g4048
sg68
(lp4055
g61
(g70
g63
NtRp4056
(dp4057
g66
(dp4058
g74
I3
ssg75
Nsg68
(lp4059
g61
(g77
g63
NtRp4060
(dp4061
g66
(dp4062
sg75
g4056
sg68
(lp4063
g61
(g82
g63
NtRp4064
(dp4065
g66
(dp4066
sg75
g4060
sg68
(lp4067
g61
(g62
g63
NtRp4068
(dp4069
g66
(dp4070
g74
I3
ssg75
g4064
sg68
(lp4071
g3747
(S't\x04\x00\x00\x00Help'
tRp4072
asbasbasbag61
(g77
g63
NtRp4073
(dp4074
g66
(dp4075
sg75
g4056
sg68
(lp4076
g61
(g82
g63
NtRp4077
(dp4078
g66
(dp4079
sg75
g4073
sg68
(lp4080
g61
(g62
g63
NtRp4081
(dp4082
g66
(dp4083
g74
I3
ssg75
g4077
sg68
(lp4084
g104
asbasbasbag61
(g77
g63
NtRp4085
(dp4086
g66
(dp4087
sg75
g4056
sg68
(lp4088
g61
(g82
g63
NtRp4089
(dp4090
g66
(dp4091
sg75
g4085
sg68
(lp4092
g61
(g62
g63
NtRp4093
(dp4094
g66
(dp4095
g74
I3
ssg75
g4089
sg68
(lp4096
S'/examples/default/index'
p4097
asbasbasbasbasbasbasbasbasbasbasbag61
(g77
g63
NtRp4098
(dp4099
g66
(dp4100
sg75
g3202
sg68
(lp4101
g61
(g82
g63
NtRp4102
(dp4103
g66
(dp4104
g86
g87
ssg75
g4098
sg68
(lp4105
S'meta'
p4106
asbag61
(g82
g63
NtRp4107
(dp4108
g66
(dp4109
g93
g94
ssg75
g4098
sg68
(lp4110
S':'
asbag61
(g82
g63
NtRp4111
(dp4112
g66
(dp4113
sg75
g4098
sg68
(lp4114
g61
(g62
g63
NtRp4115
(dp4116
g66
(dp4117
g74
I5
ssg75
g4111
sg68
(lp4118
g61
(g70
g63
NtRp4119
(dp4120
g66
(dp4121
g74
I4
ssg75
Nsg68
(lp4122
sbasbasbasbag61
(g77
g63
NtRp4123
(dp4124
g66
(dp4125
sg75
g3202
sg68
(lp4126
g61
(g82
g63
NtRp4127
(dp4128
g66
(dp4129
g86
g87
ssg75
g4123
sg68
(lp4130
S'postprocessing'
p4131
asbag61
(g82
g63
NtRp4132
(dp4133
g66
(dp4134
g93
g94
ssg75
g4123
sg68
(lp4135
S':'
asbag61
(g82
g63
NtRp4136
(dp4137
g66
(dp4138
sg75
g4123
sg68
(lp4139
g61
(g62
g63
NtRp4140
(dp4141
g66
(dp4142
g74
I5
ssg75
g4136
sg68
(lp4143
g61
(g70
g63
NtRp4144
(dp4145
g66
(dp4146
g74
I4
ssg75
Nsg68
(lp4147
sbasbasbasbag61
(g77
g63
NtRp4148
(dp4149
g66
(dp4150
sg75
g3202
sg68
(lp4151
g61
(g82
g63
NtRp4152
(dp4153
g66
(dp4154
g86
g87
ssg75
g4148
sg68
(lp4155
S'session_file'
p4156
asbag61
(g82
g63
NtRp4157
(dp4158
g66
(dp4159
g93
g94
ssg75
g4148
sg68
(lp4160
S':'
asbag61
(g82
g63
NtRp4161
(dp4162
g66
(dp4163
sg75
g4148
sg68
(lp4164
g61
(g62
g63
NtRp4165
(dp4166
g66
(dp4167
g74
I5
ssg75
g4161
sg68
(lp4168
S"<open file 'C:\\webapps\\dopbox\\Dropbox\\Eclipse\\OJDevSourceProject\\project\\web2py\\applications\\admin\\sessions\\127.0.0.1-8fb055eb-ba39-44ee-b834-ead10179a2b2', mode 'rb+' at 0x0000000003C22C90>"
p4169
asbasbasbag61
(g77
g63
NtRp4170
(dp4171
g66
(dp4172
sg75
g3202
sg68
(lp4173
g61
(g82
g63
NtRp4174
(dp4175
g66
(dp4176
g86
g87
ssg75
g4170
sg68
(lp4177
S'session_filename'
p4178
asbag61
(g82
g63
NtRp4179
(dp4180
g66
(dp4181
g93
g94
ssg75
g4170
sg68
(lp4182
S':'
asbag61
(g82
g63
NtRp4183
(dp4184
g66
(dp4185
sg75
g4170
sg68
(lp4186
g61
(g62
g63
NtRp4187
(dp4188
g66
(dp4189
g74
I5
ssg75
g4183
sg68
(lp4190
S'C:\\webapps\\dopbox\\Dropbox\\Eclipse\\OJDevSourceProject\\project\\web2py\\applications\\admin\\sessions\\127.0.0.1-8fb055eb-ba39-44ee-b834-ead10179a2b2'
p4191
asbasbasbag61
(g77
g63
NtRp4192
(dp4193
g66
(dp4194
sg75
g3202
sg68
(lp4195
g61
(g82
g63
NtRp4196
(dp4197
g66
(dp4198
g86
g87
ssg75
g4192
sg68
(lp4199
S'session_id'
p4200
asbag61
(g82
g63
NtRp4201
(dp4202
g66
(dp4203
g93
g94
ssg75
g4192
sg68
(lp4204
S':'
asbag61
(g82
g63
NtRp4205
(dp4206
g66
(dp4207
sg75
g4192
sg68
(lp4208
g61
(g62
g63
NtRp4209
(dp4210
g66
(dp4211
g74
I5
ssg75
g4205
sg68
(lp4212
S'127.0.0.1-8fb055eb-ba39-44ee-b834-ead10179a2b2'
p4213
asbasbasbag61
(g77
g63
NtRp4214
(dp4215
g66
(dp4216
sg75
g3202
sg68
(lp4217
g61
(g82
g63
NtRp4218
(dp4219
g66
(dp4220
g86
g87
ssg75
g4214
sg68
(lp4221
S'session_id_name'
p4222
asbag61
(g82
g63
NtRp4223
(dp4224
g66
(dp4225
g93
g94
ssg75
g4214
sg68
(lp4226
S':'
asbag61
(g82
g63
NtRp4227
(dp4228
g66
(dp4229
sg75
g4214
sg68
(lp4230
g61
(g62
g63
NtRp4231
(dp4232
g66
(dp4233
g74
I5
ssg75
g4227
sg68
(lp4234
g3259
asbasbasbag61
(g77
g63
NtRp4235
(dp4236
g66
(dp4237
sg75
g3202
sg68
(lp4238
g61
(g82
g63
NtRp4239
(dp4240
g66
(dp4241
g86
g87
ssg75
g4235
sg68
(lp4242
S'session_locked'
p4243
asbag61
(g82
g63
NtRp4244
(dp4245
g66
(dp4246
g93
g94
ssg75
g4235
sg68
(lp4247
S':'
asbag61
(g82
g63
NtRp4248
(dp4249
g66
(dp4250
sg75
g4235
sg68
(lp4251
g61
(g62
g63
NtRp4252
(dp4253
g66
(dp4254
g74
I5
ssg75
g4248
sg68
(lp4255
g1566
asbasbasbag61
(g77
g63
NtRp4256
(dp4257
g66
(dp4258
sg75
g3202
sg68
(lp4259
g61
(g82
g63
NtRp4260
(dp4261
g66
(dp4262
g86
g87
ssg75
g4256
sg68
(lp4263
S'session_new'
p4264
asbag61
(g82
g63
NtRp4265
(dp4266
g66
(dp4267
g93
g94
ssg75
g4256
sg68
(lp4268
S':'
asbag61
(g82
g63
NtRp4269
(dp4270
g66
(dp4271
sg75
g4256
sg68
(lp4272
g61
(g62
g63
NtRp4273
(dp4274
g66
(dp4275
g74
I5
ssg75
g4269
sg68
(lp4276
g104
asbasbasbag61
(g77
g63
NtRp4277
(dp4278
g66
(dp4279
sg75
g3202
sg68
(lp4280
g61
(g82
g63
NtRp4281
(dp4282
g66
(dp4283
g86
g87
ssg75
g4277
sg68
(lp4284
S'status'
p4285
asbag61
(g82
g63
NtRp4286
(dp4287
g66
(dp4288
g93
g94
ssg75
g4277
sg68
(lp4289
S':'
asbag61
(g82
g63
NtRp4290
(dp4291
g66
(dp4292
sg75
g4277
sg68
(lp4293
g61
(g62
g63
NtRp4294
(dp4295
g66
(dp4296
g74
I5
ssg75
g4290
sg68
(lp4297
S'200'
p4298
asbasbasbag61
(g77
g63
NtRp4299
(dp4300
g66
(dp4301
sg75
g3202
sg68
(lp4302
g61
(g82
g63
NtRp4303
(dp4304
g66
(dp4305
g86
g87
ssg75
g4299
sg68
(lp4306
S'subtitle'
p4307
asbag61
(g82
g63
NtRp4308
(dp4309
g66
(dp4310
g93
g94
ssg75
g4299
sg68
(lp4311
S':'
asbag61
(g82
g63
NtRp4312
(dp4313
g66
(dp4314
sg75
g4299
sg68
(lp4315
g61
(g62
g63
NtRp4316
(dp4317
g66
(dp4318
g74
I5
ssg75
g4312
sg68
(lp4319
S'admin'
p4320
asbasbasbag61
(g77
g63
NtRp4321
(dp4322
g66
(dp4323
sg75
g3202
sg68
(lp4324
g61
(g82
g63
NtRp4325
(dp4326
g66
(dp4327
g86
g87
ssg75
g4321
sg68
(lp4328
S'title'
p4329
asbag61
(g82
g63
NtRp4330
(dp4331
g66
(dp4332
g93
g94
ssg75
g4321
sg68
(lp4333
S':'
asbag61
(g82
g63
NtRp4334
(dp4335
g66
(dp4336
sg75
g4321
sg68
(lp4337
g61
(g62
g63
NtRp4338
(dp4339
g66
(dp4340
g74
I5
ssg75
g4334
sg68
(lp4341
S'ticket OJTest/60.242.177.184.2012-01-19.05-52-40.73e3f8d5-172e-4643-86ab-281e1292851a'
p4342
asbasbasbag61
(g77
g63
NtRp4343
(dp4344
g66
(dp4345
sg75
g3202
sg68
(lp4346
g61
(g82
g63
NtRp4347
(dp4348
g66
(dp4349
g86
g87
ssg75
g4343
sg68
(lp4350
g2232
asbag61
(g82
g63
NtRp4351
(dp4352
g66
(dp4353
g93
g94
ssg75
g4343
sg68
(lp4354
S':'
asbag61
(g82
g63
NtRp4355
(dp4356
g66
(dp4357
sg75
g4343
sg68
(lp4358
g61
(g62
g63
NtRp4359
(dp4360
g66
(dp4361
g74
I5
ssg75
g4355
sg68
(lp4362
g2245
asbasbasbag61
(g77
g63
NtRp4363
(dp4364
g66
(dp4365
sg75
g3202
sg68
(lp4366
g61
(g82
g63
NtRp4367
(dp4368
g66
(dp4369
g86
g87
ssg75
g4363
sg68
(lp4370
S'view'
p4371
asbag61
(g82
g63
NtRp4372
(dp4373
g66
(dp4374
g93
g94
ssg75
g4363
sg68
(lp4375
S':'
asbag61
(g82
g63
NtRp4376
(dp4377
g66
(dp4378
sg75
g4363
sg68
(lp4379
g61
(g62
g63
NtRp4380
(dp4381
g66
(dp4382
g74
I5
ssg75
g4376
sg68
(lp4383
S'default/ticket.html'
p4384
asbasbasbasbasbsS'locals'
p4385
(dp4386
S'errors_folder'
p4387
S"r'C:\\webapps\\dopbox\\Dropbox\\Eclipse\\OJDevSourceProject\\project\\web2py\\applications\\OJTest\\errors'"
p4388
sS'app'
p4389
S"'OJTest'"
p4390
sg60
S"<Storage {'body': <cStringIO.StringO object at 0..._vars': <Storage {}>, 'post_vars': <Storage {}>}>"
p4391
sS'mode'
p4392
S"'rb'"
p4393
sS'root'
p4394
S"r'C:\\webapps\\dopbox\\Dropbox\\Eclipse\\OJDevSourceProject\\project\\web2py\\applications\\admin\\..\\OJTest'"
p4395
sS'self'
p4396
S"<Storage {'tablename': 'web2py_ticket'}>"
p4397
sS'ticket_id'
p4398
S"'60.242.177.184.2012-01-19.05-52-40.73e3f8d5-172e-4643-86ab-281e1292851a'"
p4399
sssS'traceback'
p4400
S'Traceback (most recent call last):\n  File "C:\\webapps\\dopbox\\Dropbox\\Eclipse\\OJDevSourceProject\\project\\web2py\\gluon\\restricted.py", line 194, in restricted\n    exec ccode in environment\n  File "C:\\webapps\\dopbox\\Dropbox\\Eclipse\\OJDevSourceProject\\project\\web2py\\applications\\admin\\controllers/default.py", line 1225, in <module>\n  File "C:\\webapps\\dopbox\\Dropbox\\Eclipse\\OJDevSourceProject\\project\\web2py\\gluon\\globals.py", line 149, in <lambda>\n    self._caller = lambda f: f()\n  File "C:\\webapps\\dopbox\\Dropbox\\Eclipse\\OJDevSourceProject\\project\\web2py\\applications\\admin\\controllers/default.py", line 1174, in ticket\n    e.load(request, app, ticket)\n  File "C:\\webapps\\dopbox\\Dropbox\\Eclipse\\OJDevSourceProject\\project\\web2py\\gluon\\restricted.py", line 166, in load\n    d = ticket_storage.load(request, app, ticket_id)\n  File "C:\\webapps\\dopbox\\Dropbox\\Eclipse\\OJDevSourceProject\\project\\web2py\\gluon\\restricted.py", line 92, in load\n    ef = self._error_file(request, ticket_id, \'rb\', app)\n  File "C:\\webapps\\dopbox\\Dropbox\\Eclipse\\OJDevSourceProject\\project\\web2py\\gluon\\restricted.py", line 69, in _error_file\n    return open(os.path.join(errors_folder, ticket_id), mode)\nIOError: [Errno 2] No such file or directory: \'C:\\\\webapps\\\\dopbox\\\\Dropbox\\\\Eclipse\\\\OJDevSourceProject\\\\project\\\\web2py\\\\applications\\\\OJTest\\\\errors\\\\60.242.177.184.2012-01-19.05-52-40.73e3f8d5-172e-4643-86ab-281e1292851a\'\n'
p4401
s.