(dp1
S'output'
p2
S''
sS'layer'
p3
S'D:\\Dropbox\\Eclipse\\OJDevSourceProject\\project\\web2py\\applications\\admin\\controllers/default.py'
p4
sS'code'
p5
S'# coding: utf8\n\nfrom gluon.admin import *\nfrom gluon.fileutils import abspath, read_file, write_file\nfrom glob import glob\nimport shutil\nimport platform\n\nif DEMO_MODE and request.function in [\'change_password\',\'pack\',\'pack_plugin\',\'upgrade_web2py\',\'uninstall\',\'cleanup\',\'compile_app\',\'remove_compiled_app\',\'delete\',\'delete_plugin\',\'create_file\',\'upload_file\',\'update_languages\',\'reload_routes\']:\n    session.flash = T(\'disabled in demo mode\')\n    redirect(URL(\'site\'))\n\nif not is_manager() and request.function in [\'change_password\',\'upgrade_web2py\']:\n    session.flash = T(\'disabled in multi user mode\')\n    redirect(URL(\'site\'))\n\nif FILTER_APPS and request.args(0) and not request.args(0) in FILTER_APPS:\n    session.flash = T(\'disabled in demo mode\')\n    redirect(URL(\'site\'))\n\ndef safe_open(a,b):\n    if DEMO_MODE and \'w\' in b:\n        class tmp:\n            def write(self,data): pass\n        return tmp()\n    return open(a,b)\n\ndef safe_read(a, b=\'r\'):\n    safe_file = safe_open(a, b)\n    try:\n        return safe_file.read()\n    finally:\n        safe_file.close()\n\ndef safe_write(a, value, b=\'w\'):\n    safe_file = safe_open(a, b)\n    try:\n        safe_file.write(value)\n    finally:\n        safe_file.close()\n\ndef get_app(name=None):\n    app = name or request.args(0)\n    if app and (not MULTI_USER_MODE or db(db.app.name==app)(db.app.owner==auth.user.id).count()):\n        return app\n    session.flash = \'App does not exist or your are not authorized\'\n    redirect(URL(\'site\'))\n\ndef index():\n    """ Index handler """\n\n    send = request.vars.send\n    if DEMO_MODE:\n        session.authorized = True\n        session.last_time = t0\n    if not send:\n        send = URL(\'site\')\n    if session.authorized:\n        redirect(send)\n    elif request.vars.password:\n        if verify_password(request.vars.password):\n            session.authorized = True\n            login_record(True)\n\n            if CHECK_VERSION:\n                session.check_version = True\n            else:\n                session.check_version = False\n\n            session.last_time = t0\n            if isinstance(send, list):  # ## why does this happen?\n                send = str(send[0])\n\n            redirect(send)\n        else:\n            times_denied = login_record(False)\n            if times_denied >= allowed_number_of_attempts:\n                response.flash = \\\n                    T(\'admin disabled because too many invalid login attempts\')\n            elif times_denied == allowed_number_of_attempts - 1:\n                response.flash = \\\n                    T(\'You have one more login attempt before you are locked out\')\n            else:\n                response.flash = T(\'invalid password.\')\n    return dict(send=send)\n\n\ndef check_version():\n    """ Checks if web2py is up to date """\n\n    session.forget()\n    session._unlock(response)\n\n    new_version, version_number = check_new_version(request.env.web2py_version,\n                                    WEB2PY_VERSION_URL)\n\n    if new_version == -1:\n        return A(T(\'Unable to check for upgrades\'), _href=WEB2PY_URL)\n    elif new_version != True:\n        return A(T(\'web2py is up to date\'), _href=WEB2PY_URL)\n    elif platform.system().lower() in (\'windows\',\'win32\',\'win64\') and os.path.exists("web2py.exe"):\n        return SPAN(\'You should upgrade to version %s\' % version_number)\n    else:\n        return sp_button(URL(\'upgrade_web2py\'), T(\'upgrade now\')) \\\n          + XML(\' <strong class="upgrade_version">%s</strong>\' % version_number)\n\n\ndef logout():\n    """ Logout handler """\n    session.authorized = None\n    if MULTI_USER_MODE:\n        redirect(URL(\'user/logout\'))\n    redirect(URL(\'index\'))\n\n\ndef change_password():\n\n    if session.pam_user:\n        session.flash = T(\'PAM authenticated user, cannot change password here\')\n        redirect(URL(\'site\'))\n    form=SQLFORM.factory(Field(\'current_admin_password\',\'password\'),\n                         Field(\'new_admin_password\',\'password\',requires=IS_STRONG()),\n                         Field(\'new_admin_password_again\',\'password\'))\n    if form.accepts(request.vars):\n        if not verify_password(request.vars.current_admin_password):\n            form.errors.current_admin_password = T(\'invalid password\')\n        elif form.vars.new_admin_password != form.vars.new_admin_password_again:\n            form.errors.new_admin_password_again = T(\'no match\')\n        else:\n            path = abspath(\'parameters_%s.py\' % request.env.server_port)\n            safe_write(path, \'password="%s"\' % CRYPT()(request.vars.new_admin_password)[0])\n            session.flash = T(\'password changed\')\n            redirect(URL(\'site\'))\n    return dict(form=form)\n\ndef site():\n    """ Site handler """\n\n    myversion = request.env.web2py_version\n\n    # Shortcut to make the elif statements more legible\n    file_or_appurl = \'file\' in request.vars or \'appurl\' in request.vars\n\n    if DEMO_MODE:\n        pass\n\n    elif request.vars.filename and not \'file\' in request.vars:\n        # create a new application\n        appname = cleanpath(request.vars.filename).replace(\'.\', \'_\')\n        if app_create(appname, request):\n            if MULTI_USER_MODE:\n                db.app.insert(name=appname,owner=auth.user.id)\n            session.flash = T(\'new application "%s" created\', appname)\n            redirect(URL(\'design\',args=appname))\n        else:\n            session.flash = \\\n                T(\'unable to create application "%s" (it may exist already)\', request.vars.filename)\n        redirect(URL(r=request))\n\n    elif file_or_appurl and not request.vars.filename:\n        # can\'t do anything without an app name\n        msg = \'you must specify a name for the uploaded application\'\n        response.flash = T(msg)\n\n    elif file_or_appurl and request.vars.filename:\n        # fetch an application via URL or file upload\n        f = None\n        if request.vars.appurl is not \'\':\n            try:\n                f = urllib.urlopen(request.vars.appurl)\n            except Exception, e:\n                session.flash = DIV(T(\'Unable to download app because:\'),PRE(str(e)))\n                redirect(URL(r=request))\n            fname = request.vars.appurl\n        elif request.vars.file is not \'\':\n            f = request.vars.file.file\n            fname = request.vars.file.filename\n\n        if f:\n            appname = cleanpath(request.vars.filename).replace(\'.\', \'_\')\n            installed = app_install(appname, f, request, fname,\n                                    overwrite=request.vars.overwrite_check)\n        if f and installed:\n            msg = \'application %(appname)s installed with md5sum: %(digest)s\'\n            session.flash = T(msg, dict(appname=appname,\n                                        digest=md5_hash(installed)))\n        elif f and request.vars.overwrite_check:\n            msg = \'unable to install application "%(appname)s"\'\n            session.flash = T(msg, dict(appname=request.vars.filename))\n\n        else:\n            msg = \'unable to install application "%(appname)s"\'\n            session.flash = T(msg, dict(appname=request.vars.filename))\n\n        redirect(URL(r=request))\n\n    regex = re.compile(\'^\\w+$\')\n\n    if is_manager():\n        apps = [f for f in os.listdir(apath(r=request)) if regex.match(f)]\n    else:\n        apps = [f.name for f in db(db.app.owner==auth.user_id).select()]\n\n    if FILTER_APPS:\n        apps = [f for f in apps if f in FILTER_APPS]\n\n    apps = sorted(apps,lambda a,b:cmp(a.upper(),b.upper()))\n\n    return dict(app=None, apps=apps, myversion=myversion)\n\n\ndef pack():\n    app = get_app()\n\n    if len(request.args) == 1:\n        fname = \'web2py.app.%s.w2p\' % app\n        filename = app_pack(app, request)\n    else:\n        fname = \'web2py.app.%s.compiled.w2p\' % app\n        filename = app_pack_compiled(app, request)\n\n    if filename:\n        response.headers[\'Content-Type\'] = \'application/w2p\'\n        disposition = \'attachment; filename=%s\' % fname\n        response.headers[\'Content-Disposition\'] = disposition\n        return safe_read(filename, \'rb\')\n    else:\n        session.flash = T(\'internal error\')\n        redirect(URL(\'site\'))\n\ndef pack_plugin():\n    app = get_app()\n    if len(request.args) == 2:\n        fname = \'web2py.plugin.%s.w2p\' % request.args[1]\n        filename = plugin_pack(app, request.args[1], request)\n    if filename:\n        response.headers[\'Content-Type\'] = \'application/w2p\'\n        disposition = \'attachment; filename=%s\' % fname\n        response.headers[\'Content-Disposition\'] = disposition\n        return safe_read(filename, \'rb\')\n    else:\n        session.flash = T(\'internal error\')\n        redirect(URL(\'plugin\',args=request.args))\n\ndef upgrade_web2py():\n    if \'upgrade\' in request.vars:\n        (success, error) = upgrade(request)\n        if success:\n            session.flash = T(\'web2py upgraded; please restart it\')\n        else:\n            session.flash = T(\'unable to upgrade because "%s"\', error)\n        redirect(URL(\'site\'))\n    elif \'noupgrade\' in request.vars:\n        redirect(URL(\'site\'))\n    return dict()\n\ndef uninstall():\n    app = get_app()\n    if \'delete\' in request.vars:\n        if MULTI_USER_MODE:\n            if is_manager() and db(db.app.name==app).delete():\n                pass\n            elif db(db.app.name==app)(db.app.owner==auth.user.id).delete():\n                pass\n            else:\n                session.flash = T(\'no permission to uninstall "%s"\', app)\n                redirect(URL(\'site\'))\n        if app_uninstall(app, request):            \n            session.flash = T(\'application "%s" uninstalled\', app)\n        else:\n            session.flash = T(\'unable to uninstall "%s"\', app)\n        redirect(URL(\'site\'))\n    elif \'nodelete\' in request.vars:\n        redirect(URL(\'site\'))\n    return dict(app=app)\n\n\ndef cleanup():\n    app = get_app()\n    clean = app_cleanup(app, request)\n    if not clean:\n        session.flash = T("some files could not be removed")\n    else:\n        session.flash = T(\'cache, errors and sessions cleaned\')\n\n    redirect(URL(\'site\'))\n\n\ndef compile_app():\n    app = get_app()\n    c = app_compile(app, request)\n    if not c:\n        session.flash = T(\'application compiled\')\n    else:\n        session.flash = DIV(T(\'Cannot compile: there are errors in your app:\'),\n                              CODE(c))\n    redirect(URL(\'site\'))\n\n\ndef remove_compiled_app():\n    """ Remove the compiled application """\n    app = get_app()\n    remove_compiled_application(apath(app, r=request))\n    session.flash = T(\'compiled application removed\')\n    redirect(URL(\'site\'))\n\ndef delete():\n    """ Object delete handler """\n    app = get_app()\n    filename = \'/\'.join(request.args)\n    sender = request.vars.sender\n\n    if isinstance(sender, list):  # ## fix a problem with Vista\n        sender = sender[0]\n\n    if \'nodelete\' in request.vars:\n        redirect(URL(sender))\n    elif \'delete\' in request.vars:\n        try:\n            os.unlink(apath(filename, r=request))\n            session.flash = T(\'file "%(filename)s" deleted\',\n                              dict(filename=filename))\n        except Exception:\n            session.flash = T(\'unable to delete file "%(filename)s"\',\n                              dict(filename=filename))\n        redirect(URL(sender))\n    return dict(filename=filename, sender=sender)\n\ndef peek():\n    """ Visualize object code """\n    app = get_app()\n    filename = \'/\'.join(request.args)\n    try:\n        data = safe_read(apath(filename, r=request)).replace(\'\\r\',\'\')\n    except IOError:\n        session.flash = T(\'file does not exist\')\n        redirect(URL(\'site\'))\n\n    extension = filename[filename.rfind(\'.\') + 1:].lower()\n\n    return dict(app=request.args[0],\n                filename=filename,\n                data=data,\n                extension=extension)\n\n\ndef test():\n    """ Execute controller tests """\n    app = get_app()\n    if len(request.args) > 1:\n        file = request.args[1]\n    else:\n        file = \'.*\\.py\'\n\n    controllers = listdir(apath(\'%s/controllers/\' % app, r=request), file + \'$\')\n\n    return dict(app=app, controllers=controllers)\n\ndef keepalive():\n    return \'\'\n\ndef search():\n    keywords=request.vars.keywords or \'\'\n    app = get_app()\n    def match(filename,keywords):\n        filename=os.path.join(apath(app, r=request),filename)\n        if keywords in read_file(filename,\'rb\'):\n            return True\n        return False\n    path = apath(request.args[0], r=request)\n    files1 = glob(os.path.join(path,\'*/*.py\'))\n    files2 = glob(os.path.join(path,\'*/*.html\'))\n    files3 = glob(os.path.join(path,\'*/*/*.html\'))\n    files=[x[len(path)+1:].replace(\'\\\\\',\'/\') for x in files1+files2+files3 if match(x,keywords)]\n    return response.json({\'files\':files})\n\ndef edit():\n    """ File edit handler """\n    # Load json only if it is ajax edited...\n    app = get_app()\n    filename = \'/\'.join(request.args)\n    # Try to discover the file type\n    if filename[-3:] == \'.py\':\n        filetype = \'python\'\n    elif filename[-5:] == \'.html\':\n        filetype = \'html\'\n    elif filename[-5:] == \'.load\':\n        filetype = \'html\'\n    elif filename[-4:] == \'.css\':\n        filetype = \'css\'\n    elif filename[-3:] == \'.js\':\n        filetype = \'js\'\n    else:\n        filetype = \'html\'\n\n    # ## check if file is not there\n\n    path = apath(filename, r=request)\n\n    if request.vars.revert and os.path.exists(path + \'.bak\'):\n        try:\n            data = safe_read(path + \'.bak\')\n            data1 = safe_read(path)\n        except IOError:\n            session.flash = T(\'Invalid action\')\n            if \'from_ajax\' in request.vars:\n                 return response.json({\'error\': str(T(\'Invalid action\'))})\n            else:\n                redirect(URL(\'site\'))\n\n        safe_write(path, data)\n        file_hash = md5_hash(data)\n        saved_on = time.ctime(os.stat(path)[stat.ST_MTIME])\n        safe_write(path + \'.bak\', data1)\n        response.flash = T(\'file "%s" of %s restored\', (filename, saved_on))\n    else:\n        try:\n            data = safe_read(path)\n        except IOError:\n            session.flash = T(\'Invalid action\')\n            if \'from_ajax\' in request.vars:\n                return response.json({\'error\': str(T(\'Invalid action\'))})\n            else:\n                redirect(URL(\'site\'))\n\n        file_hash = md5_hash(data)\n        saved_on = time.ctime(os.stat(path)[stat.ST_MTIME])\n\n        if request.vars.file_hash and request.vars.file_hash != file_hash:\n            session.flash = T(\'file changed on disk\')\n            data = request.vars.data.replace(\'\\r\\n\', \'\\n\').strip() + \'\\n\'\n            safe_write(path + \'.1\', data)\n            if \'from_ajax\' in request.vars:\n                return response.json({\'error\': str(T(\'file changed on disk\')),\n                                      \'redirect\': URL(\'resolve\',\n                                                      args=request.args)})\n            else:\n                redirect(URL(\'resolve\', args=request.args))\n        elif request.vars.data:\n            safe_write(path + \'.bak\', data)\n            data = request.vars.data.replace(\'\\r\\n\', \'\\n\').strip() + \'\\n\'\n            safe_write(path, data)\n            file_hash = md5_hash(data)\n            saved_on = time.ctime(os.stat(path)[stat.ST_MTIME])\n            response.flash = T(\'file saved on %s\', saved_on)\n\n    data_or_revert = (request.vars.data or request.vars.revert)\n\n    # Check compile errors\n    highlight = None\n    if filetype == \'python\' and request.vars.data:\n        import _ast\n        try:\n            code = request.vars.data.rstrip().replace(\'\\r\\n\',\'\\n\')+\'\\n\'\n            compile(code, path, "exec", _ast.PyCF_ONLY_AST)\n        except Exception, e:\n            start = sum([len(line)+1 for l, line\n                            in enumerate(request.vars.data.split("\\n"))\n                            if l < e.lineno-1])\n            if e.text and e.offset:\n                offset = e.offset - (len(e.text) - len(e.text.splitlines()[-1]))\n            else:\n                offset = 0\n            highlight = {\'start\': start, \'end\': start + offset + 1}\n            try:\n                ex_name = e.__class__.__name__\n            except:\n                ex_name = \'unknown exception!\'\n            response.flash = DIV(T(\'failed to compile file because:\'), BR(),\n                                 B(ex_name), T(\' at line %s\') % e.lineno,\n                                 offset and T(\' at char %s\') % offset or \'\',\n                                 PRE(str(e)))\n\n    if data_or_revert and request.args[1] == \'modules\':\n        # Lets try to reload the modules\n        try:\n            mopath = \'.\'.join(request.args[2:])[:-3]\n            exec \'import applications.%s.modules.%s\' % (request.args[0], mopath)\n            reload(sys.modules[\'applications.%s.modules.%s\'\n                    % (request.args[0], mopath)])\n        except Exception, e:\n            response.flash = DIV(T(\'failed to reload module because:\'),PRE(str(e)))\n\n    edit_controller = None\n    editviewlinks = None\n    view_link = None\n    if filetype == \'html\' and len(request.args) >= 3:\n        cfilename = os.path.join(request.args[0], \'controllers\',\n                                 request.args[2] + \'.py\')\n        if os.path.exists(apath(cfilename, r=request)):\n            edit_controller = URL(\'edit\', args=[cfilename])\n            view = request.args[3].replace(\'.html\',\'\')\n            view_link = URL(request.args[0],request.args[2],view)\n    elif filetype == \'python\' and request.args[1] == \'controllers\':\n        ## it\'s a controller file.\n        ## Create links to all of the associated view files.\n        app = get_app()\n        viewname = os.path.splitext(request.args[2])[0]\n        viewpath = os.path.join(app,\'views\',viewname)\n        aviewpath = apath(viewpath, r=request)\n        viewlist = []\n        if os.path.exists(aviewpath):\n            if os.path.isdir(aviewpath):\n                viewlist = glob(os.path.join(aviewpath,\'*.html\'))\n        elif os.path.exists(aviewpath+\'.html\'):\n            viewlist.append(aviewpath+\'.html\')\n        if len(viewlist):\n            editviewlinks = []\n            for v in viewlist:\n                vf = os.path.split(v)[-1]\n                vargs = "/".join([viewpath.replace(os.sep,"/"),vf])\n                editviewlinks.append(A(T(vf.split(".")[0]),\\\n                    _href=URL(\'edit\',args=[vargs])))\n\n    if len(request.args) > 2 and request.args[1] == \'controllers\':\n        controller = (request.args[2])[:-3]\n        functions = regex_expose.findall(data)\n    else:\n        (controller, functions) = (None, None)\n\n    if \'from_ajax\' in request.vars:\n        return response.json({\'file_hash\': file_hash, \'saved_on\': saved_on, \'functions\':functions, \'controller\': controller, \'application\': request.args[0], \'highlight\': highlight })\n    else:\n\n        editarea_preferences = {}\n        editarea_preferences[\'FONT_SIZE\'] = \'10\'\n        editarea_preferences[\'FULL_SCREEN\'] = \'false\'\n        editarea_preferences[\'ALLOW_TOGGLE\'] = \'true\'\n        editarea_preferences[\'REPLACE_TAB_BY_SPACES\'] = \'4\'\n        editarea_preferences[\'DISPLAY\'] = \'onload\'\n        for key in editarea_preferences:\n            if globals().has_key(key):\n                editarea_preferences[key]=globals()[key]\n        return dict(app=request.args[0],\n                    filename=filename,\n                    filetype=filetype,\n                    data=data,\n                    edit_controller=edit_controller,\n                    file_hash=file_hash,\n                    saved_on=saved_on,\n                    controller=controller,\n                    functions=functions,\n                    view_link=view_link,\n                    editarea_preferences=editarea_preferences,\n                    editviewlinks=editviewlinks)\n\ndef resolve():\n    """\n    """\n\n    filename = \'/\'.join(request.args)\n    # ## check if file is not there\n    path = apath(filename, r=request)\n    a = safe_read(path).split(\'\\n\')\n    try:\n        b = safe_read(path + \'.1\').split(\'\\n\')\n    except IOError:\n        session.flash = \'Other file, no longer there\'\n        redirect(URL(\'edit\', args=request.args))\n\n    d = difflib.ndiff(a, b)\n\n    def leading(line):\n        """  """\n\n        # TODO: we really need to comment this\n        z = \'\'\n        for (k, c) in enumerate(line):\n            if c == \' \':\n                z += \'&nbsp;\'\n            elif c == \' \\t\':\n                z += \'&nbsp;\'\n            elif k == 0 and c == \'?\':\n                pass\n            else:\n                break\n\n        return XML(z)\n\n    def getclass(item):\n        """ Determine item class """\n\n        if item[0] == \' \':\n            return \'normal\'\n        if item[0] == \'+\':\n            return \'plus\'\n        if item[0] == \'-\':\n            return \'minus\'\n\n    if request.vars:\n        c = \'\\n\'.join([item[2:].rstrip() for (i, item) in enumerate(d) if item[0] \\\n                           == \' \' or \'line%i\' % i in request.vars])\n        safe_write(path, c)\n        session.flash = \'files merged\'\n        redirect(URL(\'edit\', args=request.args))\n    else:\n        # Making the short circuit compatible with <= python2.4\n        gen_data = lambda index,item: not item[:1] in [\'+\',\'-\'] and "" \\\n                   or INPUT(_type=\'checkbox\',\n                            _name=\'line%i\' % index,\n                            value=item[0] == \'+\')\n\n        diff = TABLE(*[TR(TD(gen_data(i,item)),\n                          TD(item[0]),\n                          TD(leading(item[2:]),\n                          TT(item[2:].rstrip())), _class=getclass(item))\n                       for (i, item) in enumerate(d) if item[0] != \'?\'])\n\n    return dict(diff=diff, filename=filename)\n\n\ndef edit_language():\n    """ Edit language file """\n    app = get_app()\n    filename = \'/\'.join(request.args)\n    from gluon.languages import read_dict, write_dict\n    strings = read_dict(apath(filename, r=request))\n    keys = sorted(strings.keys(),lambda x,y: cmp(x.lower(), y.lower()))\n    rows = []\n    rows.append(H2(T(\'Original/Translation\')))\n\n    for key in keys:\n        name = md5_hash(key)\n        if key==strings[key]:\n            _class=\'untranslated\'\n        else:\n            _class=\'translated\'\n        if len(key) <= 40:\n            elem = INPUT(_type=\'text\', _name=name,value=strings[key],\n                         _size=70,_class=_class)\n        else:\n            elem = TEXTAREA(_name=name, value=strings[key], _cols=70,\n                            _rows=5, _class=_class)\n\n        # Making the short circuit compatible with <= python2.4\n        k = (strings[key] != key) and key or B(key)\n\n        rows.append(P(k, BR(), elem, TAG.BUTTON(T(\'delete\'),\n                            _onclick=\'return delkey("%s")\' % name), _id=name))\n\n    rows.append(INPUT(_type=\'submit\', _value=T(\'update\')))\n    form = FORM(*rows)\n    if form.accepts(request.vars, keepvalues=True):\n        strs = dict()\n        for key in keys:\n            name = md5_hash(key)\n            if form.vars[name]==chr(127): continue\n            strs[key] = form.vars[name]\n        write_dict(apath(filename, r=request), strs)\n        session.flash = T(\'file saved on %(time)s\', dict(time=time.ctime()))\n        redirect(URL(r=request,args=request.args))\n    return dict(app=request.args[0], filename=filename, form=form)\n\n\ndef about():\n    """ Read about info """\n    app = get_app()\n    # ## check if file is not there\n    about = safe_read(apath(\'%s/ABOUT\' % app, r=request))\n    license = safe_read(apath(\'%s/LICENSE\' % app, r=request))\n    return dict(app=app, about=MARKMIN(about), license=MARKMIN(license))\n\n\ndef design():\n    """ Application design handler """\n    app = get_app()\n\n    if not response.flash and app == request.application:\n        msg = T(\'ATTENTION: you cannot edit the running application!\')\n        response.flash = msg\n\n    if request.vars.pluginfile!=None and not isinstance(request.vars.pluginfile,str):\n        filename=os.path.basename(request.vars.pluginfile.filename)\n        if plugin_install(app, request.vars.pluginfile.file,\n                          request, filename):\n            session.flash = T(\'new plugin installed\')\n            redirect(URL(\'design\',args=app))\n        else:\n            session.flash = \\\n                T(\'unable to create application "%s"\', request.vars.filename)\n        redirect(URL(r=request))\n    elif isinstance(request.vars.pluginfile,str):\n        session.flash = T(\'plugin not specified\')\n        redirect(URL(r=request))\n\n\n    # If we have only pyc files it means that\n    # we cannot design\n    if os.path.exists(apath(\'%s/compiled\' % app, r=request)):\n        session.flash = \\\n            T(\'application is compiled and cannot be designed\')\n        redirect(URL(\'site\'))\n\n    # Get all models\n    models = listdir(apath(\'%s/models/\' % app, r=request), \'.*\\.py$\')\n    models=[x.replace(\'\\\\\',\'/\') for x in models]\n    defines = {}\n    for m in models:\n        data = safe_read(apath(\'%s/models/%s\' % (app, m), r=request))\n        defines[m] = regex_tables.findall(data)\n        defines[m].sort()\n\n    # Get all controllers\n    controllers = sorted(listdir(apath(\'%s/controllers/\' % app, r=request), \'.*\\.py$\'))\n    controllers = [x.replace(\'\\\\\',\'/\') for x in controllers]\n    functions = {}\n    for c in controllers:\n        data = safe_read(apath(\'%s/controllers/%s\' % (app, c), r=request))\n        items = regex_expose.findall(data)\n        functions[c] = items\n\n    # Get all views\n    views = sorted(listdir(apath(\'%s/views/\' % app, r=request), \'[\\w/\\-]+(\\.\\w+)+$\'))\n    views = [x.replace(\'\\\\\',\'/\') for x in views if not x.endswith(\'.bak\')]\n    extend = {}\n    include = {}\n    for c in views:\n        data = safe_read(apath(\'%s/views/%s\' % (app, c), r=request))\n        items = regex_extend.findall(data)\n\n        if items:\n            extend[c] = items[0][1]\n\n        items = regex_include.findall(data)\n        include[c] = [i[1] for i in items]\n\n    # Get all modules\n    modules = listdir(apath(\'%s/modules/\' % app, r=request), \'.*\\.py$\')\n    modules = modules=[x.replace(\'\\\\\',\'/\') for x in modules]\n    modules.sort()\n\n    # Get all static files\n    statics = listdir(apath(\'%s/static/\' % app, r=request), \'[^\\.#].*\')\n    statics = [x.replace(\'\\\\\',\'/\') for x in statics]\n    statics.sort()\n\n    # Get all languages\n    languages = listdir(apath(\'%s/languages/\' % app, r=request), \'[\\w-]*\\.py\')\n\n    #Get crontab\n    cronfolder = apath(\'%s/cron\' % app, r=request)\n    if not os.path.exists(cronfolder): os.mkdir(cronfolder)\n    crontab = apath(\'%s/cron/crontab\' % app, r=request)\n    if not os.path.exists(crontab):\n        safe_write(crontab, \'#crontab\')\n\n    plugins=[]\n    def filter_plugins(items,plugins):\n        plugins+=[item[7:].split(\'/\')[0].split(\'.\')[0] for item in items if item.startswith(\'plugin_\')]\n        plugins[:]=list(set(plugins))\n        plugins.sort()\n        return [item for item in items if not item.startswith(\'plugin_\')]\n\n    return dict(app=app,\n                models=filter_plugins(models,plugins),\n                defines=defines,\n                controllers=filter_plugins(controllers,plugins),\n                functions=functions,\n                views=filter_plugins(views,plugins),\n                modules=filter_plugins(modules,plugins),\n                extend=extend,\n                include=include,\n                statics=filter_plugins(statics,plugins),\n                languages=languages,\n                crontab=crontab,\n                plugins=plugins)\n\ndef delete_plugin():\n    """ Object delete handler """\n    app=request.args(0)\n    plugin = request.args(1)\n    plugin_name=\'plugin_\'+plugin\n    if \'nodelete\' in request.vars:\n        redirect(URL(\'design\',args=app))\n    elif \'delete\' in request.vars:\n        try:\n            for folder in [\'models\',\'views\',\'controllers\',\'static\',\'modules\']:\n                path=os.path.join(apath(app,r=request),folder)\n                for item in os.listdir(path):\n                    if item.startswith(plugin_name):\n                        filename=os.path.join(path,item)\n                        if os.path.isdir(filename):\n                            shutil.rmtree(filename)\n                        else:\n                            os.unlink(filename)\n            session.flash = T(\'plugin "%(plugin)s" deleted\',\n                              dict(plugin=plugin))\n        except Exception:\n            session.flash = T(\'unable to delete file plugin "%(plugin)s"\',\n                              dict(plugin=plugin))\n        redirect(URL(\'design\',args=request.args(0)))\n    return dict(plugin=plugin)\n\ndef plugin():\n    """ Application design handler """\n    app = get_app()\n    plugin = request.args(1)\n\n    if not response.flash and app == request.application:\n        msg = T(\'ATTENTION: you cannot edit the running application!\')\n        response.flash = msg\n\n    # If we have only pyc files it means that\n    # we cannot design\n    if os.path.exists(apath(\'%s/compiled\' % app, r=request)):\n        session.flash = \\\n            T(\'application is compiled and cannot be designed\')\n        redirect(URL(\'site\'))\n\n    # Get all models\n    models = listdir(apath(\'%s/models/\' % app, r=request), \'.*\\.py$\')\n    models=[x.replace(\'\\\\\',\'/\') for x in models]\n    defines = {}\n    for m in models:\n        data = safe_read(apath(\'%s/models/%s\' % (app, m), r=request))\n        defines[m] = regex_tables.findall(data)\n        defines[m].sort()\n\n    # Get all controllers\n    controllers = sorted(listdir(apath(\'%s/controllers/\' % app, r=request), \'.*\\.py$\'))\n    controllers = [x.replace(\'\\\\\',\'/\') for x in controllers]\n    functions = {}\n    for c in controllers:\n        data = safe_read(apath(\'%s/controllers/%s\' % (app, c), r=request))\n        items = regex_expose.findall(data)\n        functions[c] = items\n\n    # Get all views\n    views = sorted(listdir(apath(\'%s/views/\' % app, r=request), \'[\\w/\\-]+\\.\\w+$\'))\n    views = [x.replace(\'\\\\\',\'/\') for x in views]\n    extend = {}\n    include = {}\n    for c in views:\n        data = safe_read(apath(\'%s/views/%s\' % (app, c), r=request))\n        items = regex_extend.findall(data)\n        if items:\n            extend[c] = items[0][1]\n\n        items = regex_include.findall(data)\n        include[c] = [i[1] for i in items]\n\n    # Get all modules\n    modules = listdir(apath(\'%s/modules/\' % app, r=request), \'.*\\.py$\')\n    modules = modules=[x.replace(\'\\\\\',\'/\') for x in modules]\n    modules.sort()\n\n    # Get all static files\n    statics = listdir(apath(\'%s/static/\' % app, r=request), \'[^\\.#].*\')\n    statics = [x.replace(\'\\\\\',\'/\') for x in statics]\n    statics.sort()\n\n    # Get all languages\n    languages = listdir(apath(\'%s/languages/\' % app, r=request), \'[\\w-]*\\.py\')\n\n    #Get crontab\n    crontab = apath(\'%s/cron/crontab\' % app, r=request)\n    if not os.path.exists(crontab):\n        safe_write(crontab, \'#crontab\')\n\n    def filter_plugins(items):\n        regex=re.compile(\'^plugin_\'+plugin+\'(/.*|\\..*)?$\')\n        return [item for item in items if regex.match(item)]\n\n    return dict(app=app,\n                models=filter_plugins(models),\n                defines=defines,\n                controllers=filter_plugins(controllers),\n                functions=functions,\n                views=filter_plugins(views),\n                modules=filter_plugins(modules),\n                extend=extend,\n                include=include,\n                statics=filter_plugins(statics),\n                languages=languages,\n                crontab=crontab)\n\n\ndef create_file():\n    """ Create files handler """\n    try:\n        app = get_app(name=request.vars.location.split(\'/\')[0])\n        path = apath(request.vars.location, r=request)\n        filename = re.sub(\'[^\\w./-]+\', \'_\', request.vars.filename)\n\n        if path[-11:] == \'/languages/\':\n            # Handle language files\n            if len(filename) == 0:\n                raise SyntaxError\n            if not filename[-3:] == \'.py\':\n                filename += \'.py\'\n            app = path.split(\'/\')[-3]\n            path=os.path.join(apath(app, r=request),\'languages\',filename)\n            if not os.path.exists(path):\n                safe_write(path, \'\')\n            findT(apath(app, r=request), filename[:-3])\n            session.flash = T(\'language file "%(filename)s" created/updated\',\n                              dict(filename=filename))\n            redirect(request.vars.sender)\n\n        elif path[-8:] == \'/models/\':\n            # Handle python models\n            if not filename[-3:] == \'.py\':\n                filename += \'.py\'\n\n            if len(filename) == 3:\n                raise SyntaxError\n\n            text = \'# coding: utf8\\n\'\n\n        elif path[-13:] == \'/controllers/\':\n            # Handle python controllers\n            if not filename[-3:] == \'.py\':\n                filename += \'.py\'\n\n            if len(filename) == 3:\n                raise SyntaxError\n\n            text = \'# coding: utf8\\n# %s\\ndef index(): return dict(message="hello from %s")\'\n            text = text % (T(\'try something like\'), filename)\n\n        elif path[-7:] == \'/views/\':\n            if request.vars.plugin and not filename.startswith(\'plugin_%s/\' % request.vars.plugin):\n                filename = \'plugin_%s/%s\' % (request.vars.plugin, filename)\n            # Handle template (html) views\n            if filename.find(\'.\')<0:\n                filename += \'.html\'\n            extension = filename.split(\'.\')[-1].lower()\n\n            if len(filename) == 5:\n                raise SyntaxError\n\n            msg = T(\'This is the %(filename)s template\',\n                    dict(filename=filename))            \n            if extension == \'html\':\n                text = dedent("""\n                   {{extend \'layout.html\'}}\n                   <h1>%s</h1>\n                   {{=BEAUTIFY(response._vars)}}""" % msg)\n            else:\n                generic = os.path.join(path,\'generic.\'+extension)\n                if os.path.exists(generic):\n                    text = read_file(generic)\n                else:\n                    text = \'\'\n                \n        elif path[-9:] == \'/modules/\':\n            if request.vars.plugin and not filename.startswith(\'plugin_%s/\' % request.vars.plugin):\n                filename = \'plugin_%s/%s\' % (request.vars.plugin, filename)\n            # Handle python module files\n            if not filename[-3:] == \'.py\':\n                filename += \'.py\'\n\n            if len(filename) == 3:\n                raise SyntaxError\n\n            text = dedent("""\n                   #!/usr/bin/env python\n                   # coding: utf8\n                   from gluon import *\\n""")\n\n        elif path[-8:] == \'/static/\':\n            if request.vars.plugin and not filename.startswith(\'plugin_%s/\' % request.vars.plugin):\n                filename = \'plugin_%s/%s\' % (request.vars.plugin, filename)\n            text = \'\'\n        else:\n            redirect(request.vars.sender)\n\n        full_filename = os.path.join(path, filename)\n        dirpath = os.path.dirname(full_filename)\n\n        if not os.path.exists(dirpath):\n            os.makedirs(dirpath)\n\n        if os.path.exists(full_filename):\n            raise SyntaxError\n\n        safe_write(full_filename, text)\n        session.flash = T(\'file "%(filename)s" created\',\n                          dict(filename=full_filename[len(path):]))\n        redirect(URL(\'edit\',\n                 args=[os.path.join(request.vars.location, filename)]))\n    except Exception, e:\n        if not isinstance(e,HTTP):\n            session.flash = T(\'cannot create file\')\n\n    redirect(request.vars.sender)\n\n\ndef upload_file():\n    """ File uploading handler """\n\n    try:\n        filename = None\n        app = get_app(name=request.vars.location.split(\'/\')[0])\n        path = apath(request.vars.location, r=request)\n\n        if request.vars.filename:\n            filename = re.sub(\'[^\\w\\./]+\', \'_\', request.vars.filename)\n        else:\n            filename = os.path.split(request.vars.file.filename)[-1]\n\n        if path[-8:] == \'/models/\' and not filename[-3:] == \'.py\':\n            filename += \'.py\'\n\n        if path[-9:] == \'/modules/\' and not filename[-3:] == \'.py\':\n            filename += \'.py\'\n\n        if path[-13:] == \'/controllers/\' and not filename[-3:] == \'.py\':\n            filename += \'.py\'\n\n        if path[-7:] == \'/views/\' and not filename[-5:] == \'.html\':\n            filename += \'.html\'\n\n        if path[-11:] == \'/languages/\' and not filename[-3:] == \'.py\':\n            filename += \'.py\'\n\n        filename = os.path.join(path, filename)\n        dirpath = os.path.dirname(filename)\n\n        if not os.path.exists(dirpath):\n            os.makedirs(dirpath)\n\n        safe_write(filename, request.vars.file.file.read(), \'wb\')\n        session.flash = T(\'file "%(filename)s" uploaded\',\n                          dict(filename=filename[len(path):]))\n    except Exception:\n        if filename:\n            d = dict(filename = filename[len(path):])\n        else:\n            d = dict(filename = \'unkown\')\n        session.flash = T(\'cannot upload file "%(filename)s"\', d)\n\n    redirect(request.vars.sender)\n\n\ndef errors():\n    """ Error handler """\n    import operator\n    import os\n    import pickle\n    import hashlib\n\n    app = get_app()\n\n    method = request.args(1) or \'new\'\n\n\n    if method == \'new\':\n        errors_path = apath(\'%s/errors\' % app, r=request)\n\n        delete_hashes = []\n        for item in request.vars:\n            if item[:7] == \'delete_\':\n                delete_hashes.append(item[7:])\n\n        hash2error = dict()\n\n        for fn in listdir(errors_path, \'^\\w.*\'):\n            fullpath = os.path.join(errors_path, fn)\n            if not os.path.isfile(fullpath): continue\n            try:\n                fullpath_file = open(fullpath, \'r\')\n                try:\n                    error = pickle.load(fullpath_file)\n                finally:\n                    fullpath_file.close()\n            except IOError:\n                continue\n\n            hash = hashlib.md5(error[\'traceback\']).hexdigest()\n\n            if hash in delete_hashes:\n                os.unlink(fullpath)\n            else:\n                try:\n                    hash2error[hash][\'count\'] += 1\n                except KeyError:\n                    error_lines = error[\'traceback\'].split("\\n")\n                    last_line = error_lines[-2]\n                    error_causer = os.path.split(error[\'layer\'])[1]\n                    hash2error[hash] = dict(count=1, pickel=error,\n                                            causer=error_causer,\n                                            last_line=last_line,\n                                            hash=hash,ticket=fn)\n\n        decorated = [(x[\'count\'], x) for x in hash2error.values()]\n        decorated.sort(key=operator.itemgetter(0), reverse=True)\n\n        return dict(errors = [x[1] for x in decorated], app=app, method=method)\n    else:\n        for item in request.vars:\n            if item[:7] == \'delete_\':\n                os.unlink(apath(\'%s/errors/%s\' % (app, item[7:]), r=request))\n        func = lambda p: os.stat(apath(\'%s/errors/%s\' % \\\n                                           (app, p), r=request)).st_mtime\n        tickets = sorted(listdir(apath(\'%s/errors/\' % app, r=request), \'^\\w.*\'),\n                         key=func,\n                         reverse=True)\n\n        return dict(app=app, tickets=tickets, method=method)\n\n\ndef make_link(path):\n    """ Create a link from a path """\n    tryFile = path.replace(\'\\\\\', \'/\')\n\n    if os.path.isabs(tryFile) and os.path.isfile(tryFile):\n        (folder, filename) = os.path.split(tryFile)\n        (base, ext) = os.path.splitext(filename)\n        app = get_app()\n\n        editable = {\'controllers\': \'.py\', \'models\': \'.py\', \'views\': \'.html\'}\n        for key in editable.keys():\n            check_extension = folder.endswith("%s/%s" % (app,key))\n            if ext.lower() == editable[key] and check_extension:\n                return A(\'"\' + tryFile + \'"\',\n                         _href=URL(r=request,\n                         f=\'edit/%s/%s/%s\' % (app, key, filename))).xml()\n    return \'\'\n\n\ndef make_links(traceback):\n    """ Make links using the given traceback """\n\n    lwords = traceback.split(\'"\')\n\n    # Making the short circuit compatible with <= python2.4\n    result = (len(lwords) != 0) and lwords[0] or \'\'\n\n    i = 1\n\n    while i < len(lwords):\n        link = make_link(lwords[i])\n\n        if link == \'\':\n            result += \'"\' + lwords[i]\n        else:\n            result += link\n\n            if i + 1 < len(lwords):\n                result += lwords[i + 1]\n                i = i + 1\n\n        i = i + 1\n\n    return result\n\n\nclass TRACEBACK(object):\n    """ Generate the traceback """\n\n    def __init__(self, text):\n        """ TRACEBACK constructor """\n\n        self.s = make_links(CODE(text).xml())\n\n    def xml(self):\n        """ Returns the xml """\n\n        return self.s\n\n\ndef ticket():\n    """ Ticket handler """\n\n    if len(request.args) != 2:\n        session.flash = T(\'invalid ticket\')\n        redirect(URL(\'site\'))\n\n    app = get_app()\n    myversion = request.env.web2py_version\n    ticket = request.args[1]\n    e = RestrictedError()\n    e.load(request, app, ticket)\n\n    return dict(app=app,\n                ticket=ticket,\n                output=e.output,\n                traceback=(e.traceback and TRACEBACK(e.traceback)),\n                snapshot=e.snapshot,\n                code=e.code,\n                layer=e.layer,\n                myversion=myversion)\n\ndef error():\n    """ Generate a ticket (for testing) """\n    raise RuntimeError(\'admin ticket generator at your service\')\n\ndef update_languages():\n    """ Update available languages """\n\n    app = get_app()\n    update_all_languages(apath(app, r=request))\n    session.flash = T(\'Language files (static strings) updated\')\n    redirect(URL(\'design\',args=app,anchor=\'languages\'))\n\ndef twitter():\n    session.forget()\n    session._unlock(response)\n    import gluon.tools\n    import gluon.contrib.simplejson as sj\n    try:\n        if TWITTER_HASH:\n            page = gluon.tools.fetch(\'http://twitter.com/%s?format=json\'%TWITTER_HASH)\n            return sj.loads(page)[\'#timeline\']\n        else:\n            return \'disabled\'\n    except Exception, e:\n        return DIV(T(\'Unable to download because:\'),BR(),str(e))\n\ndef user():\n    if MULTI_USER_MODE:\n        if not db(db.auth_user).count():\n            auth.settings.registration_requires_approval = False            \n        return dict(form=auth())\n    else:\n        return dict(form=T("Disabled"))\n\ndef reload_routes():\n    """ Reload routes.py """\n    import gluon.rewrite\n    gluon.rewrite.load()\n    redirect(URL(\'site\'))\n\nresponse._vars=response._caller(check_version)\n'
p6
sS'snapshot'
p7
(dp8
S'exception'
p9
(dp10
S'__hash__'
p11
S"<method-wrapper '__hash__' of exceptions.TypeError object at 0x03F75148>"
p12
sS'__setattr__'
p13
S"<method-wrapper '__setattr__' of exceptions.TypeError object at 0x03F75148>"
p14
sS'__reduce_ex__'
p15
S'<built-in method __reduce_ex__ of exceptions.TypeError object at 0x03F75148>'
p16
sS'__getslice__'
p17
S"<method-wrapper '__getslice__' of exceptions.TypeError object at 0x03F75148>"
p18
sS'__getitem__'
p19
S"<method-wrapper '__getitem__' of exceptions.TypeError object at 0x03F75148>"
p20
sS'__setstate__'
p21
S'<built-in method __setstate__ of exceptions.TypeError object at 0x03F75148>'
p22
sS'__reduce__'
p23
S'<built-in method __reduce__ of exceptions.TypeError object at 0x03F75148>'
p24
sS'__str__'
p25
S"<method-wrapper '__str__' of exceptions.TypeError object at 0x03F75148>"
p26
sS'args'
p27
S"('not all arguments converted during string formatting',)"
p28
sS'__getattribute__'
p29
S"<method-wrapper '__getattribute__' of exceptions.TypeError object at 0x03F75148>"
p30
sS'__class__'
p31
S"<type 'exceptions.TypeError'>"
p32
sS'__delattr__'
p33
S"<method-wrapper '__delattr__' of exceptions.TypeError object at 0x03F75148>"
p34
sS'__repr__'
p35
S"<method-wrapper '__repr__' of exceptions.TypeError object at 0x03F75148>"
p36
sS'__dict__'
p37
S'{}'
p38
sS'__doc__'
p39
S"'Inappropriate argument type.'"
p40
sS'__init__'
p41
S"<method-wrapper '__init__' of exceptions.TypeError object at 0x03F75148>"
p42
sS'__new__'
p43
S'<built-in method __new__ of type object at 0x1E1CCD78>'
p44
ssS'evalue'
p45
S'not all arguments converted during string formatting'
p46
sS'request'
p47
ccopy_reg
_reconstructor
p48
(cgluon.html
BEAUTIFY
p49
c__builtin__
object
p50
NtRp51
(dp52
S'attributes'
p53
(dp54
sS'components'
p55
(lp56
g48
(cgluon.html
TABLE
p57
g50
NtRp58
(dp59
g53
(dp60
S'level'
p61
I5
ssS'parent'
p62
Nsg55
(lp63
g48
(cgluon.html
TR
p64
g50
NtRp65
(dp66
g53
(dp67
sg62
g58
sg55
(lp68
g48
(cgluon.html
TD
p69
g50
NtRp70
(dp71
g53
(dp72
S'_style'
p73
S'font-weight:bold;'
p74
ssg62
g65
sg55
(lp75
S'ajax'
p76
asbag48
(g69
g50
NtRp77
(dp78
g53
(dp79
S'_valign'
p80
S'top'
p81
ssg62
g65
sg55
(lp82
S':'
asbag48
(g69
g50
NtRp83
(dp84
g53
(dp85
sg62
g65
sg55
(lp86
g48
(g49
g50
NtRp87
(dp88
g53
(dp89
g61
I5
ssg62
g83
sg55
(lp90
S'True'
p91
asbasbasbag48
(g64
g50
NtRp92
(dp93
g53
(dp94
sg62
g58
sg55
(lp95
g48
(g69
g50
NtRp96
(dp97
g53
(dp98
g73
g74
ssg62
g92
sg55
(lp99
S'application'
p100
asbag48
(g69
g50
NtRp101
(dp102
g53
(dp103
g80
g81
ssg62
g92
sg55
(lp104
S':'
asbag48
(g69
g50
NtRp105
(dp106
g53
(dp107
sg62
g92
sg55
(lp108
g48
(g49
g50
NtRp109
(dp110
g53
(dp111
g61
I5
ssg62
g105
sg55
(lp112
S'admin'
p113
asbasbasbag48
(g64
g50
NtRp114
(dp115
g53
(dp116
sg62
g58
sg55
(lp117
g48
(g69
g50
NtRp118
(dp119
g53
(dp120
g73
g74
ssg62
g114
sg55
(lp121
g27
asbag48
(g69
g50
NtRp122
(dp123
g53
(dp124
g80
g81
ssg62
g114
sg55
(lp125
S':'
asbag48
(g69
g50
NtRp126
(dp127
g53
(dp128
sg62
g114
sg55
(lp129
g48
(g49
g50
NtRp130
(dp131
g53
(dp132
g61
I5
ssg62
g126
sg55
(lp133
g48
(g57
g50
NtRp134
(dp135
g53
(dp136
g61
I4
ssg62
Nsg55
(lp137
sbasbasbasbag48
(g64
g50
NtRp138
(dp139
g53
(dp140
sg62
g58
sg55
(lp141
g48
(g69
g50
NtRp142
(dp143
g53
(dp144
g73
g74
ssg62
g138
sg55
(lp145
S'body'
p146
asbag48
(g69
g50
NtRp147
(dp148
g53
(dp149
g80
g81
ssg62
g138
sg55
(lp150
S':'
asbag48
(g69
g50
NtRp151
(dp152
g53
(dp153
sg62
g138
sg55
(lp154
g48
(g49
g50
NtRp155
(dp156
g53
(dp157
g61
I5
ssg62
g151
sg55
(lp158
S"<open file '<fdopen>', mode 'w+b' at 0x096BEE30>"
p159
asbasbasbag48
(g64
g50
NtRp160
(dp161
g53
(dp162
sg62
g58
sg55
(lp163
g48
(g69
g50
NtRp164
(dp165
g53
(dp166
g73
g74
ssg62
g160
sg55
(lp167
S'client'
p168
asbag48
(g69
g50
NtRp169
(dp170
g53
(dp171
g80
g81
ssg62
g160
sg55
(lp172
S':'
asbag48
(g69
g50
NtRp173
(dp174
g53
(dp175
sg62
g160
sg55
(lp176
g48
(g49
g50
NtRp177
(dp178
g53
(dp179
g61
I5
ssg62
g173
sg55
(lp180
S'127.0.0.1'
p181
asbasbasbag48
(g64
g50
NtRp182
(dp183
g53
(dp184
sg62
g58
sg55
(lp185
g48
(g69
g50
NtRp186
(dp187
g53
(dp188
g73
g74
ssg62
g182
sg55
(lp189
S'controller'
p190
asbag48
(g69
g50
NtRp191
(dp192
g53
(dp193
g80
g81
ssg62
g182
sg55
(lp194
S':'
asbag48
(g69
g50
NtRp195
(dp196
g53
(dp197
sg62
g182
sg55
(lp198
g48
(g49
g50
NtRp199
(dp200
g53
(dp201
g61
I5
ssg62
g195
sg55
(lp202
S'default'
p203
asbasbasbag48
(g64
g50
NtRp204
(dp205
g53
(dp206
sg62
g58
sg55
(lp207
g48
(g69
g50
NtRp208
(dp209
g53
(dp210
g73
g74
ssg62
g204
sg55
(lp211
S'cookies'
p212
asbag48
(g69
g50
NtRp213
(dp214
g53
(dp215
g80
g81
ssg62
g204
sg55
(lp216
S':'
asbag48
(g69
g50
NtRp217
(dp218
g53
(dp219
sg62
g204
sg55
(lp220
g48
(g49
g50
NtRp221
(dp222
g53
(dp223
g61
I5
ssg62
g217
sg55
(lp224
g48
(g57
g50
NtRp225
(dp226
g53
(dp227
g61
I4
ssg62
Nsg55
(lp228
g48
(g64
g50
NtRp229
(dp230
g53
(dp231
sg62
g225
sg55
(lp232
g48
(g69
g50
NtRp233
(dp234
g53
(dp235
g73
g74
ssg62
g229
sg55
(lp236
S'session_id_admin'
p237
asbag48
(g69
g50
NtRp238
(dp239
g53
(dp240
g80
g81
ssg62
g229
sg55
(lp241
S':'
asbag48
(g69
g50
NtRp242
(dp243
g53
(dp244
sg62
g229
sg55
(lp245
g48
(g49
g50
NtRp246
(dp247
g53
(dp248
g61
I4
ssg62
g242
sg55
(lp249
g48
(g57
g50
NtRp250
(dp251
g53
(dp252
g61
I3
ssg62
Nsg55
(lp253
g48
(g64
g50
NtRp254
(dp255
g53
(dp256
sg62
g250
sg55
(lp257
g48
(g69
g50
NtRp258
(dp259
g53
(dp260
g73
g74
ssg62
g254
sg55
(lp261
S'comment'
p262
asbag48
(g69
g50
NtRp263
(dp264
g53
(dp265
g80
g81
ssg62
g254
sg55
(lp266
S':'
asbag48
(g69
g50
NtRp267
(dp268
g53
(dp269
sg62
g254
sg55
(lp270
g48
(g49
g50
NtRp271
(dp272
g53
(dp273
g61
I3
ssg62
g267
sg55
(lp274
S''
asbasbasbag48
(g64
g50
NtRp275
(dp276
g53
(dp277
sg62
g250
sg55
(lp278
g48
(g69
g50
NtRp279
(dp280
g53
(dp281
g73
g74
ssg62
g275
sg55
(lp282
S'domain'
p283
asbag48
(g69
g50
NtRp284
(dp285
g53
(dp286
g80
g81
ssg62
g275
sg55
(lp287
S':'
asbag48
(g69
g50
NtRp288
(dp289
g53
(dp290
sg62
g275
sg55
(lp291
g48
(g49
g50
NtRp292
(dp293
g53
(dp294
g61
I3
ssg62
g288
sg55
(lp295
S''
asbasbasbag48
(g64
g50
NtRp296
(dp297
g53
(dp298
sg62
g250
sg55
(lp299
g48
(g69
g50
NtRp300
(dp301
g53
(dp302
g73
g74
ssg62
g296
sg55
(lp303
S'expires'
p304
asbag48
(g69
g50
NtRp305
(dp306
g53
(dp307
g80
g81
ssg62
g296
sg55
(lp308
S':'
asbag48
(g69
g50
NtRp309
(dp310
g53
(dp311
sg62
g296
sg55
(lp312
g48
(g49
g50
NtRp313
(dp314
g53
(dp315
g61
I3
ssg62
g309
sg55
(lp316
S''
asbasbasbag48
(g64
g50
NtRp317
(dp318
g53
(dp319
sg62
g250
sg55
(lp320
g48
(g69
g50
NtRp321
(dp322
g53
(dp323
g73
g74
ssg62
g317
sg55
(lp324
S'max-age'
p325
asbag48
(g69
g50
NtRp326
(dp327
g53
(dp328
g80
g81
ssg62
g317
sg55
(lp329
S':'
asbag48
(g69
g50
NtRp330
(dp331
g53
(dp332
sg62
g317
sg55
(lp333
g48
(g49
g50
NtRp334
(dp335
g53
(dp336
g61
I3
ssg62
g330
sg55
(lp337
S''
asbasbasbag48
(g64
g50
NtRp338
(dp339
g53
(dp340
sg62
g250
sg55
(lp341
g48
(g69
g50
NtRp342
(dp343
g53
(dp344
g73
g74
ssg62
g338
sg55
(lp345
S'path'
p346
asbag48
(g69
g50
NtRp347
(dp348
g53
(dp349
g80
g81
ssg62
g338
sg55
(lp350
S':'
asbag48
(g69
g50
NtRp351
(dp352
g53
(dp353
sg62
g338
sg55
(lp354
g48
(g49
g50
NtRp355
(dp356
g53
(dp357
g61
I3
ssg62
g351
sg55
(lp358
S''
asbasbasbag48
(g64
g50
NtRp359
(dp360
g53
(dp361
sg62
g250
sg55
(lp362
g48
(g69
g50
NtRp363
(dp364
g53
(dp365
g73
g74
ssg62
g359
sg55
(lp366
S'secure'
p367
asbag48
(g69
g50
NtRp368
(dp369
g53
(dp370
g80
g81
ssg62
g359
sg55
(lp371
S':'
asbag48
(g69
g50
NtRp372
(dp373
g53
(dp374
sg62
g359
sg55
(lp375
g48
(g49
g50
NtRp376
(dp377
g53
(dp378
g61
I3
ssg62
g372
sg55
(lp379
S''
asbasbasbag48
(g64
g50
NtRp380
(dp381
g53
(dp382
sg62
g250
sg55
(lp383
g48
(g69
g50
NtRp384
(dp385
g53
(dp386
g73
g74
ssg62
g380
sg55
(lp387
S'version'
p388
asbag48
(g69
g50
NtRp389
(dp390
g53
(dp391
g80
g81
ssg62
g380
sg55
(lp392
S':'
asbag48
(g69
g50
NtRp393
(dp394
g53
(dp395
sg62
g380
sg55
(lp396
g48
(g49
g50
NtRp397
(dp398
g53
(dp399
g61
I3
ssg62
g393
sg55
(lp400
S''
asbasbasbasbasbasbasbag48
(g64
g50
NtRp401
(dp402
g53
(dp403
sg62
g225
sg55
(lp404
g48
(g69
g50
NtRp405
(dp406
g53
(dp407
g73
g74
ssg62
g401
sg55
(lp408
S'session_id_ojtest'
p409
asbag48
(g69
g50
NtRp410
(dp411
g53
(dp412
g80
g81
ssg62
g401
sg55
(lp413
S':'
asbag48
(g69
g50
NtRp414
(dp415
g53
(dp416
sg62
g401
sg55
(lp417
g48
(g49
g50
NtRp418
(dp419
g53
(dp420
g61
I4
ssg62
g414
sg55
(lp421
g48
(g57
g50
NtRp422
(dp423
g53
(dp424
g61
I3
ssg62
Nsg55
(lp425
g48
(g64
g50
NtRp426
(dp427
g53
(dp428
sg62
g422
sg55
(lp429
g48
(g69
g50
NtRp430
(dp431
g53
(dp432
g73
g74
ssg62
g426
sg55
(lp433
g262
asbag48
(g69
g50
NtRp434
(dp435
g53
(dp436
g80
g81
ssg62
g426
sg55
(lp437
S':'
asbag48
(g69
g50
NtRp438
(dp439
g53
(dp440
sg62
g426
sg55
(lp441
g48
(g49
g50
NtRp442
(dp443
g53
(dp444
g61
I3
ssg62
g438
sg55
(lp445
S''
asbasbasbag48
(g64
g50
NtRp446
(dp447
g53
(dp448
sg62
g422
sg55
(lp449
g48
(g69
g50
NtRp450
(dp451
g53
(dp452
g73
g74
ssg62
g446
sg55
(lp453
g283
asbag48
(g69
g50
NtRp454
(dp455
g53
(dp456
g80
g81
ssg62
g446
sg55
(lp457
S':'
asbag48
(g69
g50
NtRp458
(dp459
g53
(dp460
sg62
g446
sg55
(lp461
g48
(g49
g50
NtRp462
(dp463
g53
(dp464
g61
I3
ssg62
g458
sg55
(lp465
S''
asbasbasbag48
(g64
g50
NtRp466
(dp467
g53
(dp468
sg62
g422
sg55
(lp469
g48
(g69
g50
NtRp470
(dp471
g53
(dp472
g73
g74
ssg62
g466
sg55
(lp473
g304
asbag48
(g69
g50
NtRp474
(dp475
g53
(dp476
g80
g81
ssg62
g466
sg55
(lp477
S':'
asbag48
(g69
g50
NtRp478
(dp479
g53
(dp480
sg62
g466
sg55
(lp481
g48
(g49
g50
NtRp482
(dp483
g53
(dp484
g61
I3
ssg62
g478
sg55
(lp485
S''
asbasbasbag48
(g64
g50
NtRp486
(dp487
g53
(dp488
sg62
g422
sg55
(lp489
g48
(g69
g50
NtRp490
(dp491
g53
(dp492
g73
g74
ssg62
g486
sg55
(lp493
g325
asbag48
(g69
g50
NtRp494
(dp495
g53
(dp496
g80
g81
ssg62
g486
sg55
(lp497
S':'
asbag48
(g69
g50
NtRp498
(dp499
g53
(dp500
sg62
g486
sg55
(lp501
g48
(g49
g50
NtRp502
(dp503
g53
(dp504
g61
I3
ssg62
g498
sg55
(lp505
S''
asbasbasbag48
(g64
g50
NtRp506
(dp507
g53
(dp508
sg62
g422
sg55
(lp509
g48
(g69
g50
NtRp510
(dp511
g53
(dp512
g73
g74
ssg62
g506
sg55
(lp513
g346
asbag48
(g69
g50
NtRp514
(dp515
g53
(dp516
g80
g81
ssg62
g506
sg55
(lp517
S':'
asbag48
(g69
g50
NtRp518
(dp519
g53
(dp520
sg62
g506
sg55
(lp521
g48
(g49
g50
NtRp522
(dp523
g53
(dp524
g61
I3
ssg62
g518
sg55
(lp525
S''
asbasbasbag48
(g64
g50
NtRp526
(dp527
g53
(dp528
sg62
g422
sg55
(lp529
g48
(g69
g50
NtRp530
(dp531
g53
(dp532
g73
g74
ssg62
g526
sg55
(lp533
g367
asbag48
(g69
g50
NtRp534
(dp535
g53
(dp536
g80
g81
ssg62
g526
sg55
(lp537
S':'
asbag48
(g69
g50
NtRp538
(dp539
g53
(dp540
sg62
g526
sg55
(lp541
g48
(g49
g50
NtRp542
(dp543
g53
(dp544
g61
I3
ssg62
g538
sg55
(lp545
S''
asbasbasbag48
(g64
g50
NtRp546
(dp547
g53
(dp548
sg62
g422
sg55
(lp549
g48
(g69
g50
NtRp550
(dp551
g53
(dp552
g73
g74
ssg62
g546
sg55
(lp553
g388
asbag48
(g69
g50
NtRp554
(dp555
g53
(dp556
g80
g81
ssg62
g546
sg55
(lp557
S':'
asbag48
(g69
g50
NtRp558
(dp559
g53
(dp560
sg62
g546
sg55
(lp561
g48
(g49
g50
NtRp562
(dp563
g53
(dp564
g61
I3
ssg62
g558
sg55
(lp565
S''
asbasbasbasbasbasbasbag48
(g64
g50
NtRp566
(dp567
g53
(dp568
sg62
g225
sg55
(lp569
g48
(g69
g50
NtRp570
(dp571
g53
(dp572
g73
g74
ssg62
g566
sg55
(lp573
S'session_id_ojtest_james'
p574
asbag48
(g69
g50
NtRp575
(dp576
g53
(dp577
g80
g81
ssg62
g566
sg55
(lp578
S':'
asbag48
(g69
g50
NtRp579
(dp580
g53
(dp581
sg62
g566
sg55
(lp582
g48
(g49
g50
NtRp583
(dp584
g53
(dp585
g61
I4
ssg62
g579
sg55
(lp586
g48
(g57
g50
NtRp587
(dp588
g53
(dp589
g61
I3
ssg62
Nsg55
(lp590
g48
(g64
g50
NtRp591
(dp592
g53
(dp593
sg62
g587
sg55
(lp594
g48
(g69
g50
NtRp595
(dp596
g53
(dp597
g73
g74
ssg62
g591
sg55
(lp598
g262
asbag48
(g69
g50
NtRp599
(dp600
g53
(dp601
g80
g81
ssg62
g591
sg55
(lp602
S':'
asbag48
(g69
g50
NtRp603
(dp604
g53
(dp605
sg62
g591
sg55
(lp606
g48
(g49
g50
NtRp607
(dp608
g53
(dp609
g61
I3
ssg62
g603
sg55
(lp610
S''
asbasbasbag48
(g64
g50
NtRp611
(dp612
g53
(dp613
sg62
g587
sg55
(lp614
g48
(g69
g50
NtRp615
(dp616
g53
(dp617
g73
g74
ssg62
g611
sg55
(lp618
g283
asbag48
(g69
g50
NtRp619
(dp620
g53
(dp621
g80
g81
ssg62
g611
sg55
(lp622
S':'
asbag48
(g69
g50
NtRp623
(dp624
g53
(dp625
sg62
g611
sg55
(lp626
g48
(g49
g50
NtRp627
(dp628
g53
(dp629
g61
I3
ssg62
g623
sg55
(lp630
S''
asbasbasbag48
(g64
g50
NtRp631
(dp632
g53
(dp633
sg62
g587
sg55
(lp634
g48
(g69
g50
NtRp635
(dp636
g53
(dp637
g73
g74
ssg62
g631
sg55
(lp638
g304
asbag48
(g69
g50
NtRp639
(dp640
g53
(dp641
g80
g81
ssg62
g631
sg55
(lp642
S':'
asbag48
(g69
g50
NtRp643
(dp644
g53
(dp645
sg62
g631
sg55
(lp646
g48
(g49
g50
NtRp647
(dp648
g53
(dp649
g61
I3
ssg62
g643
sg55
(lp650
S''
asbasbasbag48
(g64
g50
NtRp651
(dp652
g53
(dp653
sg62
g587
sg55
(lp654
g48
(g69
g50
NtRp655
(dp656
g53
(dp657
g73
g74
ssg62
g651
sg55
(lp658
g325
asbag48
(g69
g50
NtRp659
(dp660
g53
(dp661
g80
g81
ssg62
g651
sg55
(lp662
S':'
asbag48
(g69
g50
NtRp663
(dp664
g53
(dp665
sg62
g651
sg55
(lp666
g48
(g49
g50
NtRp667
(dp668
g53
(dp669
g61
I3
ssg62
g663
sg55
(lp670
S''
asbasbasbag48
(g64
g50
NtRp671
(dp672
g53
(dp673
sg62
g587
sg55
(lp674
g48
(g69
g50
NtRp675
(dp676
g53
(dp677
g73
g74
ssg62
g671
sg55
(lp678
g346
asbag48
(g69
g50
NtRp679
(dp680
g53
(dp681
g80
g81
ssg62
g671
sg55
(lp682
S':'
asbag48
(g69
g50
NtRp683
(dp684
g53
(dp685
sg62
g671
sg55
(lp686
g48
(g49
g50
NtRp687
(dp688
g53
(dp689
g61
I3
ssg62
g683
sg55
(lp690
S''
asbasbasbag48
(g64
g50
NtRp691
(dp692
g53
(dp693
sg62
g587
sg55
(lp694
g48
(g69
g50
NtRp695
(dp696
g53
(dp697
g73
g74
ssg62
g691
sg55
(lp698
g367
asbag48
(g69
g50
NtRp699
(dp700
g53
(dp701
g80
g81
ssg62
g691
sg55
(lp702
S':'
asbag48
(g69
g50
NtRp703
(dp704
g53
(dp705
sg62
g691
sg55
(lp706
g48
(g49
g50
NtRp707
(dp708
g53
(dp709
g61
I3
ssg62
g703
sg55
(lp710
S''
asbasbasbag48
(g64
g50
NtRp711
(dp712
g53
(dp713
sg62
g587
sg55
(lp714
g48
(g69
g50
NtRp715
(dp716
g53
(dp717
g73
g74
ssg62
g711
sg55
(lp718
g388
asbag48
(g69
g50
NtRp719
(dp720
g53
(dp721
g80
g81
ssg62
g711
sg55
(lp722
S':'
asbag48
(g69
g50
NtRp723
(dp724
g53
(dp725
sg62
g711
sg55
(lp726
g48
(g49
g50
NtRp727
(dp728
g53
(dp729
g61
I3
ssg62
g723
sg55
(lp730
S''
asbasbasbasbasbasbasbag48
(g64
g50
NtRp731
(dp732
g53
(dp733
sg62
g225
sg55
(lp734
g48
(g69
g50
NtRp735
(dp736
g53
(dp737
g73
g74
ssg62
g731
sg55
(lp738
S'session_id_ojtest_old'
p739
asbag48
(g69
g50
NtRp740
(dp741
g53
(dp742
g80
g81
ssg62
g731
sg55
(lp743
S':'
asbag48
(g69
g50
NtRp744
(dp745
g53
(dp746
sg62
g731
sg55
(lp747
g48
(g49
g50
NtRp748
(dp749
g53
(dp750
g61
I4
ssg62
g744
sg55
(lp751
g48
(g57
g50
NtRp752
(dp753
g53
(dp754
g61
I3
ssg62
Nsg55
(lp755
g48
(g64
g50
NtRp756
(dp757
g53
(dp758
sg62
g752
sg55
(lp759
g48
(g69
g50
NtRp760
(dp761
g53
(dp762
g73
g74
ssg62
g756
sg55
(lp763
g262
asbag48
(g69
g50
NtRp764
(dp765
g53
(dp766
g80
g81
ssg62
g756
sg55
(lp767
S':'
asbag48
(g69
g50
NtRp768
(dp769
g53
(dp770
sg62
g756
sg55
(lp771
g48
(g49
g50
NtRp772
(dp773
g53
(dp774
g61
I3
ssg62
g768
sg55
(lp775
S''
asbasbasbag48
(g64
g50
NtRp776
(dp777
g53
(dp778
sg62
g752
sg55
(lp779
g48
(g69
g50
NtRp780
(dp781
g53
(dp782
g73
g74
ssg62
g776
sg55
(lp783
g283
asbag48
(g69
g50
NtRp784
(dp785
g53
(dp786
g80
g81
ssg62
g776
sg55
(lp787
S':'
asbag48
(g69
g50
NtRp788
(dp789
g53
(dp790
sg62
g776
sg55
(lp791
g48
(g49
g50
NtRp792
(dp793
g53
(dp794
g61
I3
ssg62
g788
sg55
(lp795
S''
asbasbasbag48
(g64
g50
NtRp796
(dp797
g53
(dp798
sg62
g752
sg55
(lp799
g48
(g69
g50
NtRp800
(dp801
g53
(dp802
g73
g74
ssg62
g796
sg55
(lp803
g304
asbag48
(g69
g50
NtRp804
(dp805
g53
(dp806
g80
g81
ssg62
g796
sg55
(lp807
S':'
asbag48
(g69
g50
NtRp808
(dp809
g53
(dp810
sg62
g796
sg55
(lp811
g48
(g49
g50
NtRp812
(dp813
g53
(dp814
g61
I3
ssg62
g808
sg55
(lp815
S''
asbasbasbag48
(g64
g50
NtRp816
(dp817
g53
(dp818
sg62
g752
sg55
(lp819
g48
(g69
g50
NtRp820
(dp821
g53
(dp822
g73
g74
ssg62
g816
sg55
(lp823
g325
asbag48
(g69
g50
NtRp824
(dp825
g53
(dp826
g80
g81
ssg62
g816
sg55
(lp827
S':'
asbag48
(g69
g50
NtRp828
(dp829
g53
(dp830
sg62
g816
sg55
(lp831
g48
(g49
g50
NtRp832
(dp833
g53
(dp834
g61
I3
ssg62
g828
sg55
(lp835
S''
asbasbasbag48
(g64
g50
NtRp836
(dp837
g53
(dp838
sg62
g752
sg55
(lp839
g48
(g69
g50
NtRp840
(dp841
g53
(dp842
g73
g74
ssg62
g836
sg55
(lp843
g346
asbag48
(g69
g50
NtRp844
(dp845
g53
(dp846
g80
g81
ssg62
g836
sg55
(lp847
S':'
asbag48
(g69
g50
NtRp848
(dp849
g53
(dp850
sg62
g836
sg55
(lp851
g48
(g49
g50
NtRp852
(dp853
g53
(dp854
g61
I3
ssg62
g848
sg55
(lp855
S''
asbasbasbag48
(g64
g50
NtRp856
(dp857
g53
(dp858
sg62
g752
sg55
(lp859
g48
(g69
g50
NtRp860
(dp861
g53
(dp862
g73
g74
ssg62
g856
sg55
(lp863
g367
asbag48
(g69
g50
NtRp864
(dp865
g53
(dp866
g80
g81
ssg62
g856
sg55
(lp867
S':'
asbag48
(g69
g50
NtRp868
(dp869
g53
(dp870
sg62
g856
sg55
(lp871
g48
(g49
g50
NtRp872
(dp873
g53
(dp874
g61
I3
ssg62
g868
sg55
(lp875
S''
asbasbasbag48
(g64
g50
NtRp876
(dp877
g53
(dp878
sg62
g752
sg55
(lp879
g48
(g69
g50
NtRp880
(dp881
g53
(dp882
g73
g74
ssg62
g876
sg55
(lp883
g388
asbag48
(g69
g50
NtRp884
(dp885
g53
(dp886
g80
g81
ssg62
g876
sg55
(lp887
S':'
asbag48
(g69
g50
NtRp888
(dp889
g53
(dp890
sg62
g876
sg55
(lp891
g48
(g49
g50
NtRp892
(dp893
g53
(dp894
g61
I3
ssg62
g888
sg55
(lp895
S''
asbasbasbasbasbasbasbasbasbasbasbag48
(g64
g50
NtRp896
(dp897
g53
(dp898
sg62
g58
sg55
(lp899
g48
(g69
g50
NtRp900
(dp901
g53
(dp902
g73
g74
ssg62
g896
sg55
(lp903
S'env'
p904
asbag48
(g69
g50
NtRp905
(dp906
g53
(dp907
g80
g81
ssg62
g896
sg55
(lp908
S':'
asbag48
(g69
g50
NtRp909
(dp910
g53
(dp911
sg62
g896
sg55
(lp912
g48
(g49
g50
NtRp913
(dp914
g53
(dp915
g61
I5
ssg62
g909
sg55
(lp916
g48
(g57
g50
NtRp917
(dp918
g53
(dp919
g61
I4
ssg62
Nsg55
(lp920
g48
(g64
g50
NtRp921
(dp922
g53
(dp923
sg62
g917
sg55
(lp924
g48
(g69
g50
NtRp925
(dp926
g53
(dp927
g73
g74
ssg62
g921
sg55
(lp928
S'app_folders'
p929
asbag48
(g69
g50
NtRp930
(dp931
g53
(dp932
g80
g81
ssg62
g921
sg55
(lp933
S':'
asbag48
(g69
g50
NtRp934
(dp935
g53
(dp936
sg62
g921
sg55
(lp937
g48
(g49
g50
NtRp938
(dp939
g53
(dp940
g61
I4
ssg62
g934
sg55
(lp941
S"set(['D:\\\\Dropbox\\\\Eclipse\\\\OJDevSourceProject\\\\project\\\\web2py\\\\applications\\\\admin\\\\', 'D:\\\\Dropbox\\\\Eclipse\\\\OJDevSourceProject\\\\project\\\\web2py\\\\applications\\\\OJTest\\\\', 'D:\\\\Dropbox\\\\Eclipse\\\\OJDevSourceProject\\\\project\\\\web2py\\\\applications\\\\OJTest_james\\\\', 'D:\\\\Dropbox\\\\Eclipse\\\\OJDevSourceProject\\\\project\\\\web2py\\\\applications\\\\ojtest\\\\', 'D:\\\\Dropbox\\\\Eclipse\\\\OJDevSourceProject\\\\project\\\\web2py\\\\applications\\\\OJTest_old\\\\', 'D:\\\\Dropbox\\\\Eclipse\\\\OJDevSourceProject\\\\project\\\\web2py\\\\applications\\\\OJtest\\\\'])"
p942
asbasbasbag48
(g64
g50
NtRp943
(dp944
g53
(dp945
sg62
g917
sg55
(lp946
g48
(g69
g50
NtRp947
(dp948
g53
(dp949
g73
g74
ssg62
g943
sg55
(lp950
S'applications_parent'
p951
asbag48
(g69
g50
NtRp952
(dp953
g53
(dp954
g80
g81
ssg62
g943
sg55
(lp955
S':'
asbag48
(g69
g50
NtRp956
(dp957
g53
(dp958
sg62
g943
sg55
(lp959
g48
(g49
g50
NtRp960
(dp961
g53
(dp962
g61
I4
ssg62
g956
sg55
(lp963
S'D:\\Dropbox\\Eclipse\\OJDevSourceProject\\project\\web2py'
p964
asbasbasbag48
(g64
g50
NtRp965
(dp966
g53
(dp967
sg62
g917
sg55
(lp968
g48
(g69
g50
NtRp969
(dp970
g53
(dp971
g73
g74
ssg62
g965
sg55
(lp972
S'cmd_args'
p973
asbag48
(g69
g50
NtRp974
(dp975
g53
(dp976
g80
g81
ssg62
g965
sg55
(lp977
S':'
asbag48
(g69
g50
NtRp978
(dp979
g53
(dp980
sg62
g965
sg55
(lp981
g48
(g49
g50
NtRp982
(dp983
g53
(dp984
g61
I4
ssg62
g978
sg55
(lp985
g48
(g57
g50
NtRp986
(dp987
g53
(dp988
g61
I3
ssg62
Nsg55
(lp989
sbasbasbasbag48
(g64
g50
NtRp990
(dp991
g53
(dp992
sg62
g917
sg55
(lp993
g48
(g69
g50
NtRp994
(dp995
g53
(dp996
g73
g74
ssg62
g990
sg55
(lp997
S'cmd_options'
p998
asbag48
(g69
g50
NtRp999
(dp1000
g53
(dp1001
g80
g81
ssg62
g990
sg55
(lp1002
S':'
asbag48
(g69
g50
NtRp1003
(dp1004
g53
(dp1005
sg62
g990
sg55
(lp1006
g48
(g49
g50
NtRp1007
(dp1008
g53
(dp1009
g61
I4
ssg62
g1003
sg55
(lp1010
S"<Values at 0x3b94be8: {'verbose': False, 'ip': '127.0.0.1', 'shutdown_timeout': 5, 'taskbar': False, 'nocron': False, 'pid_filename': 'httpserver.pid', 'maxthreads': None, 'softcron': False, 'server_name': 'John-PC', 'bpython': False, 'nogui': False, 'port': 8000, 'extcron': False, 'debuglevel': 30, 'test': None, 'folder': 'D:\\\\Dropbox\\\\Eclipse\\\\OJDevSourceProject\\\\project\\\\web2py', 'config': '', 'import_models': False, 'winservice': '', 'shell': None, 'run': '', 'log_filename': 'httpserver.log', 'args': [''], 'ssl_ca_certificate': None, 'scheduler': None, 'profiler_filename': None, 'ssl_private_key': '', 'password': '<ask>', 'request_queue_size': 5, 'ssl_certificate': '', 'cronjob': False, 'plain': False, 'quiet': False, 'interfaces': None, 'minthreads': None, 'timeout': 10, 'numthreads': None, 'nobanner': False}>"
p1011
asbasbasbag48
(g64
g50
NtRp1012
(dp1013
g53
(dp1014
sg62
g917
sg55
(lp1015
g48
(g69
g50
NtRp1016
(dp1017
g53
(dp1018
g73
g74
ssg62
g1012
sg55
(lp1019
S'content_length'
p1020
asbag48
(g69
g50
NtRp1021
(dp1022
g53
(dp1023
g80
g81
ssg62
g1012
sg55
(lp1024
S':'
asbag48
(g69
g50
NtRp1025
(dp1026
g53
(dp1027
sg62
g1012
sg55
(lp1028
g48
(g49
g50
NtRp1029
(dp1030
g53
(dp1031
g61
I4
ssg62
g1025
sg55
(lp1032
S'0'
asbasbasbag48
(g64
g50
NtRp1033
(dp1034
g53
(dp1035
sg62
g917
sg55
(lp1036
g48
(g69
g50
NtRp1037
(dp1038
g53
(dp1039
g73
g74
ssg62
g1033
sg55
(lp1040
S'db_sessions'
p1041
asbag48
(g69
g50
NtRp1042
(dp1043
g53
(dp1044
g80
g81
ssg62
g1033
sg55
(lp1045
S':'
asbag48
(g69
g50
NtRp1046
(dp1047
g53
(dp1048
sg62
g1033
sg55
(lp1049
g48
(g49
g50
NtRp1050
(dp1051
g53
(dp1052
g61
I4
ssg62
g1046
sg55
(lp1053
S'set([])'
p1054
asbasbasbag48
(g64
g50
NtRp1055
(dp1056
g53
(dp1057
sg62
g917
sg55
(lp1058
g48
(g69
g50
NtRp1059
(dp1060
g53
(dp1061
g73
g74
ssg62
g1055
sg55
(lp1062
S'debugging'
p1063
asbag48
(g69
g50
NtRp1064
(dp1065
g53
(dp1066
g80
g81
ssg62
g1055
sg55
(lp1067
S':'
asbag48
(g69
g50
NtRp1068
(dp1069
g53
(dp1070
sg62
g1055
sg55
(lp1071
g48
(g49
g50
NtRp1072
(dp1073
g53
(dp1074
g61
I4
ssg62
g1068
sg55
(lp1075
S'False'
p1076
asbasbasbag48
(g64
g50
NtRp1077
(dp1078
g53
(dp1079
sg62
g917
sg55
(lp1080
g48
(g69
g50
NtRp1081
(dp1082
g53
(dp1083
g73
g74
ssg62
g1077
sg55
(lp1084
S'gluon_parent'
p1085
asbag48
(g69
g50
NtRp1086
(dp1087
g53
(dp1088
g80
g81
ssg62
g1077
sg55
(lp1089
S':'
asbag48
(g69
g50
NtRp1090
(dp1091
g53
(dp1092
sg62
g1077
sg55
(lp1093
g48
(g49
g50
NtRp1094
(dp1095
g53
(dp1096
g61
I4
ssg62
g1090
sg55
(lp1097
S'D:\\Dropbox\\Eclipse\\OJDevSourceProject\\project\\web2py'
p1098
asbasbasbag48
(g64
g50
NtRp1099
(dp1100
g53
(dp1101
sg62
g917
sg55
(lp1102
g48
(g69
g50
NtRp1103
(dp1104
g53
(dp1105
g73
g74
ssg62
g1099
sg55
(lp1106
S'http_accept'
p1107
asbag48
(g69
g50
NtRp1108
(dp1109
g53
(dp1110
g80
g81
ssg62
g1099
sg55
(lp1111
S':'
asbag48
(g69
g50
NtRp1112
(dp1113
g53
(dp1114
sg62
g1099
sg55
(lp1115
g48
(g49
g50
NtRp1116
(dp1117
g53
(dp1118
g61
I4
ssg62
g1112
sg55
(lp1119
S'*/*'
p1120
asbasbasbag48
(g64
g50
NtRp1121
(dp1122
g53
(dp1123
sg62
g917
sg55
(lp1124
g48
(g69
g50
NtRp1125
(dp1126
g53
(dp1127
g73
g74
ssg62
g1121
sg55
(lp1128
S'http_accept_charset'
p1129
asbag48
(g69
g50
NtRp1130
(dp1131
g53
(dp1132
g80
g81
ssg62
g1121
sg55
(lp1133
S':'
asbag48
(g69
g50
NtRp1134
(dp1135
g53
(dp1136
sg62
g1121
sg55
(lp1137
g48
(g49
g50
NtRp1138
(dp1139
g53
(dp1140
g61
I4
ssg62
g1134
sg55
(lp1141
S'ISO-8859-1,utf-8;q=0.7,*;q=0.3'
p1142
asbasbasbag48
(g64
g50
NtRp1143
(dp1144
g53
(dp1145
sg62
g917
sg55
(lp1146
g48
(g69
g50
NtRp1147
(dp1148
g53
(dp1149
g73
g74
ssg62
g1143
sg55
(lp1150
S'http_accept_encoding'
p1151
asbag48
(g69
g50
NtRp1152
(dp1153
g53
(dp1154
g80
g81
ssg62
g1143
sg55
(lp1155
S':'
asbag48
(g69
g50
NtRp1156
(dp1157
g53
(dp1158
sg62
g1143
sg55
(lp1159
g48
(g49
g50
NtRp1160
(dp1161
g53
(dp1162
g61
I4
ssg62
g1156
sg55
(lp1163
S'gzip,deflate,sdch'
p1164
asbasbasbag48
(g64
g50
NtRp1165
(dp1166
g53
(dp1167
sg62
g917
sg55
(lp1168
g48
(g69
g50
NtRp1169
(dp1170
g53
(dp1171
g73
g74
ssg62
g1165
sg55
(lp1172
S'http_accept_language'
p1173
asbag48
(g69
g50
NtRp1174
(dp1175
g53
(dp1176
g80
g81
ssg62
g1165
sg55
(lp1177
S':'
asbag48
(g69
g50
NtRp1178
(dp1179
g53
(dp1180
sg62
g1165
sg55
(lp1181
g48
(g49
g50
NtRp1182
(dp1183
g53
(dp1184
g61
I4
ssg62
g1178
sg55
(lp1185
S'en-US,en;q=0.8'
p1186
asbasbasbag48
(g64
g50
NtRp1187
(dp1188
g53
(dp1189
sg62
g917
sg55
(lp1190
g48
(g69
g50
NtRp1191
(dp1192
g53
(dp1193
g73
g74
ssg62
g1187
sg55
(lp1194
S'http_connection'
p1195
asbag48
(g69
g50
NtRp1196
(dp1197
g53
(dp1198
g80
g81
ssg62
g1187
sg55
(lp1199
S':'
asbag48
(g69
g50
NtRp1200
(dp1201
g53
(dp1202
sg62
g1187
sg55
(lp1203
g48
(g49
g50
NtRp1204
(dp1205
g53
(dp1206
g61
I4
ssg62
g1200
sg55
(lp1207
S'keep-alive'
p1208
asbasbasbag48
(g64
g50
NtRp1209
(dp1210
g53
(dp1211
sg62
g917
sg55
(lp1212
g48
(g69
g50
NtRp1213
(dp1214
g53
(dp1215
g73
g74
ssg62
g1209
sg55
(lp1216
S'http_content_length'
p1217
asbag48
(g69
g50
NtRp1218
(dp1219
g53
(dp1220
g80
g81
ssg62
g1209
sg55
(lp1221
S':'
asbag48
(g69
g50
NtRp1222
(dp1223
g53
(dp1224
sg62
g1209
sg55
(lp1225
g48
(g49
g50
NtRp1226
(dp1227
g53
(dp1228
g61
I4
ssg62
g1222
sg55
(lp1229
S'0'
asbasbasbag48
(g64
g50
NtRp1230
(dp1231
g53
(dp1232
sg62
g917
sg55
(lp1233
g48
(g69
g50
NtRp1234
(dp1235
g53
(dp1236
g73
g74
ssg62
g1230
sg55
(lp1237
S'http_cookie'
p1238
asbag48
(g69
g50
NtRp1239
(dp1240
g53
(dp1241
g80
g81
ssg62
g1230
sg55
(lp1242
S':'
asbag48
(g69
g50
NtRp1243
(dp1244
g53
(dp1245
sg62
g1230
sg55
(lp1246
g48
(g49
g50
NtRp1247
(dp1248
g53
(dp1249
g61
I4
ssg62
g1243
sg55
(lp1250
S'session_id_ojtest_james=127.0.0.1-7b862d98-9e69-4af2-8f78-ec2e2da02fa1; session_id_ojtest=127.0.0.1-96dfb031-ba80-4b4a-9567-f2da609e9bec; session_id_ojtest_old=127.0.0.1-d08223cf-9921-43b5-837a-c2d7d251ff86; session_id_admin=127.0.0.1-26584404-0ca3-4d91-8bf6-e0a8cb5eddd0'
p1251
asbasbasbag48
(g64
g50
NtRp1252
(dp1253
g53
(dp1254
sg62
g917
sg55
(lp1255
g48
(g69
g50
NtRp1256
(dp1257
g53
(dp1258
g73
g74
ssg62
g1252
sg55
(lp1259
S'http_host'
p1260
asbag48
(g69
g50
NtRp1261
(dp1262
g53
(dp1263
g80
g81
ssg62
g1252
sg55
(lp1264
S':'
asbag48
(g69
g50
NtRp1265
(dp1266
g53
(dp1267
sg62
g1252
sg55
(lp1268
g48
(g49
g50
NtRp1269
(dp1270
g53
(dp1271
g61
I4
ssg62
g1265
sg55
(lp1272
S'127.0.0.1:8000'
p1273
asbasbasbag48
(g64
g50
NtRp1274
(dp1275
g53
(dp1276
sg62
g917
sg55
(lp1277
g48
(g69
g50
NtRp1278
(dp1279
g53
(dp1280
g73
g74
ssg62
g1274
sg55
(lp1281
S'http_origin'
p1282
asbag48
(g69
g50
NtRp1283
(dp1284
g53
(dp1285
g80
g81
ssg62
g1274
sg55
(lp1286
S':'
asbag48
(g69
g50
NtRp1287
(dp1288
g53
(dp1289
sg62
g1274
sg55
(lp1290
g48
(g49
g50
NtRp1291
(dp1292
g53
(dp1293
g61
I4
ssg62
g1287
sg55
(lp1294
S'http://127.0.0.1:8000'
p1295
asbasbasbag48
(g64
g50
NtRp1296
(dp1297
g53
(dp1298
sg62
g917
sg55
(lp1299
g48
(g69
g50
NtRp1300
(dp1301
g53
(dp1302
g73
g74
ssg62
g1296
sg55
(lp1303
S'http_referer'
p1304
asbag48
(g69
g50
NtRp1305
(dp1306
g53
(dp1307
g80
g81
ssg62
g1296
sg55
(lp1308
S':'
asbag48
(g69
g50
NtRp1309
(dp1310
g53
(dp1311
sg62
g1296
sg55
(lp1312
g48
(g49
g50
NtRp1313
(dp1314
g53
(dp1315
g61
I4
ssg62
g1309
sg55
(lp1316
S'http://127.0.0.1:8000/admin/default/site'
p1317
asbasbasbag48
(g64
g50
NtRp1318
(dp1319
g53
(dp1320
sg62
g917
sg55
(lp1321
g48
(g69
g50
NtRp1322
(dp1323
g53
(dp1324
g73
g74
ssg62
g1318
sg55
(lp1325
S'http_user_agent'
p1326
asbag48
(g69
g50
NtRp1327
(dp1328
g53
(dp1329
g80
g81
ssg62
g1318
sg55
(lp1330
S':'
asbag48
(g69
g50
NtRp1331
(dp1332
g53
(dp1333
sg62
g1318
sg55
(lp1334
g48
(g49
g50
NtRp1335
(dp1336
g53
(dp1337
g61
I4
ssg62
g1331
sg55
(lp1338
S'Mozilla/5.0 (Windows NT 6.1; WOW64) AppleWebKit/535.7 (KHTML, like Gecko) Chrome/16.0.912.75 Safari/535.7'
p1339
asbasbasbag48
(g64
g50
NtRp1340
(dp1341
g53
(dp1342
sg62
g917
sg55
(lp1343
g48
(g69
g50
NtRp1344
(dp1345
g53
(dp1346
g73
g74
ssg62
g1340
sg55
(lp1347
S'http_x_requested_with'
p1348
asbag48
(g69
g50
NtRp1349
(dp1350
g53
(dp1351
g80
g81
ssg62
g1340
sg55
(lp1352
S':'
asbag48
(g69
g50
NtRp1353
(dp1354
g53
(dp1355
sg62
g1340
sg55
(lp1356
g48
(g49
g50
NtRp1357
(dp1358
g53
(dp1359
g61
I4
ssg62
g1353
sg55
(lp1360
S'XMLHttpRequest'
p1361
asbasbasbag48
(g64
g50
NtRp1362
(dp1363
g53
(dp1364
sg62
g917
sg55
(lp1365
g48
(g69
g50
NtRp1366
(dp1367
g53
(dp1368
g73
g74
ssg62
g1362
sg55
(lp1369
S'is_jython'
p1370
asbag48
(g69
g50
NtRp1371
(dp1372
g53
(dp1373
g80
g81
ssg62
g1362
sg55
(lp1374
S':'
asbag48
(g69
g50
NtRp1375
(dp1376
g53
(dp1377
sg62
g1362
sg55
(lp1378
g48
(g49
g50
NtRp1379
(dp1380
g53
(dp1381
g61
I4
ssg62
g1375
sg55
(lp1382
g1076
asbasbasbag48
(g64
g50
NtRp1383
(dp1384
g53
(dp1385
sg62
g917
sg55
(lp1386
g48
(g69
g50
NtRp1387
(dp1388
g53
(dp1389
g73
g74
ssg62
g1383
sg55
(lp1390
S'path_info'
p1391
asbag48
(g69
g50
NtRp1392
(dp1393
g53
(dp1394
g80
g81
ssg62
g1383
sg55
(lp1395
S':'
asbag48
(g69
g50
NtRp1396
(dp1397
g53
(dp1398
sg62
g1383
sg55
(lp1399
g48
(g49
g50
NtRp1400
(dp1401
g53
(dp1402
g61
I4
ssg62
g1396
sg55
(lp1403
S'/admin/default/check_version'
p1404
asbasbasbag48
(g64
g50
NtRp1405
(dp1406
g53
(dp1407
sg62
g917
sg55
(lp1408
g48
(g69
g50
NtRp1409
(dp1410
g53
(dp1411
g73
g74
ssg62
g1405
sg55
(lp1412
S'query_string'
p1413
asbag48
(g69
g50
NtRp1414
(dp1415
g53
(dp1416
g80
g81
ssg62
g1405
sg55
(lp1417
S':'
asbag48
(g69
g50
NtRp1418
(dp1419
g53
(dp1420
sg62
g1405
sg55
(lp1421
g48
(g49
g50
NtRp1422
(dp1423
g53
(dp1424
g61
I4
ssg62
g1418
sg55
(lp1425
S''
asbasbasbag48
(g64
g50
NtRp1426
(dp1427
g53
(dp1428
sg62
g917
sg55
(lp1429
g48
(g69
g50
NtRp1430
(dp1431
g53
(dp1432
g73
g74
ssg62
g1426
sg55
(lp1433
S'remote_addr'
p1434
asbag48
(g69
g50
NtRp1435
(dp1436
g53
(dp1437
g80
g81
ssg62
g1426
sg55
(lp1438
S':'
asbag48
(g69
g50
NtRp1439
(dp1440
g53
(dp1441
sg62
g1426
sg55
(lp1442
g48
(g49
g50
NtRp1443
(dp1444
g53
(dp1445
g61
I4
ssg62
g1439
sg55
(lp1446
g181
asbasbasbag48
(g64
g50
NtRp1447
(dp1448
g53
(dp1449
sg62
g917
sg55
(lp1450
g48
(g69
g50
NtRp1451
(dp1452
g53
(dp1453
g73
g74
ssg62
g1447
sg55
(lp1454
S'remote_port'
p1455
asbag48
(g69
g50
NtRp1456
(dp1457
g53
(dp1458
g80
g81
ssg62
g1447
sg55
(lp1459
S':'
asbag48
(g69
g50
NtRp1460
(dp1461
g53
(dp1462
sg62
g1447
sg55
(lp1463
g48
(g49
g50
NtRp1464
(dp1465
g53
(dp1466
g61
I4
ssg62
g1460
sg55
(lp1467
S'56596'
p1468
asbasbasbag48
(g64
g50
NtRp1469
(dp1470
g53
(dp1471
sg62
g917
sg55
(lp1472
g48
(g69
g50
NtRp1473
(dp1474
g53
(dp1475
g73
g74
ssg62
g1469
sg55
(lp1476
S'request_method'
p1477
asbag48
(g69
g50
NtRp1478
(dp1479
g53
(dp1480
g80
g81
ssg62
g1469
sg55
(lp1481
S':'
asbag48
(g69
g50
NtRp1482
(dp1483
g53
(dp1484
sg62
g1469
sg55
(lp1485
g48
(g49
g50
NtRp1486
(dp1487
g53
(dp1488
g61
I4
ssg62
g1482
sg55
(lp1489
S'POST'
p1490
asbasbasbag48
(g64
g50
NtRp1491
(dp1492
g53
(dp1493
sg62
g917
sg55
(lp1494
g48
(g69
g50
NtRp1495
(dp1496
g53
(dp1497
g73
g74
ssg62
g1491
sg55
(lp1498
S'request_uri'
p1499
asbag48
(g69
g50
NtRp1500
(dp1501
g53
(dp1502
g80
g81
ssg62
g1491
sg55
(lp1503
S':'
asbag48
(g69
g50
NtRp1504
(dp1505
g53
(dp1506
sg62
g1491
sg55
(lp1507
g48
(g49
g50
NtRp1508
(dp1509
g53
(dp1510
g61
I4
ssg62
g1504
sg55
(lp1511
g1404
asbasbasbag48
(g64
g50
NtRp1512
(dp1513
g53
(dp1514
sg62
g917
sg55
(lp1515
g48
(g69
g50
NtRp1516
(dp1517
g53
(dp1518
g73
g74
ssg62
g1512
sg55
(lp1519
S'script_name'
p1520
asbag48
(g69
g50
NtRp1521
(dp1522
g53
(dp1523
g80
g81
ssg62
g1512
sg55
(lp1524
S':'
asbag48
(g69
g50
NtRp1525
(dp1526
g53
(dp1527
sg62
g1512
sg55
(lp1528
g48
(g49
g50
NtRp1529
(dp1530
g53
(dp1531
g61
I4
ssg62
g1525
sg55
(lp1532
S''
asbasbasbag48
(g64
g50
NtRp1533
(dp1534
g53
(dp1535
sg62
g917
sg55
(lp1536
g48
(g69
g50
NtRp1537
(dp1538
g53
(dp1539
g73
g74
ssg62
g1533
sg55
(lp1540
S'server_name'
p1541
asbag48
(g69
g50
NtRp1542
(dp1543
g53
(dp1544
g80
g81
ssg62
g1533
sg55
(lp1545
S':'
asbag48
(g69
g50
NtRp1546
(dp1547
g53
(dp1548
sg62
g1533
sg55
(lp1549
g48
(g49
g50
NtRp1550
(dp1551
g53
(dp1552
g61
I4
ssg62
g1546
sg55
(lp1553
S'John-PC'
p1554
asbasbasbag48
(g64
g50
NtRp1555
(dp1556
g53
(dp1557
sg62
g917
sg55
(lp1558
g48
(g69
g50
NtRp1559
(dp1560
g53
(dp1561
g73
g74
ssg62
g1555
sg55
(lp1562
S'server_port'
p1563
asbag48
(g69
g50
NtRp1564
(dp1565
g53
(dp1566
g80
g81
ssg62
g1555
sg55
(lp1567
S':'
asbag48
(g69
g50
NtRp1568
(dp1569
g53
(dp1570
sg62
g1555
sg55
(lp1571
g48
(g49
g50
NtRp1572
(dp1573
g53
(dp1574
g61
I4
ssg62
g1568
sg55
(lp1575
S'8000'
p1576
asbasbasbag48
(g64
g50
NtRp1577
(dp1578
g53
(dp1579
sg62
g917
sg55
(lp1580
g48
(g69
g50
NtRp1581
(dp1582
g53
(dp1583
g73
g74
ssg62
g1577
sg55
(lp1584
S'server_protocol'
p1585
asbag48
(g69
g50
NtRp1586
(dp1587
g53
(dp1588
g80
g81
ssg62
g1577
sg55
(lp1589
S':'
asbag48
(g69
g50
NtRp1590
(dp1591
g53
(dp1592
sg62
g1577
sg55
(lp1593
g48
(g49
g50
NtRp1594
(dp1595
g53
(dp1596
g61
I4
ssg62
g1590
sg55
(lp1597
S'HTTP/1.1'
p1598
asbasbasbag48
(g64
g50
NtRp1599
(dp1600
g53
(dp1601
sg62
g917
sg55
(lp1602
g48
(g69
g50
NtRp1603
(dp1604
g53
(dp1605
g73
g74
ssg62
g1599
sg55
(lp1606
S'server_software'
p1607
asbag48
(g69
g50
NtRp1608
(dp1609
g53
(dp1610
g80
g81
ssg62
g1599
sg55
(lp1611
S':'
asbag48
(g69
g50
NtRp1612
(dp1613
g53
(dp1614
sg62
g1599
sg55
(lp1615
g48
(g49
g50
NtRp1616
(dp1617
g53
(dp1618
g61
I4
ssg62
g1612
sg55
(lp1619
S'Rocket 1.2.4'
p1620
asbasbasbag48
(g64
g50
NtRp1621
(dp1622
g53
(dp1623
sg62
g917
sg55
(lp1624
g48
(g69
g50
NtRp1625
(dp1626
g53
(dp1627
g73
g74
ssg62
g1621
sg55
(lp1628
S'web2py_crontype'
p1629
asbag48
(g69
g50
NtRp1630
(dp1631
g53
(dp1632
g80
g81
ssg62
g1621
sg55
(lp1633
S':'
asbag48
(g69
g50
NtRp1634
(dp1635
g53
(dp1636
sg62
g1621
sg55
(lp1637
g48
(g49
g50
NtRp1638
(dp1639
g53
(dp1640
g61
I4
ssg62
g1634
sg55
(lp1641
S'hard'
p1642
asbasbasbag48
(g64
g50
NtRp1643
(dp1644
g53
(dp1645
sg62
g917
sg55
(lp1646
g48
(g69
g50
NtRp1647
(dp1648
g53
(dp1649
g73
g74
ssg62
g1643
sg55
(lp1650
S'web2py_original_uri'
p1651
asbag48
(g69
g50
NtRp1652
(dp1653
g53
(dp1654
g80
g81
ssg62
g1643
sg55
(lp1655
S':'
asbag48
(g69
g50
NtRp1656
(dp1657
g53
(dp1658
sg62
g1643
sg55
(lp1659
g48
(g49
g50
NtRp1660
(dp1661
g53
(dp1662
g61
I4
ssg62
g1656
sg55
(lp1663
S'/admin/default/check_version'
p1664
asbasbasbag48
(g64
g50
NtRp1665
(dp1666
g53
(dp1667
sg62
g917
sg55
(lp1668
g48
(g69
g50
NtRp1669
(dp1670
g53
(dp1671
g73
g74
ssg62
g1665
sg55
(lp1672
S'web2py_path'
p1673
asbag48
(g69
g50
NtRp1674
(dp1675
g53
(dp1676
g80
g81
ssg62
g1665
sg55
(lp1677
S':'
asbag48
(g69
g50
NtRp1678
(dp1679
g53
(dp1680
sg62
g1665
sg55
(lp1681
g48
(g49
g50
NtRp1682
(dp1683
g53
(dp1684
g61
I4
ssg62
g1678
sg55
(lp1685
g964
asbasbasbag48
(g64
g50
NtRp1686
(dp1687
g53
(dp1688
sg62
g917
sg55
(lp1689
g48
(g69
g50
NtRp1690
(dp1691
g53
(dp1692
g73
g74
ssg62
g1686
sg55
(lp1693
S'web2py_version'
p1694
asbag48
(g69
g50
NtRp1695
(dp1696
g53
(dp1697
g80
g81
ssg62
g1686
sg55
(lp1698
S':'
asbag48
(g69
g50
NtRp1699
(dp1700
g53
(dp1701
sg62
g1686
sg55
(lp1702
g48
(g49
g50
NtRp1703
(dp1704
g53
(dp1705
g61
I4
ssg62
g1699
sg55
(lp1706
g48
(g57
g50
NtRp1707
(dp1708
g53
(dp1709
g61
I3
ssg62
Nsg55
(lp1710
g48
(g64
g50
NtRp1711
(dp1712
g53
(dp1713
sg62
g1707
sg55
(lp1714
g48
(g69
g50
NtRp1715
(dp1716
g53
(dp1717
sg62
g1711
sg55
(lp1718
g48
(g49
g50
NtRp1719
(dp1720
g53
(dp1721
g61
I3
ssg62
g1715
sg55
(lp1722
S'1'
asbasbasbag48
(g64
g50
NtRp1723
(dp1724
g53
(dp1725
sg62
g1707
sg55
(lp1726
g48
(g69
g50
NtRp1727
(dp1728
g53
(dp1729
sg62
g1723
sg55
(lp1730
g48
(g49
g50
NtRp1731
(dp1732
g53
(dp1733
g61
I3
ssg62
g1727
sg55
(lp1734
S'99'
p1735
asbasbasbag48
(g64
g50
NtRp1736
(dp1737
g53
(dp1738
sg62
g1707
sg55
(lp1739
g48
(g69
g50
NtRp1740
(dp1741
g53
(dp1742
sg62
g1736
sg55
(lp1743
g48
(g49
g50
NtRp1744
(dp1745
g53
(dp1746
g61
I3
ssg62
g1740
sg55
(lp1747
S'2'
asbasbasbag48
(g64
g50
NtRp1748
(dp1749
g53
(dp1750
sg62
g1707
sg55
(lp1751
g48
(g69
g50
NtRp1752
(dp1753
g53
(dp1754
sg62
g1748
sg55
(lp1755
g48
(g49
g50
NtRp1756
(dp1757
g53
(dp1758
g61
I3
ssg62
g1752
sg55
(lp1759
S'datetime.datetime(2011, 9, 26, 6, 55, 33)'
p1760
asbasbasbag48
(g64
g50
NtRp1761
(dp1762
g53
(dp1763
sg62
g1707
sg55
(lp1764
g48
(g69
g50
NtRp1765
(dp1766
g53
(dp1767
sg62
g1761
sg55
(lp1768
g48
(g49
g50
NtRp1769
(dp1770
g53
(dp1771
g61
I3
ssg62
g1765
sg55
(lp1772
S'stable'
p1773
asbasbasbasbasbasbasbag48
(g64
g50
NtRp1774
(dp1775
g53
(dp1776
sg62
g917
sg55
(lp1777
g48
(g69
g50
NtRp1778
(dp1779
g53
(dp1780
g73
g74
ssg62
g1774
sg55
(lp1781
S'wsgi_errors'
p1782
asbag48
(g69
g50
NtRp1783
(dp1784
g53
(dp1785
g80
g81
ssg62
g1774
sg55
(lp1786
S':'
asbag48
(g69
g50
NtRp1787
(dp1788
g53
(dp1789
sg62
g1774
sg55
(lp1790
g48
(g49
g50
NtRp1791
(dp1792
g53
(dp1793
g61
I4
ssg62
g1787
sg55
(lp1794
S"<open file '<stderr>', mode 'w' at 0x01D500B0>"
p1795
asbasbasbag48
(g64
g50
NtRp1796
(dp1797
g53
(dp1798
sg62
g917
sg55
(lp1799
g48
(g69
g50
NtRp1800
(dp1801
g53
(dp1802
g73
g74
ssg62
g1796
sg55
(lp1803
S'wsgi_file_wrapper'
p1804
asbag48
(g69
g50
NtRp1805
(dp1806
g53
(dp1807
g80
g81
ssg62
g1796
sg55
(lp1808
S':'
asbag48
(g69
g50
NtRp1809
(dp1810
g53
(dp1811
sg62
g1796
sg55
(lp1812
g48
(g49
g50
NtRp1813
(dp1814
g53
(dp1815
g61
I4
ssg62
g1809
sg55
(lp1816
S'<class wsgiref.util.FileWrapper at 0x037E5480>'
p1817
asbasbasbag48
(g64
g50
NtRp1818
(dp1819
g53
(dp1820
sg62
g917
sg55
(lp1821
g48
(g69
g50
NtRp1822
(dp1823
g53
(dp1824
g73
g74
ssg62
g1818
sg55
(lp1825
S'wsgi_input'
p1826
asbag48
(g69
g50
NtRp1827
(dp1828
g53
(dp1829
g80
g81
ssg62
g1818
sg55
(lp1830
S':'
asbag48
(g69
g50
NtRp1831
(dp1832
g53
(dp1833
sg62
g1818
sg55
(lp1834
g48
(g49
g50
NtRp1835
(dp1836
g53
(dp1837
g61
I4
ssg62
g1831
sg55
(lp1838
S'<socket._fileobject object at 0x0969B670>'
p1839
asbasbasbag48
(g64
g50
NtRp1840
(dp1841
g53
(dp1842
sg62
g917
sg55
(lp1843
g48
(g69
g50
NtRp1844
(dp1845
g53
(dp1846
g73
g74
ssg62
g1840
sg55
(lp1847
S'wsgi_multiprocess'
p1848
asbag48
(g69
g50
NtRp1849
(dp1850
g53
(dp1851
g80
g81
ssg62
g1840
sg55
(lp1852
S':'
asbag48
(g69
g50
NtRp1853
(dp1854
g53
(dp1855
sg62
g1840
sg55
(lp1856
g48
(g49
g50
NtRp1857
(dp1858
g53
(dp1859
g61
I4
ssg62
g1853
sg55
(lp1860
g1076
asbasbasbag48
(g64
g50
NtRp1861
(dp1862
g53
(dp1863
sg62
g917
sg55
(lp1864
g48
(g69
g50
NtRp1865
(dp1866
g53
(dp1867
g73
g74
ssg62
g1861
sg55
(lp1868
S'wsgi_multithread'
p1869
asbag48
(g69
g50
NtRp1870
(dp1871
g53
(dp1872
g80
g81
ssg62
g1861
sg55
(lp1873
S':'
asbag48
(g69
g50
NtRp1874
(dp1875
g53
(dp1876
sg62
g1861
sg55
(lp1877
g48
(g49
g50
NtRp1878
(dp1879
g53
(dp1880
g61
I4
ssg62
g1874
sg55
(lp1881
g91
asbasbasbag48
(g64
g50
NtRp1882
(dp1883
g53
(dp1884
sg62
g917
sg55
(lp1885
g48
(g69
g50
NtRp1886
(dp1887
g53
(dp1888
g73
g74
ssg62
g1882
sg55
(lp1889
S'wsgi_run_once'
p1890
asbag48
(g69
g50
NtRp1891
(dp1892
g53
(dp1893
g80
g81
ssg62
g1882
sg55
(lp1894
S':'
asbag48
(g69
g50
NtRp1895
(dp1896
g53
(dp1897
sg62
g1882
sg55
(lp1898
g48
(g49
g50
NtRp1899
(dp1900
g53
(dp1901
g61
I4
ssg62
g1895
sg55
(lp1902
g1076
asbasbasbag48
(g64
g50
NtRp1903
(dp1904
g53
(dp1905
sg62
g917
sg55
(lp1906
g48
(g69
g50
NtRp1907
(dp1908
g53
(dp1909
g73
g74
ssg62
g1903
sg55
(lp1910
S'wsgi_url_scheme'
p1911
asbag48
(g69
g50
NtRp1912
(dp1913
g53
(dp1914
g80
g81
ssg62
g1903
sg55
(lp1915
S':'
asbag48
(g69
g50
NtRp1916
(dp1917
g53
(dp1918
sg62
g1903
sg55
(lp1919
g48
(g49
g50
NtRp1920
(dp1921
g53
(dp1922
g61
I4
ssg62
g1916
sg55
(lp1923
S'http'
p1924
asbasbasbag48
(g64
g50
NtRp1925
(dp1926
g53
(dp1927
sg62
g917
sg55
(lp1928
g48
(g69
g50
NtRp1929
(dp1930
g53
(dp1931
g73
g74
ssg62
g1925
sg55
(lp1932
S'wsgi_version'
p1933
asbag48
(g69
g50
NtRp1934
(dp1935
g53
(dp1936
g80
g81
ssg62
g1925
sg55
(lp1937
S':'
asbag48
(g69
g50
NtRp1938
(dp1939
g53
(dp1940
sg62
g1925
sg55
(lp1941
g48
(g49
g50
NtRp1942
(dp1943
g53
(dp1944
g61
I4
ssg62
g1938
sg55
(lp1945
g48
(g57
g50
NtRp1946
(dp1947
g53
(dp1948
g61
I3
ssg62
Nsg55
(lp1949
g48
(g64
g50
NtRp1950
(dp1951
g53
(dp1952
sg62
g1946
sg55
(lp1953
g48
(g69
g50
NtRp1954
(dp1955
g53
(dp1956
sg62
g1950
sg55
(lp1957
g48
(g49
g50
NtRp1958
(dp1959
g53
(dp1960
g61
I3
ssg62
g1954
sg55
(lp1961
S'1'
asbasbasbag48
(g64
g50
NtRp1962
(dp1963
g53
(dp1964
sg62
g1946
sg55
(lp1965
g48
(g69
g50
NtRp1966
(dp1967
g53
(dp1968
sg62
g1962
sg55
(lp1969
g48
(g49
g50
NtRp1970
(dp1971
g53
(dp1972
g61
I3
ssg62
g1966
sg55
(lp1973
S'0'
asbasbasbasbasbasbasbasbasbasbasbag48
(g64
g50
NtRp1974
(dp1975
g53
(dp1976
sg62
g58
sg55
(lp1977
g48
(g69
g50
NtRp1978
(dp1979
g53
(dp1980
g73
g74
ssg62
g1974
sg55
(lp1981
S'extension'
p1982
asbag48
(g69
g50
NtRp1983
(dp1984
g53
(dp1985
g80
g81
ssg62
g1974
sg55
(lp1986
S':'
asbag48
(g69
g50
NtRp1987
(dp1988
g53
(dp1989
sg62
g1974
sg55
(lp1990
g48
(g49
g50
NtRp1991
(dp1992
g53
(dp1993
g61
I5
ssg62
g1987
sg55
(lp1994
S'html'
p1995
asbasbasbag48
(g64
g50
NtRp1996
(dp1997
g53
(dp1998
sg62
g58
sg55
(lp1999
g48
(g69
g50
NtRp2000
(dp2001
g53
(dp2002
g73
g74
ssg62
g1996
sg55
(lp2003
S'folder'
p2004
asbag48
(g69
g50
NtRp2005
(dp2006
g53
(dp2007
g80
g81
ssg62
g1996
sg55
(lp2008
S':'
asbag48
(g69
g50
NtRp2009
(dp2010
g53
(dp2011
sg62
g1996
sg55
(lp2012
g48
(g49
g50
NtRp2013
(dp2014
g53
(dp2015
g61
I5
ssg62
g2009
sg55
(lp2016
S'D:\\Dropbox\\Eclipse\\OJDevSourceProject\\project\\web2py\\applications\\admin\\'
p2017
asbasbasbag48
(g64
g50
NtRp2018
(dp2019
g53
(dp2020
sg62
g58
sg55
(lp2021
g48
(g69
g50
NtRp2022
(dp2023
g53
(dp2024
g73
g74
ssg62
g2018
sg55
(lp2025
S'function'
p2026
asbag48
(g69
g50
NtRp2027
(dp2028
g53
(dp2029
g80
g81
ssg62
g2018
sg55
(lp2030
S':'
asbag48
(g69
g50
NtRp2031
(dp2032
g53
(dp2033
sg62
g2018
sg55
(lp2034
g48
(g49
g50
NtRp2035
(dp2036
g53
(dp2037
g61
I5
ssg62
g2031
sg55
(lp2038
S'check_version'
p2039
asbasbasbag48
(g64
g50
NtRp2040
(dp2041
g53
(dp2042
sg62
g58
sg55
(lp2043
g48
(g69
g50
NtRp2044
(dp2045
g53
(dp2046
g73
g74
ssg62
g2040
sg55
(lp2047
S'get_vars'
p2048
asbag48
(g69
g50
NtRp2049
(dp2050
g53
(dp2051
g80
g81
ssg62
g2040
sg55
(lp2052
S':'
asbag48
(g69
g50
NtRp2053
(dp2054
g53
(dp2055
sg62
g2040
sg55
(lp2056
g48
(g49
g50
NtRp2057
(dp2058
g53
(dp2059
g61
I5
ssg62
g2053
sg55
(lp2060
g48
(g57
g50
NtRp2061
(dp2062
g53
(dp2063
g61
I4
ssg62
Nsg55
(lp2064
sbasbasbasbag48
(g64
g50
NtRp2065
(dp2066
g53
(dp2067
sg62
g58
sg55
(lp2068
g48
(g69
g50
NtRp2069
(dp2070
g53
(dp2071
g73
g74
ssg62
g2065
sg55
(lp2072
S'global_settings'
p2073
asbag48
(g69
g50
NtRp2074
(dp2075
g53
(dp2076
g80
g81
ssg62
g2065
sg55
(lp2077
S':'
asbag48
(g69
g50
NtRp2078
(dp2079
g53
(dp2080
sg62
g2065
sg55
(lp2081
g48
(g49
g50
NtRp2082
(dp2083
g53
(dp2084
g61
I5
ssg62
g2078
sg55
(lp2085
g48
(g57
g50
NtRp2086
(dp2087
g53
(dp2088
g61
I4
ssg62
Nsg55
(lp2089
g48
(g64
g50
NtRp2090
(dp2091
g53
(dp2092
sg62
g2086
sg55
(lp2093
g48
(g69
g50
NtRp2094
(dp2095
g53
(dp2096
g73
g74
ssg62
g2090
sg55
(lp2097
g929
asbag48
(g69
g50
NtRp2098
(dp2099
g53
(dp2100
g80
g81
ssg62
g2090
sg55
(lp2101
S':'
asbag48
(g69
g50
NtRp2102
(dp2103
g53
(dp2104
sg62
g2090
sg55
(lp2105
g48
(g49
g50
NtRp2106
(dp2107
g53
(dp2108
g61
I4
ssg62
g2102
sg55
(lp2109
S"set(['D:\\\\Dropbox\\\\Eclipse\\\\OJDevSourceProject\\\\project\\\\web2py\\\\applications\\\\admin\\\\', 'D:\\\\Dropbox\\\\Eclipse\\\\OJDevSourceProject\\\\project\\\\web2py\\\\applications\\\\OJTest\\\\', 'D:\\\\Dropbox\\\\Eclipse\\\\OJDevSourceProject\\\\project\\\\web2py\\\\applications\\\\OJTest_james\\\\', 'D:\\\\Dropbox\\\\Eclipse\\\\OJDevSourceProject\\\\project\\\\web2py\\\\applications\\\\ojtest\\\\', 'D:\\\\Dropbox\\\\Eclipse\\\\OJDevSourceProject\\\\project\\\\web2py\\\\applications\\\\OJTest_old\\\\', 'D:\\\\Dropbox\\\\Eclipse\\\\OJDevSourceProject\\\\project\\\\web2py\\\\applications\\\\OJtest\\\\'])"
p2110
asbasbasbag48
(g64
g50
NtRp2111
(dp2112
g53
(dp2113
sg62
g2086
sg55
(lp2114
g48
(g69
g50
NtRp2115
(dp2116
g53
(dp2117
g73
g74
ssg62
g2111
sg55
(lp2118
g951
asbag48
(g69
g50
NtRp2119
(dp2120
g53
(dp2121
g80
g81
ssg62
g2111
sg55
(lp2122
S':'
asbag48
(g69
g50
NtRp2123
(dp2124
g53
(dp2125
sg62
g2111
sg55
(lp2126
g48
(g49
g50
NtRp2127
(dp2128
g53
(dp2129
g61
I4
ssg62
g2123
sg55
(lp2130
g964
asbasbasbag48
(g64
g50
NtRp2131
(dp2132
g53
(dp2133
sg62
g2086
sg55
(lp2134
g48
(g69
g50
NtRp2135
(dp2136
g53
(dp2137
g73
g74
ssg62
g2131
sg55
(lp2138
g973
asbag48
(g69
g50
NtRp2139
(dp2140
g53
(dp2141
g80
g81
ssg62
g2131
sg55
(lp2142
S':'
asbag48
(g69
g50
NtRp2143
(dp2144
g53
(dp2145
sg62
g2131
sg55
(lp2146
g48
(g49
g50
NtRp2147
(dp2148
g53
(dp2149
g61
I4
ssg62
g2143
sg55
(lp2150
g48
(g57
g50
NtRp2151
(dp2152
g53
(dp2153
g61
I3
ssg62
Nsg55
(lp2154
sbasbasbasbag48
(g64
g50
NtRp2155
(dp2156
g53
(dp2157
sg62
g2086
sg55
(lp2158
g48
(g69
g50
NtRp2159
(dp2160
g53
(dp2161
g73
g74
ssg62
g2155
sg55
(lp2162
g998
asbag48
(g69
g50
NtRp2163
(dp2164
g53
(dp2165
g80
g81
ssg62
g2155
sg55
(lp2166
S':'
asbag48
(g69
g50
NtRp2167
(dp2168
g53
(dp2169
sg62
g2155
sg55
(lp2170
g48
(g49
g50
NtRp2171
(dp2172
g53
(dp2173
g61
I4
ssg62
g2167
sg55
(lp2174
S"<Values at 0x3b94be8: {'verbose': False, 'ip': '127.0.0.1', 'shutdown_timeout': 5, 'taskbar': False, 'nocron': False, 'pid_filename': 'httpserver.pid', 'maxthreads': None, 'softcron': False, 'server_name': 'John-PC', 'bpython': False, 'nogui': False, 'port': 8000, 'extcron': False, 'debuglevel': 30, 'test': None, 'folder': 'D:\\\\Dropbox\\\\Eclipse\\\\OJDevSourceProject\\\\project\\\\web2py', 'config': '', 'import_models': False, 'winservice': '', 'shell': None, 'run': '', 'log_filename': 'httpserver.log', 'args': [''], 'ssl_ca_certificate': None, 'scheduler': None, 'profiler_filename': None, 'ssl_private_key': '', 'password': '<ask>', 'request_queue_size': 5, 'ssl_certificate': '', 'cronjob': False, 'plain': False, 'quiet': False, 'interfaces': None, 'minthreads': None, 'timeout': 10, 'numthreads': None, 'nobanner': False}>"
p2175
asbasbasbag48
(g64
g50
NtRp2176
(dp2177
g53
(dp2178
sg62
g2086
sg55
(lp2179
g48
(g69
g50
NtRp2180
(dp2181
g53
(dp2182
g73
g74
ssg62
g2176
sg55
(lp2183
g1041
asbag48
(g69
g50
NtRp2184
(dp2185
g53
(dp2186
g80
g81
ssg62
g2176
sg55
(lp2187
S':'
asbag48
(g69
g50
NtRp2188
(dp2189
g53
(dp2190
sg62
g2176
sg55
(lp2191
g48
(g49
g50
NtRp2192
(dp2193
g53
(dp2194
g61
I4
ssg62
g2188
sg55
(lp2195
S'set([])'
p2196
asbasbasbag48
(g64
g50
NtRp2197
(dp2198
g53
(dp2199
sg62
g2086
sg55
(lp2200
g48
(g69
g50
NtRp2201
(dp2202
g53
(dp2203
g73
g74
ssg62
g2197
sg55
(lp2204
g1063
asbag48
(g69
g50
NtRp2205
(dp2206
g53
(dp2207
g80
g81
ssg62
g2197
sg55
(lp2208
S':'
asbag48
(g69
g50
NtRp2209
(dp2210
g53
(dp2211
sg62
g2197
sg55
(lp2212
g48
(g49
g50
NtRp2213
(dp2214
g53
(dp2215
g61
I4
ssg62
g2209
sg55
(lp2216
g1076
asbasbasbag48
(g64
g50
NtRp2217
(dp2218
g53
(dp2219
sg62
g2086
sg55
(lp2220
g48
(g69
g50
NtRp2221
(dp2222
g53
(dp2223
g73
g74
ssg62
g2217
sg55
(lp2224
g1085
asbag48
(g69
g50
NtRp2225
(dp2226
g53
(dp2227
g80
g81
ssg62
g2217
sg55
(lp2228
S':'
asbag48
(g69
g50
NtRp2229
(dp2230
g53
(dp2231
sg62
g2217
sg55
(lp2232
g48
(g49
g50
NtRp2233
(dp2234
g53
(dp2235
g61
I4
ssg62
g2229
sg55
(lp2236
g1098
asbasbasbag48
(g64
g50
NtRp2237
(dp2238
g53
(dp2239
sg62
g2086
sg55
(lp2240
g48
(g69
g50
NtRp2241
(dp2242
g53
(dp2243
g73
g74
ssg62
g2237
sg55
(lp2244
g1370
asbag48
(g69
g50
NtRp2245
(dp2246
g53
(dp2247
g80
g81
ssg62
g2237
sg55
(lp2248
S':'
asbag48
(g69
g50
NtRp2249
(dp2250
g53
(dp2251
sg62
g2237
sg55
(lp2252
g48
(g49
g50
NtRp2253
(dp2254
g53
(dp2255
g61
I4
ssg62
g2249
sg55
(lp2256
g1076
asbasbasbag48
(g64
g50
NtRp2257
(dp2258
g53
(dp2259
sg62
g2086
sg55
(lp2260
g48
(g69
g50
NtRp2261
(dp2262
g53
(dp2263
g73
g74
ssg62
g2257
sg55
(lp2264
g1629
asbag48
(g69
g50
NtRp2265
(dp2266
g53
(dp2267
g80
g81
ssg62
g2257
sg55
(lp2268
S':'
asbag48
(g69
g50
NtRp2269
(dp2270
g53
(dp2271
sg62
g2257
sg55
(lp2272
g48
(g49
g50
NtRp2273
(dp2274
g53
(dp2275
g61
I4
ssg62
g2269
sg55
(lp2276
g1642
asbasbasbag48
(g64
g50
NtRp2277
(dp2278
g53
(dp2279
sg62
g2086
sg55
(lp2280
g48
(g69
g50
NtRp2281
(dp2282
g53
(dp2283
g73
g74
ssg62
g2277
sg55
(lp2284
g1694
asbag48
(g69
g50
NtRp2285
(dp2286
g53
(dp2287
g80
g81
ssg62
g2277
sg55
(lp2288
S':'
asbag48
(g69
g50
NtRp2289
(dp2290
g53
(dp2291
sg62
g2277
sg55
(lp2292
g48
(g49
g50
NtRp2293
(dp2294
g53
(dp2295
g61
I4
ssg62
g2289
sg55
(lp2296
g48
(g57
g50
NtRp2297
(dp2298
g53
(dp2299
g61
I3
ssg62
Nsg55
(lp2300
g48
(g64
g50
NtRp2301
(dp2302
g53
(dp2303
sg62
g2297
sg55
(lp2304
g48
(g69
g50
NtRp2305
(dp2306
g53
(dp2307
sg62
g2301
sg55
(lp2308
g48
(g49
g50
NtRp2309
(dp2310
g53
(dp2311
g61
I3
ssg62
g2305
sg55
(lp2312
S'1'
asbasbasbag48
(g64
g50
NtRp2313
(dp2314
g53
(dp2315
sg62
g2297
sg55
(lp2316
g48
(g69
g50
NtRp2317
(dp2318
g53
(dp2319
sg62
g2313
sg55
(lp2320
g48
(g49
g50
NtRp2321
(dp2322
g53
(dp2323
g61
I3
ssg62
g2317
sg55
(lp2324
S'99'
p2325
asbasbasbag48
(g64
g50
NtRp2326
(dp2327
g53
(dp2328
sg62
g2297
sg55
(lp2329
g48
(g69
g50
NtRp2330
(dp2331
g53
(dp2332
sg62
g2326
sg55
(lp2333
g48
(g49
g50
NtRp2334
(dp2335
g53
(dp2336
g61
I3
ssg62
g2330
sg55
(lp2337
S'2'
asbasbasbag48
(g64
g50
NtRp2338
(dp2339
g53
(dp2340
sg62
g2297
sg55
(lp2341
g48
(g69
g50
NtRp2342
(dp2343
g53
(dp2344
sg62
g2338
sg55
(lp2345
g48
(g49
g50
NtRp2346
(dp2347
g53
(dp2348
g61
I3
ssg62
g2342
sg55
(lp2349
S'datetime.datetime(2011, 9, 26, 6, 55, 33)'
p2350
asbasbasbag48
(g64
g50
NtRp2351
(dp2352
g53
(dp2353
sg62
g2297
sg55
(lp2354
g48
(g69
g50
NtRp2355
(dp2356
g53
(dp2357
sg62
g2351
sg55
(lp2358
g48
(g49
g50
NtRp2359
(dp2360
g53
(dp2361
g61
I3
ssg62
g2355
sg55
(lp2362
g1773
asbasbasbasbasbasbasbasbasbasbasbag48
(g64
g50
NtRp2363
(dp2364
g53
(dp2365
sg62
g58
sg55
(lp2366
g48
(g69
g50
NtRp2367
(dp2368
g53
(dp2369
g73
g74
ssg62
g2363
sg55
(lp2370
S'is_https'
p2371
asbag48
(g69
g50
NtRp2372
(dp2373
g53
(dp2374
g80
g81
ssg62
g2363
sg55
(lp2375
S':'
asbag48
(g69
g50
NtRp2376
(dp2377
g53
(dp2378
sg62
g2363
sg55
(lp2379
g48
(g49
g50
NtRp2380
(dp2381
g53
(dp2382
g61
I5
ssg62
g2376
sg55
(lp2383
g1076
asbasbasbag48
(g64
g50
NtRp2384
(dp2385
g53
(dp2386
sg62
g58
sg55
(lp2387
g48
(g69
g50
NtRp2388
(dp2389
g53
(dp2390
g73
g74
ssg62
g2384
sg55
(lp2391
S'is_local'
p2392
asbag48
(g69
g50
NtRp2393
(dp2394
g53
(dp2395
g80
g81
ssg62
g2384
sg55
(lp2396
S':'
asbag48
(g69
g50
NtRp2397
(dp2398
g53
(dp2399
sg62
g2384
sg55
(lp2400
g48
(g49
g50
NtRp2401
(dp2402
g53
(dp2403
g61
I5
ssg62
g2397
sg55
(lp2404
g91
asbasbasbag48
(g64
g50
NtRp2405
(dp2406
g53
(dp2407
sg62
g58
sg55
(lp2408
g48
(g69
g50
NtRp2409
(dp2410
g53
(dp2411
g73
g74
ssg62
g2405
sg55
(lp2412
S'is_restful'
p2413
asbag48
(g69
g50
NtRp2414
(dp2415
g53
(dp2416
g80
g81
ssg62
g2405
sg55
(lp2417
S':'
asbag48
(g69
g50
NtRp2418
(dp2419
g53
(dp2420
sg62
g2405
sg55
(lp2421
g48
(g49
g50
NtRp2422
(dp2423
g53
(dp2424
g61
I5
ssg62
g2418
sg55
(lp2425
g1076
asbasbasbag48
(g64
g50
NtRp2426
(dp2427
g53
(dp2428
sg62
g58
sg55
(lp2429
g48
(g69
g50
NtRp2430
(dp2431
g53
(dp2432
g73
g74
ssg62
g2426
sg55
(lp2433
S'now'
p2434
asbag48
(g69
g50
NtRp2435
(dp2436
g53
(dp2437
g80
g81
ssg62
g2426
sg55
(lp2438
S':'
asbag48
(g69
g50
NtRp2439
(dp2440
g53
(dp2441
sg62
g2426
sg55
(lp2442
g48
(g49
g50
NtRp2443
(dp2444
g53
(dp2445
g61
I5
ssg62
g2439
sg55
(lp2446
S'datetime.datetime(2012, 1, 11, 14, 14, 59, 570000)'
p2447
asbasbasbag48
(g64
g50
NtRp2448
(dp2449
g53
(dp2450
sg62
g58
sg55
(lp2451
g48
(g69
g50
NtRp2452
(dp2453
g53
(dp2454
g73
g74
ssg62
g2448
sg55
(lp2455
S'post_vars'
p2456
asbag48
(g69
g50
NtRp2457
(dp2458
g53
(dp2459
g80
g81
ssg62
g2448
sg55
(lp2460
S':'
asbag48
(g69
g50
NtRp2461
(dp2462
g53
(dp2463
sg62
g2448
sg55
(lp2464
g48
(g49
g50
NtRp2465
(dp2466
g53
(dp2467
g61
I5
ssg62
g2461
sg55
(lp2468
g48
(g57
g50
NtRp2469
(dp2470
g53
(dp2471
g61
I4
ssg62
Nsg55
(lp2472
sbasbasbasbag48
(g64
g50
NtRp2473
(dp2474
g53
(dp2475
sg62
g58
sg55
(lp2476
g48
(g69
g50
NtRp2477
(dp2478
g53
(dp2479
g73
g74
ssg62
g2473
sg55
(lp2480
S'url'
p2481
asbag48
(g69
g50
NtRp2482
(dp2483
g53
(dp2484
g80
g81
ssg62
g2473
sg55
(lp2485
S':'
asbag48
(g69
g50
NtRp2486
(dp2487
g53
(dp2488
sg62
g2473
sg55
(lp2489
g48
(g49
g50
NtRp2490
(dp2491
g53
(dp2492
g61
I5
ssg62
g2486
sg55
(lp2493
S'/admin/default/check_version'
p2494
asbasbasbag48
(g64
g50
NtRp2495
(dp2496
g53
(dp2497
sg62
g58
sg55
(lp2498
g48
(g69
g50
NtRp2499
(dp2500
g53
(dp2501
g73
g74
ssg62
g2495
sg55
(lp2502
S'utcnow'
p2503
asbag48
(g69
g50
NtRp2504
(dp2505
g53
(dp2506
g80
g81
ssg62
g2495
sg55
(lp2507
S':'
asbag48
(g69
g50
NtRp2508
(dp2509
g53
(dp2510
sg62
g2495
sg55
(lp2511
g48
(g49
g50
NtRp2512
(dp2513
g53
(dp2514
g61
I5
ssg62
g2508
sg55
(lp2515
S'datetime.datetime(2012, 1, 11, 3, 14, 59, 570000)'
p2516
asbasbasbag48
(g64
g50
NtRp2517
(dp2518
g53
(dp2519
sg62
g58
sg55
(lp2520
g48
(g69
g50
NtRp2521
(dp2522
g53
(dp2523
g73
g74
ssg62
g2517
sg55
(lp2524
S'uuid'
p2525
asbag48
(g69
g50
NtRp2526
(dp2527
g53
(dp2528
g80
g81
ssg62
g2517
sg55
(lp2529
S':'
asbag48
(g69
g50
NtRp2530
(dp2531
g53
(dp2532
sg62
g2517
sg55
(lp2533
g48
(g49
g50
NtRp2534
(dp2535
g53
(dp2536
g61
I5
ssg62
g2530
sg55
(lp2537
S'admin/127.0.0.1.2012-01-11.14-14-59.babeab94-21dd-4e5a-a0cf-d2b2990c2564'
p2538
asbasbasbag48
(g64
g50
NtRp2539
(dp2540
g53
(dp2541
sg62
g58
sg55
(lp2542
g48
(g69
g50
NtRp2543
(dp2544
g53
(dp2545
g73
g74
ssg62
g2539
sg55
(lp2546
S'vars'
p2547
asbag48
(g69
g50
NtRp2548
(dp2549
g53
(dp2550
g80
g81
ssg62
g2539
sg55
(lp2551
S':'
asbag48
(g69
g50
NtRp2552
(dp2553
g53
(dp2554
sg62
g2539
sg55
(lp2555
g48
(g49
g50
NtRp2556
(dp2557
g53
(dp2558
g61
I5
ssg62
g2552
sg55
(lp2559
g48
(g57
g50
NtRp2560
(dp2561
g53
(dp2562
g61
I4
ssg62
Nsg55
(lp2563
sbasbasbasbag48
(g64
g50
NtRp2564
(dp2565
g53
(dp2566
sg62
g58
sg55
(lp2567
g48
(g69
g50
NtRp2568
(dp2569
g53
(dp2570
g73
g74
ssg62
g2564
sg55
(lp2571
S'wsgi'
p2572
asbag48
(g69
g50
NtRp2573
(dp2574
g53
(dp2575
g80
g81
ssg62
g2564
sg55
(lp2576
S':'
asbag48
(g69
g50
NtRp2577
(dp2578
g53
(dp2579
sg62
g2564
sg55
(lp2580
g48
(g49
g50
NtRp2581
(dp2582
g53
(dp2583
g61
I5
ssg62
g2577
sg55
(lp2584
g48
(g57
g50
NtRp2585
(dp2586
g53
(dp2587
g61
I4
ssg62
Nsg55
(lp2588
g48
(g64
g50
NtRp2589
(dp2590
g53
(dp2591
sg62
g2585
sg55
(lp2592
g48
(g69
g50
NtRp2593
(dp2594
g53
(dp2595
g73
g74
ssg62
g2589
sg55
(lp2596
S'environ'
p2597
asbag48
(g69
g50
NtRp2598
(dp2599
g53
(dp2600
g80
g81
ssg62
g2589
sg55
(lp2601
S':'
asbag48
(g69
g50
NtRp2602
(dp2603
g53
(dp2604
sg62
g2589
sg55
(lp2605
g48
(g49
g50
NtRp2606
(dp2607
g53
(dp2608
g61
I4
ssg62
g2602
sg55
(lp2609
g48
(g57
g50
NtRp2610
(dp2611
g53
(dp2612
g61
I3
ssg62
Nsg55
(lp2613
g48
(g64
g50
NtRp2614
(dp2615
g53
(dp2616
sg62
g2610
sg55
(lp2617
g48
(g69
g50
NtRp2618
(dp2619
g53
(dp2620
g73
g74
ssg62
g2614
sg55
(lp2621
S'CONTENT_LENGTH'
p2622
asbag48
(g69
g50
NtRp2623
(dp2624
g53
(dp2625
g80
g81
ssg62
g2614
sg55
(lp2626
S':'
asbag48
(g69
g50
NtRp2627
(dp2628
g53
(dp2629
sg62
g2614
sg55
(lp2630
g48
(g49
g50
NtRp2631
(dp2632
g53
(dp2633
g61
I3
ssg62
g2627
sg55
(lp2634
S'0'
asbasbasbag48
(g64
g50
NtRp2635
(dp2636
g53
(dp2637
sg62
g2610
sg55
(lp2638
g48
(g69
g50
NtRp2639
(dp2640
g53
(dp2641
g73
g74
ssg62
g2635
sg55
(lp2642
S'HTTP_ACCEPT'
p2643
asbag48
(g69
g50
NtRp2644
(dp2645
g53
(dp2646
g80
g81
ssg62
g2635
sg55
(lp2647
S':'
asbag48
(g69
g50
NtRp2648
(dp2649
g53
(dp2650
sg62
g2635
sg55
(lp2651
g48
(g49
g50
NtRp2652
(dp2653
g53
(dp2654
g61
I3
ssg62
g2648
sg55
(lp2655
g1120
asbasbasbag48
(g64
g50
NtRp2656
(dp2657
g53
(dp2658
sg62
g2610
sg55
(lp2659
g48
(g69
g50
NtRp2660
(dp2661
g53
(dp2662
g73
g74
ssg62
g2656
sg55
(lp2663
S'HTTP_ACCEPT_CHARSET'
p2664
asbag48
(g69
g50
NtRp2665
(dp2666
g53
(dp2667
g80
g81
ssg62
g2656
sg55
(lp2668
S':'
asbag48
(g69
g50
NtRp2669
(dp2670
g53
(dp2671
sg62
g2656
sg55
(lp2672
g48
(g49
g50
NtRp2673
(dp2674
g53
(dp2675
g61
I3
ssg62
g2669
sg55
(lp2676
g1142
asbasbasbag48
(g64
g50
NtRp2677
(dp2678
g53
(dp2679
sg62
g2610
sg55
(lp2680
g48
(g69
g50
NtRp2681
(dp2682
g53
(dp2683
g73
g74
ssg62
g2677
sg55
(lp2684
S'HTTP_ACCEPT_ENCODING'
p2685
asbag48
(g69
g50
NtRp2686
(dp2687
g53
(dp2688
g80
g81
ssg62
g2677
sg55
(lp2689
S':'
asbag48
(g69
g50
NtRp2690
(dp2691
g53
(dp2692
sg62
g2677
sg55
(lp2693
g48
(g49
g50
NtRp2694
(dp2695
g53
(dp2696
g61
I3
ssg62
g2690
sg55
(lp2697
g1164
asbasbasbag48
(g64
g50
NtRp2698
(dp2699
g53
(dp2700
sg62
g2610
sg55
(lp2701
g48
(g69
g50
NtRp2702
(dp2703
g53
(dp2704
g73
g74
ssg62
g2698
sg55
(lp2705
S'HTTP_ACCEPT_LANGUAGE'
p2706
asbag48
(g69
g50
NtRp2707
(dp2708
g53
(dp2709
g80
g81
ssg62
g2698
sg55
(lp2710
S':'
asbag48
(g69
g50
NtRp2711
(dp2712
g53
(dp2713
sg62
g2698
sg55
(lp2714
g48
(g49
g50
NtRp2715
(dp2716
g53
(dp2717
g61
I3
ssg62
g2711
sg55
(lp2718
g1186
asbasbasbag48
(g64
g50
NtRp2719
(dp2720
g53
(dp2721
sg62
g2610
sg55
(lp2722
g48
(g69
g50
NtRp2723
(dp2724
g53
(dp2725
g73
g74
ssg62
g2719
sg55
(lp2726
S'HTTP_CONNECTION'
p2727
asbag48
(g69
g50
NtRp2728
(dp2729
g53
(dp2730
g80
g81
ssg62
g2719
sg55
(lp2731
S':'
asbag48
(g69
g50
NtRp2732
(dp2733
g53
(dp2734
sg62
g2719
sg55
(lp2735
g48
(g49
g50
NtRp2736
(dp2737
g53
(dp2738
g61
I3
ssg62
g2732
sg55
(lp2739
g1208
asbasbasbag48
(g64
g50
NtRp2740
(dp2741
g53
(dp2742
sg62
g2610
sg55
(lp2743
g48
(g69
g50
NtRp2744
(dp2745
g53
(dp2746
g73
g74
ssg62
g2740
sg55
(lp2747
S'HTTP_CONTENT_LENGTH'
p2748
asbag48
(g69
g50
NtRp2749
(dp2750
g53
(dp2751
g80
g81
ssg62
g2740
sg55
(lp2752
S':'
asbag48
(g69
g50
NtRp2753
(dp2754
g53
(dp2755
sg62
g2740
sg55
(lp2756
g48
(g49
g50
NtRp2757
(dp2758
g53
(dp2759
g61
I3
ssg62
g2753
sg55
(lp2760
S'0'
asbasbasbag48
(g64
g50
NtRp2761
(dp2762
g53
(dp2763
sg62
g2610
sg55
(lp2764
g48
(g69
g50
NtRp2765
(dp2766
g53
(dp2767
g73
g74
ssg62
g2761
sg55
(lp2768
S'HTTP_COOKIE'
p2769
asbag48
(g69
g50
NtRp2770
(dp2771
g53
(dp2772
g80
g81
ssg62
g2761
sg55
(lp2773
S':'
asbag48
(g69
g50
NtRp2774
(dp2775
g53
(dp2776
sg62
g2761
sg55
(lp2777
g48
(g49
g50
NtRp2778
(dp2779
g53
(dp2780
g61
I3
ssg62
g2774
sg55
(lp2781
g1251
asbasbasbag48
(g64
g50
NtRp2782
(dp2783
g53
(dp2784
sg62
g2610
sg55
(lp2785
g48
(g69
g50
NtRp2786
(dp2787
g53
(dp2788
g73
g74
ssg62
g2782
sg55
(lp2789
S'HTTP_HOST'
p2790
asbag48
(g69
g50
NtRp2791
(dp2792
g53
(dp2793
g80
g81
ssg62
g2782
sg55
(lp2794
S':'
asbag48
(g69
g50
NtRp2795
(dp2796
g53
(dp2797
sg62
g2782
sg55
(lp2798
g48
(g49
g50
NtRp2799
(dp2800
g53
(dp2801
g61
I3
ssg62
g2795
sg55
(lp2802
g1273
asbasbasbag48
(g64
g50
NtRp2803
(dp2804
g53
(dp2805
sg62
g2610
sg55
(lp2806
g48
(g69
g50
NtRp2807
(dp2808
g53
(dp2809
g73
g74
ssg62
g2803
sg55
(lp2810
S'HTTP_ORIGIN'
p2811
asbag48
(g69
g50
NtRp2812
(dp2813
g53
(dp2814
g80
g81
ssg62
g2803
sg55
(lp2815
S':'
asbag48
(g69
g50
NtRp2816
(dp2817
g53
(dp2818
sg62
g2803
sg55
(lp2819
g48
(g49
g50
NtRp2820
(dp2821
g53
(dp2822
g61
I3
ssg62
g2816
sg55
(lp2823
g1295
asbasbasbag48
(g64
g50
NtRp2824
(dp2825
g53
(dp2826
sg62
g2610
sg55
(lp2827
g48
(g69
g50
NtRp2828
(dp2829
g53
(dp2830
g73
g74
ssg62
g2824
sg55
(lp2831
S'HTTP_REFERER'
p2832
asbag48
(g69
g50
NtRp2833
(dp2834
g53
(dp2835
g80
g81
ssg62
g2824
sg55
(lp2836
S':'
asbag48
(g69
g50
NtRp2837
(dp2838
g53
(dp2839
sg62
g2824
sg55
(lp2840
g48
(g49
g50
NtRp2841
(dp2842
g53
(dp2843
g61
I3
ssg62
g2837
sg55
(lp2844
g1317
asbasbasbag48
(g64
g50
NtRp2845
(dp2846
g53
(dp2847
sg62
g2610
sg55
(lp2848
g48
(g69
g50
NtRp2849
(dp2850
g53
(dp2851
g73
g74
ssg62
g2845
sg55
(lp2852
S'HTTP_USER_AGENT'
p2853
asbag48
(g69
g50
NtRp2854
(dp2855
g53
(dp2856
g80
g81
ssg62
g2845
sg55
(lp2857
S':'
asbag48
(g69
g50
NtRp2858
(dp2859
g53
(dp2860
sg62
g2845
sg55
(lp2861
g48
(g49
g50
NtRp2862
(dp2863
g53
(dp2864
g61
I3
ssg62
g2858
sg55
(lp2865
g1339
asbasbasbag48
(g64
g50
NtRp2866
(dp2867
g53
(dp2868
sg62
g2610
sg55
(lp2869
g48
(g69
g50
NtRp2870
(dp2871
g53
(dp2872
g73
g74
ssg62
g2866
sg55
(lp2873
S'HTTP_X_REQUESTED_WITH'
p2874
asbag48
(g69
g50
NtRp2875
(dp2876
g53
(dp2877
g80
g81
ssg62
g2866
sg55
(lp2878
S':'
asbag48
(g69
g50
NtRp2879
(dp2880
g53
(dp2881
sg62
g2866
sg55
(lp2882
g48
(g49
g50
NtRp2883
(dp2884
g53
(dp2885
g61
I3
ssg62
g2879
sg55
(lp2886
g1361
asbasbasbag48
(g64
g50
NtRp2887
(dp2888
g53
(dp2889
sg62
g2610
sg55
(lp2890
g48
(g69
g50
NtRp2891
(dp2892
g53
(dp2893
g73
g74
ssg62
g2887
sg55
(lp2894
S'PATH_INFO'
p2895
asbag48
(g69
g50
NtRp2896
(dp2897
g53
(dp2898
g80
g81
ssg62
g2887
sg55
(lp2899
S':'
asbag48
(g69
g50
NtRp2900
(dp2901
g53
(dp2902
sg62
g2887
sg55
(lp2903
g48
(g49
g50
NtRp2904
(dp2905
g53
(dp2906
g61
I3
ssg62
g2900
sg55
(lp2907
g1404
asbasbasbag48
(g64
g50
NtRp2908
(dp2909
g53
(dp2910
sg62
g2610
sg55
(lp2911
g48
(g69
g50
NtRp2912
(dp2913
g53
(dp2914
g73
g74
ssg62
g2908
sg55
(lp2915
S'QUERY_STRING'
p2916
asbag48
(g69
g50
NtRp2917
(dp2918
g53
(dp2919
g80
g81
ssg62
g2908
sg55
(lp2920
S':'
asbag48
(g69
g50
NtRp2921
(dp2922
g53
(dp2923
sg62
g2908
sg55
(lp2924
g48
(g49
g50
NtRp2925
(dp2926
g53
(dp2927
g61
I3
ssg62
g2921
sg55
(lp2928
S''
asbasbasbag48
(g64
g50
NtRp2929
(dp2930
g53
(dp2931
sg62
g2610
sg55
(lp2932
g48
(g69
g50
NtRp2933
(dp2934
g53
(dp2935
g73
g74
ssg62
g2929
sg55
(lp2936
S'REMOTE_ADDR'
p2937
asbag48
(g69
g50
NtRp2938
(dp2939
g53
(dp2940
g80
g81
ssg62
g2929
sg55
(lp2941
S':'
asbag48
(g69
g50
NtRp2942
(dp2943
g53
(dp2944
sg62
g2929
sg55
(lp2945
g48
(g49
g50
NtRp2946
(dp2947
g53
(dp2948
g61
I3
ssg62
g2942
sg55
(lp2949
g181
asbasbasbag48
(g64
g50
NtRp2950
(dp2951
g53
(dp2952
sg62
g2610
sg55
(lp2953
g48
(g69
g50
NtRp2954
(dp2955
g53
(dp2956
g73
g74
ssg62
g2950
sg55
(lp2957
S'REMOTE_PORT'
p2958
asbag48
(g69
g50
NtRp2959
(dp2960
g53
(dp2961
g80
g81
ssg62
g2950
sg55
(lp2962
S':'
asbag48
(g69
g50
NtRp2963
(dp2964
g53
(dp2965
sg62
g2950
sg55
(lp2966
g48
(g49
g50
NtRp2967
(dp2968
g53
(dp2969
g61
I3
ssg62
g2963
sg55
(lp2970
g1468
asbasbasbag48
(g64
g50
NtRp2971
(dp2972
g53
(dp2973
sg62
g2610
sg55
(lp2974
g48
(g69
g50
NtRp2975
(dp2976
g53
(dp2977
g73
g74
ssg62
g2971
sg55
(lp2978
S'REQUEST_METHOD'
p2979
asbag48
(g69
g50
NtRp2980
(dp2981
g53
(dp2982
g80
g81
ssg62
g2971
sg55
(lp2983
S':'
asbag48
(g69
g50
NtRp2984
(dp2985
g53
(dp2986
sg62
g2971
sg55
(lp2987
g48
(g49
g50
NtRp2988
(dp2989
g53
(dp2990
g61
I3
ssg62
g2984
sg55
(lp2991
g1490
asbasbasbag48
(g64
g50
NtRp2992
(dp2993
g53
(dp2994
sg62
g2610
sg55
(lp2995
g48
(g69
g50
NtRp2996
(dp2997
g53
(dp2998
g73
g74
ssg62
g2992
sg55
(lp2999
S'REQUEST_URI'
p3000
asbag48
(g69
g50
NtRp3001
(dp3002
g53
(dp3003
g80
g81
ssg62
g2992
sg55
(lp3004
S':'
asbag48
(g69
g50
NtRp3005
(dp3006
g53
(dp3007
sg62
g2992
sg55
(lp3008
g48
(g49
g50
NtRp3009
(dp3010
g53
(dp3011
g61
I3
ssg62
g3005
sg55
(lp3012
g1404
asbasbasbag48
(g64
g50
NtRp3013
(dp3014
g53
(dp3015
sg62
g2610
sg55
(lp3016
g48
(g69
g50
NtRp3017
(dp3018
g53
(dp3019
g73
g74
ssg62
g3013
sg55
(lp3020
S'SCRIPT_NAME'
p3021
asbag48
(g69
g50
NtRp3022
(dp3023
g53
(dp3024
g80
g81
ssg62
g3013
sg55
(lp3025
S':'
asbag48
(g69
g50
NtRp3026
(dp3027
g53
(dp3028
sg62
g3013
sg55
(lp3029
g48
(g49
g50
NtRp3030
(dp3031
g53
(dp3032
g61
I3
ssg62
g3026
sg55
(lp3033
S''
asbasbasbag48
(g64
g50
NtRp3034
(dp3035
g53
(dp3036
sg62
g2610
sg55
(lp3037
g48
(g69
g50
NtRp3038
(dp3039
g53
(dp3040
g73
g74
ssg62
g3034
sg55
(lp3041
S'SERVER_NAME'
p3042
asbag48
(g69
g50
NtRp3043
(dp3044
g53
(dp3045
g80
g81
ssg62
g3034
sg55
(lp3046
S':'
asbag48
(g69
g50
NtRp3047
(dp3048
g53
(dp3049
sg62
g3034
sg55
(lp3050
g48
(g49
g50
NtRp3051
(dp3052
g53
(dp3053
g61
I3
ssg62
g3047
sg55
(lp3054
g1554
asbasbasbag48
(g64
g50
NtRp3055
(dp3056
g53
(dp3057
sg62
g2610
sg55
(lp3058
g48
(g69
g50
NtRp3059
(dp3060
g53
(dp3061
g73
g74
ssg62
g3055
sg55
(lp3062
S'SERVER_PORT'
p3063
asbag48
(g69
g50
NtRp3064
(dp3065
g53
(dp3066
g80
g81
ssg62
g3055
sg55
(lp3067
S':'
asbag48
(g69
g50
NtRp3068
(dp3069
g53
(dp3070
sg62
g3055
sg55
(lp3071
g48
(g49
g50
NtRp3072
(dp3073
g53
(dp3074
g61
I3
ssg62
g3068
sg55
(lp3075
g1576
asbasbasbag48
(g64
g50
NtRp3076
(dp3077
g53
(dp3078
sg62
g2610
sg55
(lp3079
g48
(g69
g50
NtRp3080
(dp3081
g53
(dp3082
g73
g74
ssg62
g3076
sg55
(lp3083
S'SERVER_PROTOCOL'
p3084
asbag48
(g69
g50
NtRp3085
(dp3086
g53
(dp3087
g80
g81
ssg62
g3076
sg55
(lp3088
S':'
asbag48
(g69
g50
NtRp3089
(dp3090
g53
(dp3091
sg62
g3076
sg55
(lp3092
g48
(g49
g50
NtRp3093
(dp3094
g53
(dp3095
g61
I3
ssg62
g3089
sg55
(lp3096
g1598
asbasbasbag48
(g64
g50
NtRp3097
(dp3098
g53
(dp3099
sg62
g2610
sg55
(lp3100
g48
(g69
g50
NtRp3101
(dp3102
g53
(dp3103
g73
g74
ssg62
g3097
sg55
(lp3104
S'SERVER_SOFTWARE'
p3105
asbag48
(g69
g50
NtRp3106
(dp3107
g53
(dp3108
g80
g81
ssg62
g3097
sg55
(lp3109
S':'
asbag48
(g69
g50
NtRp3110
(dp3111
g53
(dp3112
sg62
g3097
sg55
(lp3113
g48
(g49
g50
NtRp3114
(dp3115
g53
(dp3116
g61
I3
ssg62
g3110
sg55
(lp3117
g1620
asbasbasbag48
(g64
g50
NtRp3118
(dp3119
g53
(dp3120
sg62
g2610
sg55
(lp3121
g48
(g69
g50
NtRp3122
(dp3123
g53
(dp3124
g73
g74
ssg62
g3118
sg55
(lp3125
S'WEB2PY_ORIGINAL_URI'
p3126
asbag48
(g69
g50
NtRp3127
(dp3128
g53
(dp3129
g80
g81
ssg62
g3118
sg55
(lp3130
S':'
asbag48
(g69
g50
NtRp3131
(dp3132
g53
(dp3133
sg62
g3118
sg55
(lp3134
g48
(g49
g50
NtRp3135
(dp3136
g53
(dp3137
g61
I3
ssg62
g3131
sg55
(lp3138
g1664
asbasbasbag48
(g64
g50
NtRp3139
(dp3140
g53
(dp3141
sg62
g2610
sg55
(lp3142
g48
(g69
g50
NtRp3143
(dp3144
g53
(dp3145
g73
g74
ssg62
g3139
sg55
(lp3146
S'wsgi.errors'
p3147
asbag48
(g69
g50
NtRp3148
(dp3149
g53
(dp3150
g80
g81
ssg62
g3139
sg55
(lp3151
S':'
asbag48
(g69
g50
NtRp3152
(dp3153
g53
(dp3154
sg62
g3139
sg55
(lp3155
g48
(g49
g50
NtRp3156
(dp3157
g53
(dp3158
g61
I3
ssg62
g3152
sg55
(lp3159
S"<open file '<stderr>', mode 'w' at 0x01D500B0>"
p3160
asbasbasbag48
(g64
g50
NtRp3161
(dp3162
g53
(dp3163
sg62
g2610
sg55
(lp3164
g48
(g69
g50
NtRp3165
(dp3166
g53
(dp3167
g73
g74
ssg62
g3161
sg55
(lp3168
S'wsgi.file_wrapper'
p3169
asbag48
(g69
g50
NtRp3170
(dp3171
g53
(dp3172
g80
g81
ssg62
g3161
sg55
(lp3173
S':'
asbag48
(g69
g50
NtRp3174
(dp3175
g53
(dp3176
sg62
g3161
sg55
(lp3177
g48
(g49
g50
NtRp3178
(dp3179
g53
(dp3180
g61
I3
ssg62
g3174
sg55
(lp3181
S'<class wsgiref.util.FileWrapper at 0x037E5480>'
p3182
asbasbasbag48
(g64
g50
NtRp3183
(dp3184
g53
(dp3185
sg62
g2610
sg55
(lp3186
g48
(g69
g50
NtRp3187
(dp3188
g53
(dp3189
g73
g74
ssg62
g3183
sg55
(lp3190
S'wsgi.input'
p3191
asbag48
(g69
g50
NtRp3192
(dp3193
g53
(dp3194
g80
g81
ssg62
g3183
sg55
(lp3195
S':'
asbag48
(g69
g50
NtRp3196
(dp3197
g53
(dp3198
sg62
g3183
sg55
(lp3199
g48
(g49
g50
NtRp3200
(dp3201
g53
(dp3202
g61
I3
ssg62
g3196
sg55
(lp3203
S"<open file '<fdopen>', mode 'w+b' at 0x096BEE30>"
p3204
asbasbasbag48
(g64
g50
NtRp3205
(dp3206
g53
(dp3207
sg62
g2610
sg55
(lp3208
g48
(g69
g50
NtRp3209
(dp3210
g53
(dp3211
g73
g74
ssg62
g3205
sg55
(lp3212
S'wsgi.multiprocess'
p3213
asbag48
(g69
g50
NtRp3214
(dp3215
g53
(dp3216
g80
g81
ssg62
g3205
sg55
(lp3217
S':'
asbag48
(g69
g50
NtRp3218
(dp3219
g53
(dp3220
sg62
g3205
sg55
(lp3221
g48
(g49
g50
NtRp3222
(dp3223
g53
(dp3224
g61
I3
ssg62
g3218
sg55
(lp3225
g1076
asbasbasbag48
(g64
g50
NtRp3226
(dp3227
g53
(dp3228
sg62
g2610
sg55
(lp3229
g48
(g69
g50
NtRp3230
(dp3231
g53
(dp3232
g73
g74
ssg62
g3226
sg55
(lp3233
S'wsgi.multithread'
p3234
asbag48
(g69
g50
NtRp3235
(dp3236
g53
(dp3237
g80
g81
ssg62
g3226
sg55
(lp3238
S':'
asbag48
(g69
g50
NtRp3239
(dp3240
g53
(dp3241
sg62
g3226
sg55
(lp3242
g48
(g49
g50
NtRp3243
(dp3244
g53
(dp3245
g61
I3
ssg62
g3239
sg55
(lp3246
g91
asbasbasbag48
(g64
g50
NtRp3247
(dp3248
g53
(dp3249
sg62
g2610
sg55
(lp3250
g48
(g69
g50
NtRp3251
(dp3252
g53
(dp3253
g73
g74
ssg62
g3247
sg55
(lp3254
S'wsgi.run_once'
p3255
asbag48
(g69
g50
NtRp3256
(dp3257
g53
(dp3258
g80
g81
ssg62
g3247
sg55
(lp3259
S':'
asbag48
(g69
g50
NtRp3260
(dp3261
g53
(dp3262
sg62
g3247
sg55
(lp3263
g48
(g49
g50
NtRp3264
(dp3265
g53
(dp3266
g61
I3
ssg62
g3260
sg55
(lp3267
g1076
asbasbasbag48
(g64
g50
NtRp3268
(dp3269
g53
(dp3270
sg62
g2610
sg55
(lp3271
g48
(g69
g50
NtRp3272
(dp3273
g53
(dp3274
g73
g74
ssg62
g3268
sg55
(lp3275
S'wsgi.url_scheme'
p3276
asbag48
(g69
g50
NtRp3277
(dp3278
g53
(dp3279
g80
g81
ssg62
g3268
sg55
(lp3280
S':'
asbag48
(g69
g50
NtRp3281
(dp3282
g53
(dp3283
sg62
g3268
sg55
(lp3284
g48
(g49
g50
NtRp3285
(dp3286
g53
(dp3287
g61
I3
ssg62
g3281
sg55
(lp3288
g1924
asbasbasbag48
(g64
g50
NtRp3289
(dp3290
g53
(dp3291
sg62
g2610
sg55
(lp3292
g48
(g69
g50
NtRp3293
(dp3294
g53
(dp3295
g73
g74
ssg62
g3289
sg55
(lp3296
S'wsgi.version'
p3297
asbag48
(g69
g50
NtRp3298
(dp3299
g53
(dp3300
g80
g81
ssg62
g3289
sg55
(lp3301
S':'
asbag48
(g69
g50
NtRp3302
(dp3303
g53
(dp3304
sg62
g3289
sg55
(lp3305
g48
(g49
g50
NtRp3306
(dp3307
g53
(dp3308
g61
I3
ssg62
g3302
sg55
(lp3309
S'1'
asbasbasbasbasbasbasbasbasbasbasbasbasbsS'frames'
p3310
(lp3311
(dp3312
S'file'
p3313
S'D:\\Dropbox\\Eclipse\\OJDevSourceProject\\project\\web2py\\gluon\\restricted.py'
p3314
sS'dump'
p3315
(dp3316
S'environment'
p3317
S"{'A': <class 'gluon.html.A'>, 'ALLOW_TOGGLE': 'true', 'B': <class 'gluon.html.B'>, 'BEAUTIFY': <class 'gluon.html.BEAUTIFY'>, 'BODY': <class 'gluon.html.BODY'>, 'BR': <class 'gluon.html.BR'>, 'BUTTON': <class 'gluon.html.BUTTON'>, 'CAT': <class 'gluon.html.CAT'>, 'CENTER': <class 'gluon.html.CENTER'>, 'CHECK_VERSION': True, ...}"
p3318
sS'ccode'
p3319
S'<code object <module> at 047F20B0, file "D:\\Drop...plications\\admin\\controllers/default.py", line 3>'
p3320
ssS'lnum'
p3321
I194
sS'lines'
p3322
(dp3323
I192
S'        else:'
p3324
sI193
S'            ccode = compile2(code,layer)'
p3325
sI194
S'        exec ccode in environment'
p3326
sI195
S'    except HTTP:'
p3327
sI196
S'        raise'
p3328
sI197
S'    except Exception, error:'
p3329
sI198
S'        # XXX Show exception in Wing IDE if running in debugger'
p3330
sI189
S'    try:'
p3331
sI190
S'        if type(code) == types.CodeType:'
p3332
sI191
S'            ccode = code'
p3333
ssS'call'
p3334
S"(code='# coding: utf8\\n\\nfrom gluon.admin import *\\nfrom g...\\n\\nresponse._vars=response._caller(check_version)\\n', environment={'A': <class 'gluon.html.A'>, 'ALLOW_TOGGLE': 'true', 'B': <class 'gluon.html.B'>, 'BEAUTIFY': <class 'gluon.html.BEAUTIFY'>, 'BODY': <class 'gluon.html.BODY'>, 'BR': <class 'gluon.html.BR'>, 'BUTTON': <class 'gluon.html.BUTTON'>, 'CAT': <class 'gluon.html.CAT'>, 'CENTER': <class 'gluon.html.CENTER'>, 'CHECK_VERSION': True, ...}, layer=r'D:\\Dropbox\\Eclipse\\OJDevSourceProject\\project\\web2py\\applications\\admin\\controllers/default.py')"
p3335
sS'func'
p3336
S'restricted'
p3337
sa(dp3338
g3313
S'D:\\Dropbox\\Eclipse\\OJDevSourceProject\\project\\web2py\\applications\\admin\\controllers\\default.py'
p3339
sg3315
(dp3340
sg3321
I1225
sg3322
(dp3341
I1216
S'    else:'
p3342
sI1217
S'        return dict(form=T("Disabled"))'
p3343
sI1218
S''
sI1219
S'def reload_routes():'
p3344
sI1220
S'    """ Reload routes.py """'
p3345
sI1221
S'    import gluon.rewrite'
p3346
sI1222
S'    gluon.rewrite.load()'
p3347
sI1223
S"    redirect(URL('site'))"
p3348
sI1214
S'            auth.settings.registration_requires_approval = False'
p3349
sI1215
S'        return dict(form=auth())'
p3350
ssg3334
S'()'
p3351
sg3336
S'<module>'
p3352
sa(dp3353
g3313
S'D:\\Dropbox\\Eclipse\\OJDevSourceProject\\project\\web2py\\gluon\\globals.py'
p3354
sg3315
(dp3355
S'self'
p3356
S'undefined'
p3357
sS'f'
S'<function check_version at 0x046AE4B0>'
p3358
ssg3321
I149
sg3322
(dp3359
I144
S'        self.meta = Storage()      # used by web2py_ajax.html'
p3360
sI145
S'        self.menu = []             # used by the default view layout'
p3361
sI146
S'        self.files = []            # used by web2py_ajax.html'
p3362
sI147
S'        self.generic_patterns = [] # patterns to allow generic views'
p3363
sI148
S'        self._vars = None'
p3364
sI149
S'        self._caller = lambda f: f()'
p3365
sI150
S'        self._view_environment = None'
p3366
sI151
S'        self._custom_commit = None'
p3367
sI152
S'        self._custom_rollback = None'
p3368
sI153
S''
ssg3334
S'(f=<function check_version at 0x046AE4B0>)'
p3369
sg3336
S'<lambda>'
p3370
sa(dp3371
g3313
S'D:\\Dropbox\\Eclipse\\OJDevSourceProject\\project\\web2py\\applications\\admin\\controllers\\default.py'
p3372
sg3315
(dp3373
S'global XML'
p3374
S"<class 'gluon.html.XML'>"
p3375
sS'version_number'
p3376
S"(1, 99, 4, datetime.datetime(2011, 12, 14, 14, 46, 14), 'stable')"
p3377
ssg3321
I105
sg3322
(dp3378
I100
S"        return A(T('web2py is up to date'), _href=WEB2PY_URL)"
p3379
sI101
S'    elif platform.system().lower() in (\'windows\',\'win32\',\'win64\') and os.path.exists("web2py.exe"):'
p3380
sI102
S"        return SPAN('You should upgrade to version %s' % version_number)"
p3381
sI103
S'    else:'
p3382
sI104
S"        return sp_button(URL('upgrade_web2py'), T('upgrade now')) \\"
p3383
sI105
S'          + XML(\' <strong class="upgrade_version">%s</strong>\' % version_number)'
p3384
sI106
S''
sI107
S''
sI108
S'def logout():'
p3385
sI109
S'    """ Logout handler """'
p3386
ssg3334
S'()'
p3387
sg3336
S'check_version'
p3388
sasS'pyver'
p3389
S'Python 2.5.4: C:\\python25\\python.exe'
p3390
sS'session'
p3391
g48
(g49
g50
NtRp3392
(dp3393
g53
(dp3394
sg55
(lp3395
g48
(g57
g50
NtRp3396
(dp3397
g53
(dp3398
g61
I5
ssg62
Nsg55
(lp3399
g48
(g64
g50
NtRp3400
(dp3401
g53
(dp3402
sg62
g3396
sg55
(lp3403
g48
(g69
g50
NtRp3404
(dp3405
g53
(dp3406
g73
g74
ssg62
g3400
sg55
(lp3407
S'authorized'
p3408
asbag48
(g69
g50
NtRp3409
(dp3410
g53
(dp3411
g80
g81
ssg62
g3400
sg55
(lp3412
S':'
asbag48
(g69
g50
NtRp3413
(dp3414
g53
(dp3415
sg62
g3400
sg55
(lp3416
g48
(g49
g50
NtRp3417
(dp3418
g53
(dp3419
g61
I5
ssg62
g3413
sg55
(lp3420
g91
asbasbasbag48
(g64
g50
NtRp3421
(dp3422
g53
(dp3423
sg62
g3396
sg55
(lp3424
g48
(g69
g50
NtRp3425
(dp3426
g53
(dp3427
g73
g74
ssg62
g3421
sg55
(lp3428
S'check_version'
p3429
asbag48
(g69
g50
NtRp3430
(dp3431
g53
(dp3432
g80
g81
ssg62
g3421
sg55
(lp3433
S':'
asbag48
(g69
g50
NtRp3434
(dp3435
g53
(dp3436
sg62
g3421
sg55
(lp3437
g48
(g49
g50
NtRp3438
(dp3439
g53
(dp3440
g61
I5
ssg62
g3434
sg55
(lp3441
g1076
asbasbasbag48
(g64
g50
NtRp3442
(dp3443
g53
(dp3444
sg62
g3396
sg55
(lp3445
g48
(g69
g50
NtRp3446
(dp3447
g53
(dp3448
g73
g74
ssg62
g3442
sg55
(lp3449
S'last_time'
p3450
asbag48
(g69
g50
NtRp3451
(dp3452
g53
(dp3453
g80
g81
ssg62
g3442
sg55
(lp3454
S':'
asbag48
(g69
g50
NtRp3455
(dp3456
g53
(dp3457
sg62
g3442
sg55
(lp3458
g48
(g49
g50
NtRp3459
(dp3460
g53
(dp3461
g61
I5
ssg62
g3455
sg55
(lp3462
S'1326251699.5869999'
p3463
asbasbasbasbasbsS'etype'
p3464
S"<type 'exceptions.TypeError'>"
p3465
sS'date'
p3466
S'Wed Jan 11 14:14:59 2012'
p3467
sS'response'
p3468
g48
(g49
g50
NtRp3469
(dp3470
g53
(dp3471
sg55
(lp3472
g48
(g57
g50
NtRp3473
(dp3474
g53
(dp3475
g61
I5
ssg62
Nsg55
(lp3476
g48
(g64
g50
NtRp3477
(dp3478
g53
(dp3479
sg62
g3473
sg55
(lp3480
g48
(g69
g50
NtRp3481
(dp3482
g53
(dp3483
g73
g74
ssg62
g3477
sg55
(lp3484
g146
asbag48
(g69
g50
NtRp3485
(dp3486
g53
(dp3487
g80
g81
ssg62
g3477
sg55
(lp3488
S':'
asbag48
(g69
g50
NtRp3489
(dp3490
g53
(dp3491
sg62
g3477
sg55
(lp3492
g48
(g49
g50
NtRp3493
(dp3494
g53
(dp3495
g61
I5
ssg62
g3489
sg55
(lp3496
S'<cStringIO.StringO object at 0x09941760>'
p3497
asbasbasbag48
(g64
g50
NtRp3498
(dp3499
g53
(dp3500
sg62
g3473
sg55
(lp3501
g48
(g69
g50
NtRp3502
(dp3503
g53
(dp3504
g73
g74
ssg62
g3498
sg55
(lp3505
g212
asbag48
(g69
g50
NtRp3506
(dp3507
g53
(dp3508
g80
g81
ssg62
g3498
sg55
(lp3509
S':'
asbag48
(g69
g50
NtRp3510
(dp3511
g53
(dp3512
sg62
g3498
sg55
(lp3513
g48
(g49
g50
NtRp3514
(dp3515
g53
(dp3516
g61
I5
ssg62
g3510
sg55
(lp3517
g48
(g57
g50
NtRp3518
(dp3519
g53
(dp3520
g61
I4
ssg62
Nsg55
(lp3521
g48
(g64
g50
NtRp3522
(dp3523
g53
(dp3524
sg62
g3518
sg55
(lp3525
g48
(g69
g50
NtRp3526
(dp3527
g53
(dp3528
g73
g74
ssg62
g3522
sg55
(lp3529
S'session_id_admin'
p3530
asbag48
(g69
g50
NtRp3531
(dp3532
g53
(dp3533
g80
g81
ssg62
g3522
sg55
(lp3534
S':'
asbag48
(g69
g50
NtRp3535
(dp3536
g53
(dp3537
sg62
g3522
sg55
(lp3538
g48
(g49
g50
NtRp3539
(dp3540
g53
(dp3541
g61
I4
ssg62
g3535
sg55
(lp3542
g48
(g57
g50
NtRp3543
(dp3544
g53
(dp3545
g61
I3
ssg62
Nsg55
(lp3546
g48
(g64
g50
NtRp3547
(dp3548
g53
(dp3549
sg62
g3543
sg55
(lp3550
g48
(g69
g50
NtRp3551
(dp3552
g53
(dp3553
g73
g74
ssg62
g3547
sg55
(lp3554
g262
asbag48
(g69
g50
NtRp3555
(dp3556
g53
(dp3557
g80
g81
ssg62
g3547
sg55
(lp3558
S':'
asbag48
(g69
g50
NtRp3559
(dp3560
g53
(dp3561
sg62
g3547
sg55
(lp3562
g48
(g49
g50
NtRp3563
(dp3564
g53
(dp3565
g61
I3
ssg62
g3559
sg55
(lp3566
S''
asbasbasbag48
(g64
g50
NtRp3567
(dp3568
g53
(dp3569
sg62
g3543
sg55
(lp3570
g48
(g69
g50
NtRp3571
(dp3572
g53
(dp3573
g73
g74
ssg62
g3567
sg55
(lp3574
g283
asbag48
(g69
g50
NtRp3575
(dp3576
g53
(dp3577
g80
g81
ssg62
g3567
sg55
(lp3578
S':'
asbag48
(g69
g50
NtRp3579
(dp3580
g53
(dp3581
sg62
g3567
sg55
(lp3582
g48
(g49
g50
NtRp3583
(dp3584
g53
(dp3585
g61
I3
ssg62
g3579
sg55
(lp3586
S''
asbasbasbag48
(g64
g50
NtRp3587
(dp3588
g53
(dp3589
sg62
g3543
sg55
(lp3590
g48
(g69
g50
NtRp3591
(dp3592
g53
(dp3593
g73
g74
ssg62
g3587
sg55
(lp3594
g304
asbag48
(g69
g50
NtRp3595
(dp3596
g53
(dp3597
g80
g81
ssg62
g3587
sg55
(lp3598
S':'
asbag48
(g69
g50
NtRp3599
(dp3600
g53
(dp3601
sg62
g3587
sg55
(lp3602
g48
(g49
g50
NtRp3603
(dp3604
g53
(dp3605
g61
I3
ssg62
g3599
sg55
(lp3606
S''
asbasbasbag48
(g64
g50
NtRp3607
(dp3608
g53
(dp3609
sg62
g3543
sg55
(lp3610
g48
(g69
g50
NtRp3611
(dp3612
g53
(dp3613
g73
g74
ssg62
g3607
sg55
(lp3614
g325
asbag48
(g69
g50
NtRp3615
(dp3616
g53
(dp3617
g80
g81
ssg62
g3607
sg55
(lp3618
S':'
asbag48
(g69
g50
NtRp3619
(dp3620
g53
(dp3621
sg62
g3607
sg55
(lp3622
g48
(g49
g50
NtRp3623
(dp3624
g53
(dp3625
g61
I3
ssg62
g3619
sg55
(lp3626
S''
asbasbasbag48
(g64
g50
NtRp3627
(dp3628
g53
(dp3629
sg62
g3543
sg55
(lp3630
g48
(g69
g50
NtRp3631
(dp3632
g53
(dp3633
g73
g74
ssg62
g3627
sg55
(lp3634
g346
asbag48
(g69
g50
NtRp3635
(dp3636
g53
(dp3637
g80
g81
ssg62
g3627
sg55
(lp3638
S':'
asbag48
(g69
g50
NtRp3639
(dp3640
g53
(dp3641
sg62
g3627
sg55
(lp3642
g48
(g49
g50
NtRp3643
(dp3644
g53
(dp3645
g61
I3
ssg62
g3639
sg55
(lp3646
S'/'
asbasbasbag48
(g64
g50
NtRp3647
(dp3648
g53
(dp3649
sg62
g3543
sg55
(lp3650
g48
(g69
g50
NtRp3651
(dp3652
g53
(dp3653
g73
g74
ssg62
g3647
sg55
(lp3654
g367
asbag48
(g69
g50
NtRp3655
(dp3656
g53
(dp3657
g80
g81
ssg62
g3647
sg55
(lp3658
S':'
asbag48
(g69
g50
NtRp3659
(dp3660
g53
(dp3661
sg62
g3647
sg55
(lp3662
g48
(g49
g50
NtRp3663
(dp3664
g53
(dp3665
g61
I3
ssg62
g3659
sg55
(lp3666
S''
asbasbasbag48
(g64
g50
NtRp3667
(dp3668
g53
(dp3669
sg62
g3543
sg55
(lp3670
g48
(g69
g50
NtRp3671
(dp3672
g53
(dp3673
g73
g74
ssg62
g3667
sg55
(lp3674
g388
asbag48
(g69
g50
NtRp3675
(dp3676
g53
(dp3677
g80
g81
ssg62
g3667
sg55
(lp3678
S':'
asbag48
(g69
g50
NtRp3679
(dp3680
g53
(dp3681
sg62
g3667
sg55
(lp3682
g48
(g49
g50
NtRp3683
(dp3684
g53
(dp3685
g61
I3
ssg62
g3679
sg55
(lp3686
S''
asbasbasbasbasbasbasbasbasbasbasbag48
(g64
g50
NtRp3687
(dp3688
g53
(dp3689
sg62
g3473
sg55
(lp3690
g48
(g69
g50
NtRp3691
(dp3692
g53
(dp3693
g73
g74
ssg62
g3687
sg55
(lp3694
S'files'
p3695
asbag48
(g69
g50
NtRp3696
(dp3697
g53
(dp3698
g80
g81
ssg62
g3687
sg55
(lp3699
S':'
asbag48
(g69
g50
NtRp3700
(dp3701
g53
(dp3702
sg62
g3687
sg55
(lp3703
g48
(g49
g50
NtRp3704
(dp3705
g53
(dp3706
g61
I5
ssg62
g3700
sg55
(lp3707
g48
(g57
g50
NtRp3708
(dp3709
g53
(dp3710
g61
I4
ssg62
Nsg55
(lp3711
g48
(g64
g50
NtRp3712
(dp3713
g53
(dp3714
sg62
g3708
sg55
(lp3715
g48
(g69
g50
NtRp3716
(dp3717
g53
(dp3718
sg62
g3712
sg55
(lp3719
g48
(g49
g50
NtRp3720
(dp3721
g53
(dp3722
g61
I4
ssg62
g3716
sg55
(lp3723
S'/admin/static/plugin_multiselect/jquery.dimensions.js'
p3724
asbasbasbag48
(g64
g50
NtRp3725
(dp3726
g53
(dp3727
sg62
g3708
sg55
(lp3728
g48
(g69
g50
NtRp3729
(dp3730
g53
(dp3731
sg62
g3725
sg55
(lp3732
g48
(g49
g50
NtRp3733
(dp3734
g53
(dp3735
g61
I4
ssg62
g3729
sg55
(lp3736
S'/admin/static/plugin_multiselect/jquery.multiselect.js'
p3737
asbasbasbag48
(g64
g50
NtRp3738
(dp3739
g53
(dp3740
sg62
g3708
sg55
(lp3741
g48
(g69
g50
NtRp3742
(dp3743
g53
(dp3744
sg62
g3738
sg55
(lp3745
g48
(g49
g50
NtRp3746
(dp3747
g53
(dp3748
g61
I4
ssg62
g3742
sg55
(lp3749
S'/admin/static/plugin_multiselect/jquery.multiselect.css'
p3750
asbasbasbag48
(g64
g50
NtRp3751
(dp3752
g53
(dp3753
sg62
g3708
sg55
(lp3754
g48
(g69
g50
NtRp3755
(dp3756
g53
(dp3757
sg62
g3751
sg55
(lp3758
g48
(g49
g50
NtRp3759
(dp3760
g53
(dp3761
g61
I4
ssg62
g3755
sg55
(lp3762
S'/admin/static/plugin_multiselect/start.js'
p3763
asbasbasbasbasbasbasbag48
(g64
g50
NtRp3764
(dp3765
g53
(dp3766
sg62
g3473
sg55
(lp3767
g48
(g69
g50
NtRp3768
(dp3769
g53
(dp3770
g73
g74
ssg62
g3764
sg55
(lp3771
S'flash'
p3772
asbag48
(g69
g50
NtRp3773
(dp3774
g53
(dp3775
g80
g81
ssg62
g3764
sg55
(lp3776
S':'
asbag48
(g69
g50
NtRp3777
(dp3778
g53
(dp3779
sg62
g3764
sg55
(lp3780
g48
(g49
g50
NtRp3781
(dp3782
g53
(dp3783
g61
I5
ssg62
g3777
sg55
(lp3784
S''
asbasbasbag48
(g64
g50
NtRp3785
(dp3786
g53
(dp3787
sg62
g3473
sg55
(lp3788
g48
(g69
g50
NtRp3789
(dp3790
g53
(dp3791
g73
g74
ssg62
g3785
sg55
(lp3792
S'generic_patterns'
p3793
asbag48
(g69
g50
NtRp3794
(dp3795
g53
(dp3796
g80
g81
ssg62
g3785
sg55
(lp3797
S':'
asbag48
(g69
g50
NtRp3798
(dp3799
g53
(dp3800
sg62
g3785
sg55
(lp3801
g48
(g49
g50
NtRp3802
(dp3803
g53
(dp3804
g61
I5
ssg62
g3798
sg55
(lp3805
g48
(g57
g50
NtRp3806
(dp3807
g53
(dp3808
g61
I4
ssg62
Nsg55
(lp3809
sbasbasbasbag48
(g64
g50
NtRp3810
(dp3811
g53
(dp3812
sg62
g3473
sg55
(lp3813
g48
(g69
g50
NtRp3814
(dp3815
g53
(dp3816
g73
g74
ssg62
g3810
sg55
(lp3817
S'headers'
p3818
asbag48
(g69
g50
NtRp3819
(dp3820
g53
(dp3821
g80
g81
ssg62
g3810
sg55
(lp3822
S':'
asbag48
(g69
g50
NtRp3823
(dp3824
g53
(dp3825
sg62
g3810
sg55
(lp3826
g48
(g49
g50
NtRp3827
(dp3828
g53
(dp3829
g61
I5
ssg62
g3823
sg55
(lp3830
g48
(g57
g50
NtRp3831
(dp3832
g53
(dp3833
g61
I4
ssg62
Nsg55
(lp3834
g48
(g64
g50
NtRp3835
(dp3836
g53
(dp3837
sg62
g3831
sg55
(lp3838
g48
(g69
g50
NtRp3839
(dp3840
g53
(dp3841
g73
g74
ssg62
g3835
sg55
(lp3842
S'Cache-Control'
p3843
asbag48
(g69
g50
NtRp3844
(dp3845
g53
(dp3846
g80
g81
ssg62
g3835
sg55
(lp3847
S':'
asbag48
(g69
g50
NtRp3848
(dp3849
g53
(dp3850
sg62
g3835
sg55
(lp3851
g48
(g49
g50
NtRp3852
(dp3853
g53
(dp3854
g61
I4
ssg62
g3848
sg55
(lp3855
S'no-store, no-cache, must-revalidate, post-check=0, pre-check=0'
p3856
asbasbasbag48
(g64
g50
NtRp3857
(dp3858
g53
(dp3859
sg62
g3831
sg55
(lp3860
g48
(g69
g50
NtRp3861
(dp3862
g53
(dp3863
g73
g74
ssg62
g3857
sg55
(lp3864
S'Content-Type'
p3865
asbag48
(g69
g50
NtRp3866
(dp3867
g53
(dp3868
g80
g81
ssg62
g3857
sg55
(lp3869
S':'
asbag48
(g69
g50
NtRp3870
(dp3871
g53
(dp3872
sg62
g3857
sg55
(lp3873
g48
(g49
g50
NtRp3874
(dp3875
g53
(dp3876
g61
I4
ssg62
g3870
sg55
(lp3877
S'text/html; charset=utf-8'
p3878
asbasbasbag48
(g64
g50
NtRp3879
(dp3880
g53
(dp3881
sg62
g3831
sg55
(lp3882
g48
(g69
g50
NtRp3883
(dp3884
g53
(dp3885
g73
g74
ssg62
g3879
sg55
(lp3886
S'Expires'
p3887
asbag48
(g69
g50
NtRp3888
(dp3889
g53
(dp3890
g80
g81
ssg62
g3879
sg55
(lp3891
S':'
asbag48
(g69
g50
NtRp3892
(dp3893
g53
(dp3894
sg62
g3879
sg55
(lp3895
g48
(g49
g50
NtRp3896
(dp3897
g53
(dp3898
g61
I4
ssg62
g3892
sg55
(lp3899
S'Wed, 11 Jan 2012 03:14:59 GMT'
p3900
asbasbasbag48
(g64
g50
NtRp3901
(dp3902
g53
(dp3903
sg62
g3831
sg55
(lp3904
g48
(g69
g50
NtRp3905
(dp3906
g53
(dp3907
g73
g74
ssg62
g3901
sg55
(lp3908
S'NingNang'
p3909
asbag48
(g69
g50
NtRp3910
(dp3911
g53
(dp3912
g80
g81
ssg62
g3901
sg55
(lp3913
S':'
asbag48
(g69
g50
NtRp3914
(dp3915
g53
(dp3916
sg62
g3901
sg55
(lp3917
g48
(g49
g50
NtRp3918
(dp3919
g53
(dp3920
g61
I4
ssg62
g3914
sg55
(lp3921
S'Nong'
p3922
asbasbasbag48
(g64
g50
NtRp3923
(dp3924
g53
(dp3925
sg62
g3831
sg55
(lp3926
g48
(g69
g50
NtRp3927
(dp3928
g53
(dp3929
g73
g74
ssg62
g3923
sg55
(lp3930
S'Pragma'
p3931
asbag48
(g69
g50
NtRp3932
(dp3933
g53
(dp3934
g80
g81
ssg62
g3923
sg55
(lp3935
S':'
asbag48
(g69
g50
NtRp3936
(dp3937
g53
(dp3938
sg62
g3923
sg55
(lp3939
g48
(g49
g50
NtRp3940
(dp3941
g53
(dp3942
g61
I4
ssg62
g3936
sg55
(lp3943
S'no-cache'
p3944
asbasbasbasbasbasbasbag48
(g64
g50
NtRp3945
(dp3946
g53
(dp3947
sg62
g3473
sg55
(lp3948
g48
(g69
g50
NtRp3949
(dp3950
g53
(dp3951
g73
g74
ssg62
g3945
sg55
(lp3952
S'menu'
p3953
asbag48
(g69
g50
NtRp3954
(dp3955
g53
(dp3956
g80
g81
ssg62
g3945
sg55
(lp3957
S':'
asbag48
(g69
g50
NtRp3958
(dp3959
g53
(dp3960
sg62
g3945
sg55
(lp3961
g48
(g49
g50
NtRp3962
(dp3963
g53
(dp3964
g61
I5
ssg62
g3958
sg55
(lp3965
g48
(g57
g50
NtRp3966
(dp3967
g53
(dp3968
g61
I4
ssg62
Nsg55
(lp3969
g48
(g64
g50
NtRp3970
(dp3971
g53
(dp3972
sg62
g3966
sg55
(lp3973
g48
(g69
g50
NtRp3974
(dp3975
g53
(dp3976
sg62
g3970
sg55
(lp3977
g48
(g49
g50
NtRp3978
(dp3979
g53
(dp3980
g61
I4
ssg62
g3974
sg55
(lp3981
g48
(g57
g50
NtRp3982
(dp3983
g53
(dp3984
g61
I3
ssg62
Nsg55
(lp3985
g48
(g64
g50
NtRp3986
(dp3987
g53
(dp3988
sg62
g3982
sg55
(lp3989
g48
(g69
g50
NtRp3990
(dp3991
g53
(dp3992
sg62
g3986
sg55
(lp3993
g48
(g49
g50
NtRp3994
(dp3995
g53
(dp3996
g61
I3
ssg62
g3990
sg55
(lp3997
cgluon.languages
lazyT_unpickle
p3998
(S's\x04\x00\x00\x00Site'
tRp3999
asbasbasbag48
(g64
g50
NtRp4000
(dp4001
g53
(dp4002
sg62
g3982
sg55
(lp4003
g48
(g69
g50
NtRp4004
(dp4005
g53
(dp4006
sg62
g4000
sg55
(lp4007
g48
(g49
g50
NtRp4008
(dp4009
g53
(dp4010
g61
I3
ssg62
g4004
sg55
(lp4011
g1076
asbasbasbag48
(g64
g50
NtRp4012
(dp4013
g53
(dp4014
sg62
g3982
sg55
(lp4015
g48
(g69
g50
NtRp4016
(dp4017
g53
(dp4018
sg62
g4012
sg55
(lp4019
g48
(g49
g50
NtRp4020
(dp4021
g53
(dp4022
g61
I3
ssg62
g4016
sg55
(lp4023
S'/admin/default/site'
p4024
asbasbasbasbasbasbasbag48
(g64
g50
NtRp4025
(dp4026
g53
(dp4027
sg62
g3966
sg55
(lp4028
g48
(g69
g50
NtRp4029
(dp4030
g53
(dp4031
sg62
g4025
sg55
(lp4032
g48
(g49
g50
NtRp4033
(dp4034
g53
(dp4035
g61
I4
ssg62
g4029
sg55
(lp4036
g48
(g57
g50
NtRp4037
(dp4038
g53
(dp4039
g61
I3
ssg62
Nsg55
(lp4040
g48
(g64
g50
NtRp4041
(dp4042
g53
(dp4043
sg62
g4037
sg55
(lp4044
g48
(g69
g50
NtRp4045
(dp4046
g53
(dp4047
sg62
g4041
sg55
(lp4048
g48
(g49
g50
NtRp4049
(dp4050
g53
(dp4051
g61
I3
ssg62
g4045
sg55
(lp4052
g3998
(S's\x06\x00\x00\x00Logout'
tRp4053
asbasbasbag48
(g64
g50
NtRp4054
(dp4055
g53
(dp4056
sg62
g4037
sg55
(lp4057
g48
(g69
g50
NtRp4058
(dp4059
g53
(dp4060
sg62
g4054
sg55
(lp4061
g48
(g49
g50
NtRp4062
(dp4063
g53
(dp4064
g61
I3
ssg62
g4058
sg55
(lp4065
g1076
asbasbasbag48
(g64
g50
NtRp4066
(dp4067
g53
(dp4068
sg62
g4037
sg55
(lp4069
g48
(g69
g50
NtRp4070
(dp4071
g53
(dp4072
sg62
g4066
sg55
(lp4073
g48
(g49
g50
NtRp4074
(dp4075
g53
(dp4076
g61
I3
ssg62
g4070
sg55
(lp4077
S'/admin/default/logout'
p4078
asbasbasbasbasbasbasbag48
(g64
g50
NtRp4079
(dp4080
g53
(dp4081
sg62
g3966
sg55
(lp4082
g48
(g69
g50
NtRp4083
(dp4084
g53
(dp4085
sg62
g4079
sg55
(lp4086
g48
(g49
g50
NtRp4087
(dp4088
g53
(dp4089
g61
I4
ssg62
g4083
sg55
(lp4090
g48
(g57
g50
NtRp4091
(dp4092
g53
(dp4093
g61
I3
ssg62
Nsg55
(lp4094
g48
(g64
g50
NtRp4095
(dp4096
g53
(dp4097
sg62
g4091
sg55
(lp4098
g48
(g69
g50
NtRp4099
(dp4100
g53
(dp4101
sg62
g4095
sg55
(lp4102
g48
(g49
g50
NtRp4103
(dp4104
g53
(dp4105
g61
I3
ssg62
g4099
sg55
(lp4106
g3998
(S's\x04\x00\x00\x00Help'
tRp4107
asbasbasbag48
(g64
g50
NtRp4108
(dp4109
g53
(dp4110
sg62
g4091
sg55
(lp4111
g48
(g69
g50
NtRp4112
(dp4113
g53
(dp4114
sg62
g4108
sg55
(lp4115
g48
(g49
g50
NtRp4116
(dp4117
g53
(dp4118
g61
I3
ssg62
g4112
sg55
(lp4119
g1076
asbasbasbag48
(g64
g50
NtRp4120
(dp4121
g53
(dp4122
sg62
g4091
sg55
(lp4123
g48
(g69
g50
NtRp4124
(dp4125
g53
(dp4126
sg62
g4120
sg55
(lp4127
g48
(g49
g50
NtRp4128
(dp4129
g53
(dp4130
g61
I3
ssg62
g4124
sg55
(lp4131
S'/examples/default/index'
p4132
asbasbasbasbasbasbasbasbasbasbasbag48
(g64
g50
NtRp4133
(dp4134
g53
(dp4135
sg62
g3473
sg55
(lp4136
g48
(g69
g50
NtRp4137
(dp4138
g53
(dp4139
g73
g74
ssg62
g4133
sg55
(lp4140
S'meta'
p4141
asbag48
(g69
g50
NtRp4142
(dp4143
g53
(dp4144
g80
g81
ssg62
g4133
sg55
(lp4145
S':'
asbag48
(g69
g50
NtRp4146
(dp4147
g53
(dp4148
sg62
g4133
sg55
(lp4149
g48
(g49
g50
NtRp4150
(dp4151
g53
(dp4152
g61
I5
ssg62
g4146
sg55
(lp4153
g48
(g57
g50
NtRp4154
(dp4155
g53
(dp4156
g61
I4
ssg62
Nsg55
(lp4157
sbasbasbasbag48
(g64
g50
NtRp4158
(dp4159
g53
(dp4160
sg62
g3473
sg55
(lp4161
g48
(g69
g50
NtRp4162
(dp4163
g53
(dp4164
g73
g74
ssg62
g4158
sg55
(lp4165
S'postprocessing'
p4166
asbag48
(g69
g50
NtRp4167
(dp4168
g53
(dp4169
g80
g81
ssg62
g4158
sg55
(lp4170
S':'
asbag48
(g69
g50
NtRp4171
(dp4172
g53
(dp4173
sg62
g4158
sg55
(lp4174
g48
(g49
g50
NtRp4175
(dp4176
g53
(dp4177
g61
I5
ssg62
g4171
sg55
(lp4178
g48
(g57
g50
NtRp4179
(dp4180
g53
(dp4181
g61
I4
ssg62
Nsg55
(lp4182
sbasbasbasbag48
(g64
g50
NtRp4183
(dp4184
g53
(dp4185
sg62
g3473
sg55
(lp4186
g48
(g69
g50
NtRp4187
(dp4188
g53
(dp4189
g73
g74
ssg62
g4183
sg55
(lp4190
S'session_file'
p4191
asbag48
(g69
g50
NtRp4192
(dp4193
g53
(dp4194
g80
g81
ssg62
g4183
sg55
(lp4195
S':'
asbag48
(g69
g50
NtRp4196
(dp4197
g53
(dp4198
sg62
g4183
sg55
(lp4199
g48
(g49
g50
NtRp4200
(dp4201
g53
(dp4202
g61
I5
ssg62
g4196
sg55
(lp4203
S"<open file 'D:\\Dropbox\\Eclipse\\OJDevSourceProject\\project\\web2py\\applications\\admin\\sessions\\127.0.0.1-26584404-0ca3-4d91-8bf6-e0a8cb5eddd0', mode 'rb+' at 0x035A2F08>"
p4204
asbasbasbag48
(g64
g50
NtRp4205
(dp4206
g53
(dp4207
sg62
g3473
sg55
(lp4208
g48
(g69
g50
NtRp4209
(dp4210
g53
(dp4211
g73
g74
ssg62
g4205
sg55
(lp4212
S'session_filename'
p4213
asbag48
(g69
g50
NtRp4214
(dp4215
g53
(dp4216
g80
g81
ssg62
g4205
sg55
(lp4217
S':'
asbag48
(g69
g50
NtRp4218
(dp4219
g53
(dp4220
sg62
g4205
sg55
(lp4221
g48
(g49
g50
NtRp4222
(dp4223
g53
(dp4224
g61
I5
ssg62
g4218
sg55
(lp4225
S'D:\\Dropbox\\Eclipse\\OJDevSourceProject\\project\\web2py\\applications\\admin\\sessions\\127.0.0.1-26584404-0ca3-4d91-8bf6-e0a8cb5eddd0'
p4226
asbasbasbag48
(g64
g50
NtRp4227
(dp4228
g53
(dp4229
sg62
g3473
sg55
(lp4230
g48
(g69
g50
NtRp4231
(dp4232
g53
(dp4233
g73
g74
ssg62
g4227
sg55
(lp4234
S'session_id'
p4235
asbag48
(g69
g50
NtRp4236
(dp4237
g53
(dp4238
g80
g81
ssg62
g4227
sg55
(lp4239
S':'
asbag48
(g69
g50
NtRp4240
(dp4241
g53
(dp4242
sg62
g4227
sg55
(lp4243
g48
(g49
g50
NtRp4244
(dp4245
g53
(dp4246
g61
I5
ssg62
g4240
sg55
(lp4247
S'127.0.0.1-26584404-0ca3-4d91-8bf6-e0a8cb5eddd0'
p4248
asbasbasbag48
(g64
g50
NtRp4249
(dp4250
g53
(dp4251
sg62
g3473
sg55
(lp4252
g48
(g69
g50
NtRp4253
(dp4254
g53
(dp4255
g73
g74
ssg62
g4249
sg55
(lp4256
S'session_id_name'
p4257
asbag48
(g69
g50
NtRp4258
(dp4259
g53
(dp4260
g80
g81
ssg62
g4249
sg55
(lp4261
S':'
asbag48
(g69
g50
NtRp4262
(dp4263
g53
(dp4264
sg62
g4249
sg55
(lp4265
g48
(g49
g50
NtRp4266
(dp4267
g53
(dp4268
g61
I5
ssg62
g4262
sg55
(lp4269
g3530
asbasbasbag48
(g64
g50
NtRp4270
(dp4271
g53
(dp4272
sg62
g3473
sg55
(lp4273
g48
(g69
g50
NtRp4274
(dp4275
g53
(dp4276
g73
g74
ssg62
g4270
sg55
(lp4277
S'session_locked'
p4278
asbag48
(g69
g50
NtRp4279
(dp4280
g53
(dp4281
g80
g81
ssg62
g4270
sg55
(lp4282
S':'
asbag48
(g69
g50
NtRp4283
(dp4284
g53
(dp4285
sg62
g4270
sg55
(lp4286
g48
(g49
g50
NtRp4287
(dp4288
g53
(dp4289
g61
I5
ssg62
g4283
sg55
(lp4290
g1076
asbasbasbag48
(g64
g50
NtRp4291
(dp4292
g53
(dp4293
sg62
g3473
sg55
(lp4294
g48
(g69
g50
NtRp4295
(dp4296
g53
(dp4297
g73
g74
ssg62
g4291
sg55
(lp4298
S'session_new'
p4299
asbag48
(g69
g50
NtRp4300
(dp4301
g53
(dp4302
g80
g81
ssg62
g4291
sg55
(lp4303
S':'
asbag48
(g69
g50
NtRp4304
(dp4305
g53
(dp4306
sg62
g4291
sg55
(lp4307
g48
(g49
g50
NtRp4308
(dp4309
g53
(dp4310
g61
I5
ssg62
g4304
sg55
(lp4311
g1076
asbasbasbag48
(g64
g50
NtRp4312
(dp4313
g53
(dp4314
sg62
g3473
sg55
(lp4315
g48
(g69
g50
NtRp4316
(dp4317
g53
(dp4318
g73
g74
ssg62
g4312
sg55
(lp4319
S'status'
p4320
asbag48
(g69
g50
NtRp4321
(dp4322
g53
(dp4323
g80
g81
ssg62
g4312
sg55
(lp4324
S':'
asbag48
(g69
g50
NtRp4325
(dp4326
g53
(dp4327
sg62
g4312
sg55
(lp4328
g48
(g49
g50
NtRp4329
(dp4330
g53
(dp4331
g61
I5
ssg62
g4325
sg55
(lp4332
S'200'
p4333
asbasbasbag48
(g64
g50
NtRp4334
(dp4335
g53
(dp4336
sg62
g3473
sg55
(lp4337
g48
(g69
g50
NtRp4338
(dp4339
g53
(dp4340
g73
g74
ssg62
g4334
sg55
(lp4341
S'subtitle'
p4342
asbag48
(g69
g50
NtRp4343
(dp4344
g53
(dp4345
g80
g81
ssg62
g4334
sg55
(lp4346
S':'
asbag48
(g69
g50
NtRp4347
(dp4348
g53
(dp4349
sg62
g4334
sg55
(lp4350
g48
(g49
g50
NtRp4351
(dp4352
g53
(dp4353
g61
I5
ssg62
g4347
sg55
(lp4354
S'admin'
p4355
asbasbasbag48
(g64
g50
NtRp4356
(dp4357
g53
(dp4358
sg62
g3473
sg55
(lp4359
g48
(g69
g50
NtRp4360
(dp4361
g53
(dp4362
g73
g74
ssg62
g4356
sg55
(lp4363
S'title'
p4364
asbag48
(g69
g50
NtRp4365
(dp4366
g53
(dp4367
g80
g81
ssg62
g4356
sg55
(lp4368
S':'
asbag48
(g69
g50
NtRp4369
(dp4370
g53
(dp4371
sg62
g4356
sg55
(lp4372
g48
(g49
g50
NtRp4373
(dp4374
g53
(dp4375
g61
I5
ssg62
g4369
sg55
(lp4376
S'check_version '
p4377
asbasbasbag48
(g64
g50
NtRp4378
(dp4379
g53
(dp4380
sg62
g3473
sg55
(lp4381
g48
(g69
g50
NtRp4382
(dp4383
g53
(dp4384
g73
g74
ssg62
g4378
sg55
(lp4385
g2525
asbag48
(g69
g50
NtRp4386
(dp4387
g53
(dp4388
g80
g81
ssg62
g4378
sg55
(lp4389
S':'
asbag48
(g69
g50
NtRp4390
(dp4391
g53
(dp4392
sg62
g4378
sg55
(lp4393
g48
(g49
g50
NtRp4394
(dp4395
g53
(dp4396
g61
I5
ssg62
g4390
sg55
(lp4397
g2538
asbasbasbag48
(g64
g50
NtRp4398
(dp4399
g53
(dp4400
sg62
g3473
sg55
(lp4401
g48
(g69
g50
NtRp4402
(dp4403
g53
(dp4404
g73
g74
ssg62
g4398
sg55
(lp4405
S'view'
p4406
asbag48
(g69
g50
NtRp4407
(dp4408
g53
(dp4409
g80
g81
ssg62
g4398
sg55
(lp4410
S':'
asbag48
(g69
g50
NtRp4411
(dp4412
g53
(dp4413
sg62
g4398
sg55
(lp4414
g48
(g49
g50
NtRp4415
(dp4416
g53
(dp4417
g61
I5
ssg62
g4411
sg55
(lp4418
S'default/check_version.html'
p4419
asbasbasbasbasbsS'locals'
p4420
(dp4421
S'version_number'
p4422
S"(1, 99, 4, datetime.datetime(2011, 12, 14, 14, 46, 14), 'stable')"
p4423
sS'new_version'
p4424
g91
sssS'traceback'
p4425
S'Traceback (most recent call last):\n  File "D:\\Dropbox\\Eclipse\\OJDevSourceProject\\project\\web2py\\gluon\\restricted.py", line 194, in restricted\n    exec ccode in environment\n  File "D:\\Dropbox\\Eclipse\\OJDevSourceProject\\project\\web2py\\applications\\admin\\controllers/default.py", line 1225, in <module>\n  File "D:\\Dropbox\\Eclipse\\OJDevSourceProject\\project\\web2py\\gluon\\globals.py", line 149, in <lambda>\n    self._caller = lambda f: f()\n  File "D:\\Dropbox\\Eclipse\\OJDevSourceProject\\project\\web2py\\applications\\admin\\controllers/default.py", line 105, in check_version\n    + XML(\' <strong class="upgrade_version">%s</strong>\' % version_number)\nTypeError: not all arguments converted during string formatting\n'
p4426
s.