(dp1
S'output'
p2
S''
sS'layer'
p3
S'D:\\Dropbox\\Eclipse\\OJDevSourceProject\\project\\web2py\\applications\\admin\\controllers/default.py'
p4
sS'code'
p5
S'# coding: utf8\n\nfrom gluon.admin import *\nfrom gluon.fileutils import abspath, read_file, write_file\nfrom glob import glob\nimport shutil\nimport platform\n\nif DEMO_MODE and request.function in [\'change_password\',\'pack\',\'pack_plugin\',\'upgrade_web2py\',\'uninstall\',\'cleanup\',\'compile_app\',\'remove_compiled_app\',\'delete\',\'delete_plugin\',\'create_file\',\'upload_file\',\'update_languages\',\'reload_routes\']:\n    session.flash = T(\'disabled in demo mode\')\n    redirect(URL(\'site\'))\n\nif not is_manager() and request.function in [\'change_password\',\'upgrade_web2py\']:\n    session.flash = T(\'disabled in multi user mode\')\n    redirect(URL(\'site\'))\n\nif FILTER_APPS and request.args(0) and not request.args(0) in FILTER_APPS:\n    session.flash = T(\'disabled in demo mode\')\n    redirect(URL(\'site\'))\n\ndef safe_open(a,b):\n    if DEMO_MODE and \'w\' in b:\n        class tmp:\n            def write(self,data): pass\n        return tmp()\n    return open(a,b)\n\ndef safe_read(a, b=\'r\'):\n    safe_file = safe_open(a, b)\n    try:\n        return safe_file.read()\n    finally:\n        safe_file.close()\n\ndef safe_write(a, value, b=\'w\'):\n    safe_file = safe_open(a, b)\n    try:\n        safe_file.write(value)\n    finally:\n        safe_file.close()\n\ndef get_app(name=None):\n    app = name or request.args(0)\n    if app and (not MULTI_USER_MODE or db(db.app.name==app)(db.app.owner==auth.user.id).count()):\n        return app\n    session.flash = \'App does not exist or your are not authorized\'\n    redirect(URL(\'site\'))\n\ndef index():\n    """ Index handler """\n\n    send = request.vars.send\n    if DEMO_MODE:\n        session.authorized = True\n        session.last_time = t0\n    if not send:\n        send = URL(\'site\')\n    if session.authorized:\n        redirect(send)\n    elif request.vars.password:\n        if verify_password(request.vars.password):\n            session.authorized = True\n            login_record(True)\n\n            if CHECK_VERSION:\n                session.check_version = True\n            else:\n                session.check_version = False\n\n            session.last_time = t0\n            if isinstance(send, list):  # ## why does this happen?\n                send = str(send[0])\n\n            redirect(send)\n        else:\n            times_denied = login_record(False)\n            if times_denied >= allowed_number_of_attempts:\n                response.flash = \\\n                    T(\'admin disabled because too many invalid login attempts\')\n            elif times_denied == allowed_number_of_attempts - 1:\n                response.flash = \\\n                    T(\'You have one more login attempt before you are locked out\')\n            else:\n                response.flash = T(\'invalid password.\')\n    return dict(send=send)\n\n\ndef check_version():\n    """ Checks if web2py is up to date """\n\n    session.forget()\n    session._unlock(response)\n\n    new_version, version_number = check_new_version(request.env.web2py_version,\n                                    WEB2PY_VERSION_URL)\n\n    if new_version == -1:\n        return A(T(\'Unable to check for upgrades\'), _href=WEB2PY_URL)\n    elif new_version != True:\n        return A(T(\'web2py is up to date\'), _href=WEB2PY_URL)\n    elif platform.system().lower() in (\'windows\',\'win32\',\'win64\') and os.path.exists("web2py.exe"):\n        return SPAN(\'You should upgrade to version %s\' % version_number)\n    else:\n        return sp_button(URL(\'upgrade_web2py\'), T(\'upgrade now\')) \\\n          + XML(\' <strong class="upgrade_version">%s</strong>\' % version_number)\n\n\ndef logout():\n    """ Logout handler """\n    session.authorized = None\n    if MULTI_USER_MODE:\n        redirect(URL(\'user/logout\'))\n    redirect(URL(\'index\'))\n\n\ndef change_password():\n\n    if session.pam_user:\n        session.flash = T(\'PAM authenticated user, cannot change password here\')\n        redirect(URL(\'site\'))\n    form=SQLFORM.factory(Field(\'current_admin_password\',\'password\'),\n                         Field(\'new_admin_password\',\'password\',requires=IS_STRONG()),\n                         Field(\'new_admin_password_again\',\'password\'))\n    if form.accepts(request.vars):\n        if not verify_password(request.vars.current_admin_password):\n            form.errors.current_admin_password = T(\'invalid password\')\n        elif form.vars.new_admin_password != form.vars.new_admin_password_again:\n            form.errors.new_admin_password_again = T(\'no match\')\n        else:\n            path = abspath(\'parameters_%s.py\' % request.env.server_port)\n            safe_write(path, \'password="%s"\' % CRYPT()(request.vars.new_admin_password)[0])\n            session.flash = T(\'password changed\')\n            redirect(URL(\'site\'))\n    return dict(form=form)\n\ndef site():\n    """ Site handler """\n\n    myversion = request.env.web2py_version\n\n    # Shortcut to make the elif statements more legible\n    file_or_appurl = \'file\' in request.vars or \'appurl\' in request.vars\n\n    if DEMO_MODE:\n        pass\n\n    elif request.vars.filename and not \'file\' in request.vars:\n        # create a new application\n        appname = cleanpath(request.vars.filename).replace(\'.\', \'_\')\n        if app_create(appname, request):\n            if MULTI_USER_MODE:\n                db.app.insert(name=appname,owner=auth.user.id)\n            session.flash = T(\'new application "%s" created\', appname)\n            redirect(URL(\'design\',args=appname))\n        else:\n            session.flash = \\\n                T(\'unable to create application "%s" (it may exist already)\', request.vars.filename)\n        redirect(URL(r=request))\n\n    elif file_or_appurl and not request.vars.filename:\n        # can\'t do anything without an app name\n        msg = \'you must specify a name for the uploaded application\'\n        response.flash = T(msg)\n\n    elif file_or_appurl and request.vars.filename:\n        # fetch an application via URL or file upload\n        f = None\n        if request.vars.appurl is not \'\':\n            try:\n                f = urllib.urlopen(request.vars.appurl)\n            except Exception, e:\n                session.flash = DIV(T(\'Unable to download app because:\'),PRE(str(e)))\n                redirect(URL(r=request))\n            fname = request.vars.appurl\n        elif request.vars.file is not \'\':\n            f = request.vars.file.file\n            fname = request.vars.file.filename\n\n        if f:\n            appname = cleanpath(request.vars.filename).replace(\'.\', \'_\')\n            installed = app_install(appname, f, request, fname,\n                                    overwrite=request.vars.overwrite_check)\n        if f and installed:\n            msg = \'application %(appname)s installed with md5sum: %(digest)s\'\n            session.flash = T(msg, dict(appname=appname,\n                                        digest=md5_hash(installed)))\n        elif f and request.vars.overwrite_check:\n            msg = \'unable to install application "%(appname)s"\'\n            session.flash = T(msg, dict(appname=request.vars.filename))\n\n        else:\n            msg = \'unable to install application "%(appname)s"\'\n            session.flash = T(msg, dict(appname=request.vars.filename))\n\n        redirect(URL(r=request))\n\n    regex = re.compile(\'^\\w+$\')\n\n    if is_manager():\n        apps = [f for f in os.listdir(apath(r=request)) if regex.match(f)]\n    else:\n        apps = [f.name for f in db(db.app.owner==auth.user_id).select()]\n\n    if FILTER_APPS:\n        apps = [f for f in apps if f in FILTER_APPS]\n\n    apps = sorted(apps,lambda a,b:cmp(a.upper(),b.upper()))\n\n    return dict(app=None, apps=apps, myversion=myversion)\n\n\ndef pack():\n    app = get_app()\n\n    if len(request.args) == 1:\n        fname = \'web2py.app.%s.w2p\' % app\n        filename = app_pack(app, request)\n    else:\n        fname = \'web2py.app.%s.compiled.w2p\' % app\n        filename = app_pack_compiled(app, request)\n\n    if filename:\n        response.headers[\'Content-Type\'] = \'application/w2p\'\n        disposition = \'attachment; filename=%s\' % fname\n        response.headers[\'Content-Disposition\'] = disposition\n        return safe_read(filename, \'rb\')\n    else:\n        session.flash = T(\'internal error\')\n        redirect(URL(\'site\'))\n\ndef pack_plugin():\n    app = get_app()\n    if len(request.args) == 2:\n        fname = \'web2py.plugin.%s.w2p\' % request.args[1]\n        filename = plugin_pack(app, request.args[1], request)\n    if filename:\n        response.headers[\'Content-Type\'] = \'application/w2p\'\n        disposition = \'attachment; filename=%s\' % fname\n        response.headers[\'Content-Disposition\'] = disposition\n        return safe_read(filename, \'rb\')\n    else:\n        session.flash = T(\'internal error\')\n        redirect(URL(\'plugin\',args=request.args))\n\ndef upgrade_web2py():\n    if \'upgrade\' in request.vars:\n        (success, error) = upgrade(request)\n        if success:\n            session.flash = T(\'web2py upgraded; please restart it\')\n        else:\n            session.flash = T(\'unable to upgrade because "%s"\', error)\n        redirect(URL(\'site\'))\n    elif \'noupgrade\' in request.vars:\n        redirect(URL(\'site\'))\n    return dict()\n\ndef uninstall():\n    app = get_app()\n    if \'delete\' in request.vars:\n        if MULTI_USER_MODE:\n            if is_manager() and db(db.app.name==app).delete():\n                pass\n            elif db(db.app.name==app)(db.app.owner==auth.user.id).delete():\n                pass\n            else:\n                session.flash = T(\'no permission to uninstall "%s"\', app)\n                redirect(URL(\'site\'))\n        if app_uninstall(app, request):            \n            session.flash = T(\'application "%s" uninstalled\', app)\n        else:\n            session.flash = T(\'unable to uninstall "%s"\', app)\n        redirect(URL(\'site\'))\n    elif \'nodelete\' in request.vars:\n        redirect(URL(\'site\'))\n    return dict(app=app)\n\n\ndef cleanup():\n    app = get_app()\n    clean = app_cleanup(app, request)\n    if not clean:\n        session.flash = T("some files could not be removed")\n    else:\n        session.flash = T(\'cache, errors and sessions cleaned\')\n\n    redirect(URL(\'site\'))\n\n\ndef compile_app():\n    app = get_app()\n    c = app_compile(app, request)\n    if not c:\n        session.flash = T(\'application compiled\')\n    else:\n        session.flash = DIV(T(\'Cannot compile: there are errors in your app:\'),\n                              CODE(c))\n    redirect(URL(\'site\'))\n\n\ndef remove_compiled_app():\n    """ Remove the compiled application """\n    app = get_app()\n    remove_compiled_application(apath(app, r=request))\n    session.flash = T(\'compiled application removed\')\n    redirect(URL(\'site\'))\n\ndef delete():\n    """ Object delete handler """\n    app = get_app()\n    filename = \'/\'.join(request.args)\n    sender = request.vars.sender\n\n    if isinstance(sender, list):  # ## fix a problem with Vista\n        sender = sender[0]\n\n    if \'nodelete\' in request.vars:\n        redirect(URL(sender))\n    elif \'delete\' in request.vars:\n        try:\n            os.unlink(apath(filename, r=request))\n            session.flash = T(\'file "%(filename)s" deleted\',\n                              dict(filename=filename))\n        except Exception:\n            session.flash = T(\'unable to delete file "%(filename)s"\',\n                              dict(filename=filename))\n        redirect(URL(sender))\n    return dict(filename=filename, sender=sender)\n\ndef peek():\n    """ Visualize object code """\n    app = get_app()\n    filename = \'/\'.join(request.args)\n    try:\n        data = safe_read(apath(filename, r=request)).replace(\'\\r\',\'\')\n    except IOError:\n        session.flash = T(\'file does not exist\')\n        redirect(URL(\'site\'))\n\n    extension = filename[filename.rfind(\'.\') + 1:].lower()\n\n    return dict(app=request.args[0],\n                filename=filename,\n                data=data,\n                extension=extension)\n\n\ndef test():\n    """ Execute controller tests """\n    app = get_app()\n    if len(request.args) > 1:\n        file = request.args[1]\n    else:\n        file = \'.*\\.py\'\n\n    controllers = listdir(apath(\'%s/controllers/\' % app, r=request), file + \'$\')\n\n    return dict(app=app, controllers=controllers)\n\ndef keepalive():\n    return \'\'\n\ndef search():\n    keywords=request.vars.keywords or \'\'\n    app = get_app()\n    def match(filename,keywords):\n        filename=os.path.join(apath(app, r=request),filename)\n        if keywords in read_file(filename,\'rb\'):\n            return True\n        return False\n    path = apath(request.args[0], r=request)\n    files1 = glob(os.path.join(path,\'*/*.py\'))\n    files2 = glob(os.path.join(path,\'*/*.html\'))\n    files3 = glob(os.path.join(path,\'*/*/*.html\'))\n    files=[x[len(path)+1:].replace(\'\\\\\',\'/\') for x in files1+files2+files3 if match(x,keywords)]\n    return response.json({\'files\':files})\n\ndef edit():\n    """ File edit handler """\n    # Load json only if it is ajax edited...\n    app = get_app()\n    filename = \'/\'.join(request.args)\n    # Try to discover the file type\n    if filename[-3:] == \'.py\':\n        filetype = \'python\'\n    elif filename[-5:] == \'.html\':\n        filetype = \'html\'\n    elif filename[-5:] == \'.load\':\n        filetype = \'html\'\n    elif filename[-4:] == \'.css\':\n        filetype = \'css\'\n    elif filename[-3:] == \'.js\':\n        filetype = \'js\'\n    else:\n        filetype = \'html\'\n\n    # ## check if file is not there\n\n    path = apath(filename, r=request)\n\n    if request.vars.revert and os.path.exists(path + \'.bak\'):\n        try:\n            data = safe_read(path + \'.bak\')\n            data1 = safe_read(path)\n        except IOError:\n            session.flash = T(\'Invalid action\')\n            if \'from_ajax\' in request.vars:\n                 return response.json({\'error\': str(T(\'Invalid action\'))})\n            else:\n                redirect(URL(\'site\'))\n\n        safe_write(path, data)\n        file_hash = md5_hash(data)\n        saved_on = time.ctime(os.stat(path)[stat.ST_MTIME])\n        safe_write(path + \'.bak\', data1)\n        response.flash = T(\'file "%s" of %s restored\', (filename, saved_on))\n    else:\n        try:\n            data = safe_read(path)\n        except IOError:\n            session.flash = T(\'Invalid action\')\n            if \'from_ajax\' in request.vars:\n                return response.json({\'error\': str(T(\'Invalid action\'))})\n            else:\n                redirect(URL(\'site\'))\n\n        file_hash = md5_hash(data)\n        saved_on = time.ctime(os.stat(path)[stat.ST_MTIME])\n\n        if request.vars.file_hash and request.vars.file_hash != file_hash:\n            session.flash = T(\'file changed on disk\')\n            data = request.vars.data.replace(\'\\r\\n\', \'\\n\').strip() + \'\\n\'\n            safe_write(path + \'.1\', data)\n            if \'from_ajax\' in request.vars:\n                return response.json({\'error\': str(T(\'file changed on disk\')),\n                                      \'redirect\': URL(\'resolve\',\n                                                      args=request.args)})\n            else:\n                redirect(URL(\'resolve\', args=request.args))\n        elif request.vars.data:\n            safe_write(path + \'.bak\', data)\n            data = request.vars.data.replace(\'\\r\\n\', \'\\n\').strip() + \'\\n\'\n            safe_write(path, data)\n            file_hash = md5_hash(data)\n            saved_on = time.ctime(os.stat(path)[stat.ST_MTIME])\n            response.flash = T(\'file saved on %s\', saved_on)\n\n    data_or_revert = (request.vars.data or request.vars.revert)\n\n    # Check compile errors\n    highlight = None\n    if filetype == \'python\' and request.vars.data:\n        import _ast\n        try:\n            code = request.vars.data.rstrip().replace(\'\\r\\n\',\'\\n\')+\'\\n\'\n            compile(code, path, "exec", _ast.PyCF_ONLY_AST)\n        except Exception, e:\n            start = sum([len(line)+1 for l, line\n                            in enumerate(request.vars.data.split("\\n"))\n                            if l < e.lineno-1])\n            if e.text and e.offset:\n                offset = e.offset - (len(e.text) - len(e.text.splitlines()[-1]))\n            else:\n                offset = 0\n            highlight = {\'start\': start, \'end\': start + offset + 1}\n            try:\n                ex_name = e.__class__.__name__\n            except:\n                ex_name = \'unknown exception!\'\n            response.flash = DIV(T(\'failed to compile file because:\'), BR(),\n                                 B(ex_name), T(\' at line %s\') % e.lineno,\n                                 offset and T(\' at char %s\') % offset or \'\',\n                                 PRE(str(e)))\n\n    if data_or_revert and request.args[1] == \'modules\':\n        # Lets try to reload the modules\n        try:\n            mopath = \'.\'.join(request.args[2:])[:-3]\n            exec \'import applications.%s.modules.%s\' % (request.args[0], mopath)\n            reload(sys.modules[\'applications.%s.modules.%s\'\n                    % (request.args[0], mopath)])\n        except Exception, e:\n            response.flash = DIV(T(\'failed to reload module because:\'),PRE(str(e)))\n\n    edit_controller = None\n    editviewlinks = None\n    view_link = None\n    if filetype == \'html\' and len(request.args) >= 3:\n        cfilename = os.path.join(request.args[0], \'controllers\',\n                                 request.args[2] + \'.py\')\n        if os.path.exists(apath(cfilename, r=request)):\n            edit_controller = URL(\'edit\', args=[cfilename])\n            view = request.args[3].replace(\'.html\',\'\')\n            view_link = URL(request.args[0],request.args[2],view)\n    elif filetype == \'python\' and request.args[1] == \'controllers\':\n        ## it\'s a controller file.\n        ## Create links to all of the associated view files.\n        app = get_app()\n        viewname = os.path.splitext(request.args[2])[0]\n        viewpath = os.path.join(app,\'views\',viewname)\n        aviewpath = apath(viewpath, r=request)\n        viewlist = []\n        if os.path.exists(aviewpath):\n            if os.path.isdir(aviewpath):\n                viewlist = glob(os.path.join(aviewpath,\'*.html\'))\n        elif os.path.exists(aviewpath+\'.html\'):\n            viewlist.append(aviewpath+\'.html\')\n        if len(viewlist):\n            editviewlinks = []\n            for v in viewlist:\n                vf = os.path.split(v)[-1]\n                vargs = "/".join([viewpath.replace(os.sep,"/"),vf])\n                editviewlinks.append(A(T(vf.split(".")[0]),\\\n                    _href=URL(\'edit\',args=[vargs])))\n\n    if len(request.args) > 2 and request.args[1] == \'controllers\':\n        controller = (request.args[2])[:-3]\n        functions = regex_expose.findall(data)\n    else:\n        (controller, functions) = (None, None)\n\n    if \'from_ajax\' in request.vars:\n        return response.json({\'file_hash\': file_hash, \'saved_on\': saved_on, \'functions\':functions, \'controller\': controller, \'application\': request.args[0], \'highlight\': highlight })\n    else:\n\n        editarea_preferences = {}\n        editarea_preferences[\'FONT_SIZE\'] = \'10\'\n        editarea_preferences[\'FULL_SCREEN\'] = \'false\'\n        editarea_preferences[\'ALLOW_TOGGLE\'] = \'true\'\n        editarea_preferences[\'REPLACE_TAB_BY_SPACES\'] = \'4\'\n        editarea_preferences[\'DISPLAY\'] = \'onload\'\n        for key in editarea_preferences:\n            if globals().has_key(key):\n                editarea_preferences[key]=globals()[key]\n        return dict(app=request.args[0],\n                    filename=filename,\n                    filetype=filetype,\n                    data=data,\n                    edit_controller=edit_controller,\n                    file_hash=file_hash,\n                    saved_on=saved_on,\n                    controller=controller,\n                    functions=functions,\n                    view_link=view_link,\n                    editarea_preferences=editarea_preferences,\n                    editviewlinks=editviewlinks)\n\ndef resolve():\n    """\n    """\n\n    filename = \'/\'.join(request.args)\n    # ## check if file is not there\n    path = apath(filename, r=request)\n    a = safe_read(path).split(\'\\n\')\n    try:\n        b = safe_read(path + \'.1\').split(\'\\n\')\n    except IOError:\n        session.flash = \'Other file, no longer there\'\n        redirect(URL(\'edit\', args=request.args))\n\n    d = difflib.ndiff(a, b)\n\n    def leading(line):\n        """  """\n\n        # TODO: we really need to comment this\n        z = \'\'\n        for (k, c) in enumerate(line):\n            if c == \' \':\n                z += \'&nbsp;\'\n            elif c == \' \\t\':\n                z += \'&nbsp;\'\n            elif k == 0 and c == \'?\':\n                pass\n            else:\n                break\n\n        return XML(z)\n\n    def getclass(item):\n        """ Determine item class """\n\n        if item[0] == \' \':\n            return \'normal\'\n        if item[0] == \'+\':\n            return \'plus\'\n        if item[0] == \'-\':\n            return \'minus\'\n\n    if request.vars:\n        c = \'\\n\'.join([item[2:].rstrip() for (i, item) in enumerate(d) if item[0] \\\n                           == \' \' or \'line%i\' % i in request.vars])\n        safe_write(path, c)\n        session.flash = \'files merged\'\n        redirect(URL(\'edit\', args=request.args))\n    else:\n        # Making the short circuit compatible with <= python2.4\n        gen_data = lambda index,item: not item[:1] in [\'+\',\'-\'] and "" \\\n                   or INPUT(_type=\'checkbox\',\n                            _name=\'line%i\' % index,\n                            value=item[0] == \'+\')\n\n        diff = TABLE(*[TR(TD(gen_data(i,item)),\n                          TD(item[0]),\n                          TD(leading(item[2:]),\n                          TT(item[2:].rstrip())), _class=getclass(item))\n                       for (i, item) in enumerate(d) if item[0] != \'?\'])\n\n    return dict(diff=diff, filename=filename)\n\n\ndef edit_language():\n    """ Edit language file """\n    app = get_app()\n    filename = \'/\'.join(request.args)\n    from gluon.languages import read_dict, write_dict\n    strings = read_dict(apath(filename, r=request))\n    keys = sorted(strings.keys(),lambda x,y: cmp(x.lower(), y.lower()))\n    rows = []\n    rows.append(H2(T(\'Original/Translation\')))\n\n    for key in keys:\n        name = md5_hash(key)\n        if key==strings[key]:\n            _class=\'untranslated\'\n        else:\n            _class=\'translated\'\n        if len(key) <= 40:\n            elem = INPUT(_type=\'text\', _name=name,value=strings[key],\n                         _size=70,_class=_class)\n        else:\n            elem = TEXTAREA(_name=name, value=strings[key], _cols=70,\n                            _rows=5, _class=_class)\n\n        # Making the short circuit compatible with <= python2.4\n        k = (strings[key] != key) and key or B(key)\n\n        rows.append(P(k, BR(), elem, TAG.BUTTON(T(\'delete\'),\n                            _onclick=\'return delkey("%s")\' % name), _id=name))\n\n    rows.append(INPUT(_type=\'submit\', _value=T(\'update\')))\n    form = FORM(*rows)\n    if form.accepts(request.vars, keepvalues=True):\n        strs = dict()\n        for key in keys:\n            name = md5_hash(key)\n            if form.vars[name]==chr(127): continue\n            strs[key] = form.vars[name]\n        write_dict(apath(filename, r=request), strs)\n        session.flash = T(\'file saved on %(time)s\', dict(time=time.ctime()))\n        redirect(URL(r=request,args=request.args))\n    return dict(app=request.args[0], filename=filename, form=form)\n\n\ndef about():\n    """ Read about info """\n    app = get_app()\n    # ## check if file is not there\n    about = safe_read(apath(\'%s/ABOUT\' % app, r=request))\n    license = safe_read(apath(\'%s/LICENSE\' % app, r=request))\n    return dict(app=app, about=MARKMIN(about), license=MARKMIN(license))\n\n\ndef design():\n    """ Application design handler """\n    app = get_app()\n\n    if not response.flash and app == request.application:\n        msg = T(\'ATTENTION: you cannot edit the running application!\')\n        response.flash = msg\n\n    if request.vars.pluginfile!=None and not isinstance(request.vars.pluginfile,str):\n        filename=os.path.basename(request.vars.pluginfile.filename)\n        if plugin_install(app, request.vars.pluginfile.file,\n                          request, filename):\n            session.flash = T(\'new plugin installed\')\n            redirect(URL(\'design\',args=app))\n        else:\n            session.flash = \\\n                T(\'unable to create application "%s"\', request.vars.filename)\n        redirect(URL(r=request))\n    elif isinstance(request.vars.pluginfile,str):\n        session.flash = T(\'plugin not specified\')\n        redirect(URL(r=request))\n\n\n    # If we have only pyc files it means that\n    # we cannot design\n    if os.path.exists(apath(\'%s/compiled\' % app, r=request)):\n        session.flash = \\\n            T(\'application is compiled and cannot be designed\')\n        redirect(URL(\'site\'))\n\n    # Get all models\n    models = listdir(apath(\'%s/models/\' % app, r=request), \'.*\\.py$\')\n    models=[x.replace(\'\\\\\',\'/\') for x in models]\n    defines = {}\n    for m in models:\n        data = safe_read(apath(\'%s/models/%s\' % (app, m), r=request))\n        defines[m] = regex_tables.findall(data)\n        defines[m].sort()\n\n    # Get all controllers\n    controllers = sorted(listdir(apath(\'%s/controllers/\' % app, r=request), \'.*\\.py$\'))\n    controllers = [x.replace(\'\\\\\',\'/\') for x in controllers]\n    functions = {}\n    for c in controllers:\n        data = safe_read(apath(\'%s/controllers/%s\' % (app, c), r=request))\n        items = regex_expose.findall(data)\n        functions[c] = items\n\n    # Get all views\n    views = sorted(listdir(apath(\'%s/views/\' % app, r=request), \'[\\w/\\-]+(\\.\\w+)+$\'))\n    views = [x.replace(\'\\\\\',\'/\') for x in views if not x.endswith(\'.bak\')]\n    extend = {}\n    include = {}\n    for c in views:\n        data = safe_read(apath(\'%s/views/%s\' % (app, c), r=request))\n        items = regex_extend.findall(data)\n\n        if items:\n            extend[c] = items[0][1]\n\n        items = regex_include.findall(data)\n        include[c] = [i[1] for i in items]\n\n    # Get all modules\n    modules = listdir(apath(\'%s/modules/\' % app, r=request), \'.*\\.py$\')\n    modules = modules=[x.replace(\'\\\\\',\'/\') for x in modules]\n    modules.sort()\n\n    # Get all static files\n    statics = listdir(apath(\'%s/static/\' % app, r=request), \'[^\\.#].*\')\n    statics = [x.replace(\'\\\\\',\'/\') for x in statics]\n    statics.sort()\n\n    # Get all languages\n    languages = listdir(apath(\'%s/languages/\' % app, r=request), \'[\\w-]*\\.py\')\n\n    #Get crontab\n    cronfolder = apath(\'%s/cron\' % app, r=request)\n    if not os.path.exists(cronfolder): os.mkdir(cronfolder)\n    crontab = apath(\'%s/cron/crontab\' % app, r=request)\n    if not os.path.exists(crontab):\n        safe_write(crontab, \'#crontab\')\n\n    plugins=[]\n    def filter_plugins(items,plugins):\n        plugins+=[item[7:].split(\'/\')[0].split(\'.\')[0] for item in items if item.startswith(\'plugin_\')]\n        plugins[:]=list(set(plugins))\n        plugins.sort()\n        return [item for item in items if not item.startswith(\'plugin_\')]\n\n    return dict(app=app,\n                models=filter_plugins(models,plugins),\n                defines=defines,\n                controllers=filter_plugins(controllers,plugins),\n                functions=functions,\n                views=filter_plugins(views,plugins),\n                modules=filter_plugins(modules,plugins),\n                extend=extend,\n                include=include,\n                statics=filter_plugins(statics,plugins),\n                languages=languages,\n                crontab=crontab,\n                plugins=plugins)\n\ndef delete_plugin():\n    """ Object delete handler """\n    app=request.args(0)\n    plugin = request.args(1)\n    plugin_name=\'plugin_\'+plugin\n    if \'nodelete\' in request.vars:\n        redirect(URL(\'design\',args=app))\n    elif \'delete\' in request.vars:\n        try:\n            for folder in [\'models\',\'views\',\'controllers\',\'static\',\'modules\']:\n                path=os.path.join(apath(app,r=request),folder)\n                for item in os.listdir(path):\n                    if item.startswith(plugin_name):\n                        filename=os.path.join(path,item)\n                        if os.path.isdir(filename):\n                            shutil.rmtree(filename)\n                        else:\n                            os.unlink(filename)\n            session.flash = T(\'plugin "%(plugin)s" deleted\',\n                              dict(plugin=plugin))\n        except Exception:\n            session.flash = T(\'unable to delete file plugin "%(plugin)s"\',\n                              dict(plugin=plugin))\n        redirect(URL(\'design\',args=request.args(0)))\n    return dict(plugin=plugin)\n\ndef plugin():\n    """ Application design handler """\n    app = get_app()\n    plugin = request.args(1)\n\n    if not response.flash and app == request.application:\n        msg = T(\'ATTENTION: you cannot edit the running application!\')\n        response.flash = msg\n\n    # If we have only pyc files it means that\n    # we cannot design\n    if os.path.exists(apath(\'%s/compiled\' % app, r=request)):\n        session.flash = \\\n            T(\'application is compiled and cannot be designed\')\n        redirect(URL(\'site\'))\n\n    # Get all models\n    models = listdir(apath(\'%s/models/\' % app, r=request), \'.*\\.py$\')\n    models=[x.replace(\'\\\\\',\'/\') for x in models]\n    defines = {}\n    for m in models:\n        data = safe_read(apath(\'%s/models/%s\' % (app, m), r=request))\n        defines[m] = regex_tables.findall(data)\n        defines[m].sort()\n\n    # Get all controllers\n    controllers = sorted(listdir(apath(\'%s/controllers/\' % app, r=request), \'.*\\.py$\'))\n    controllers = [x.replace(\'\\\\\',\'/\') for x in controllers]\n    functions = {}\n    for c in controllers:\n        data = safe_read(apath(\'%s/controllers/%s\' % (app, c), r=request))\n        items = regex_expose.findall(data)\n        functions[c] = items\n\n    # Get all views\n    views = sorted(listdir(apath(\'%s/views/\' % app, r=request), \'[\\w/\\-]+\\.\\w+$\'))\n    views = [x.replace(\'\\\\\',\'/\') for x in views]\n    extend = {}\n    include = {}\n    for c in views:\n        data = safe_read(apath(\'%s/views/%s\' % (app, c), r=request))\n        items = regex_extend.findall(data)\n        if items:\n            extend[c] = items[0][1]\n\n        items = regex_include.findall(data)\n        include[c] = [i[1] for i in items]\n\n    # Get all modules\n    modules = listdir(apath(\'%s/modules/\' % app, r=request), \'.*\\.py$\')\n    modules = modules=[x.replace(\'\\\\\',\'/\') for x in modules]\n    modules.sort()\n\n    # Get all static files\n    statics = listdir(apath(\'%s/static/\' % app, r=request), \'[^\\.#].*\')\n    statics = [x.replace(\'\\\\\',\'/\') for x in statics]\n    statics.sort()\n\n    # Get all languages\n    languages = listdir(apath(\'%s/languages/\' % app, r=request), \'[\\w-]*\\.py\')\n\n    #Get crontab\n    crontab = apath(\'%s/cron/crontab\' % app, r=request)\n    if not os.path.exists(crontab):\n        safe_write(crontab, \'#crontab\')\n\n    def filter_plugins(items):\n        regex=re.compile(\'^plugin_\'+plugin+\'(/.*|\\..*)?$\')\n        return [item for item in items if regex.match(item)]\n\n    return dict(app=app,\n                models=filter_plugins(models),\n                defines=defines,\n                controllers=filter_plugins(controllers),\n                functions=functions,\n                views=filter_plugins(views),\n                modules=filter_plugins(modules),\n                extend=extend,\n                include=include,\n                statics=filter_plugins(statics),\n                languages=languages,\n                crontab=crontab)\n\n\ndef create_file():\n    """ Create files handler """\n    try:\n        app = get_app(name=request.vars.location.split(\'/\')[0])\n        path = apath(request.vars.location, r=request)\n        filename = re.sub(\'[^\\w./-]+\', \'_\', request.vars.filename)\n\n        if path[-11:] == \'/languages/\':\n            # Handle language files\n            if len(filename) == 0:\n                raise SyntaxError\n            if not filename[-3:] == \'.py\':\n                filename += \'.py\'\n            app = path.split(\'/\')[-3]\n            path=os.path.join(apath(app, r=request),\'languages\',filename)\n            if not os.path.exists(path):\n                safe_write(path, \'\')\n            findT(apath(app, r=request), filename[:-3])\n            session.flash = T(\'language file "%(filename)s" created/updated\',\n                              dict(filename=filename))\n            redirect(request.vars.sender)\n\n        elif path[-8:] == \'/models/\':\n            # Handle python models\n            if not filename[-3:] == \'.py\':\n                filename += \'.py\'\n\n            if len(filename) == 3:\n                raise SyntaxError\n\n            text = \'# coding: utf8\\n\'\n\n        elif path[-13:] == \'/controllers/\':\n            # Handle python controllers\n            if not filename[-3:] == \'.py\':\n                filename += \'.py\'\n\n            if len(filename) == 3:\n                raise SyntaxError\n\n            text = \'# coding: utf8\\n# %s\\ndef index(): return dict(message="hello from %s")\'\n            text = text % (T(\'try something like\'), filename)\n\n        elif path[-7:] == \'/views/\':\n            if request.vars.plugin and not filename.startswith(\'plugin_%s/\' % request.vars.plugin):\n                filename = \'plugin_%s/%s\' % (request.vars.plugin, filename)\n            # Handle template (html) views\n            if filename.find(\'.\')<0:\n                filename += \'.html\'\n            extension = filename.split(\'.\')[-1].lower()\n\n            if len(filename) == 5:\n                raise SyntaxError\n\n            msg = T(\'This is the %(filename)s template\',\n                    dict(filename=filename))            \n            if extension == \'html\':\n                text = dedent("""\n                   {{extend \'layout.html\'}}\n                   <h1>%s</h1>\n                   {{=BEAUTIFY(response._vars)}}""" % msg)\n            else:\n                generic = os.path.join(path,\'generic.\'+extension)\n                if os.path.exists(generic):\n                    text = read_file(generic)\n                else:\n                    text = \'\'\n                \n        elif path[-9:] == \'/modules/\':\n            if request.vars.plugin and not filename.startswith(\'plugin_%s/\' % request.vars.plugin):\n                filename = \'plugin_%s/%s\' % (request.vars.plugin, filename)\n            # Handle python module files\n            if not filename[-3:] == \'.py\':\n                filename += \'.py\'\n\n            if len(filename) == 3:\n                raise SyntaxError\n\n            text = dedent("""\n                   #!/usr/bin/env python\n                   # coding: utf8\n                   from gluon import *\\n""")\n\n        elif path[-8:] == \'/static/\':\n            if request.vars.plugin and not filename.startswith(\'plugin_%s/\' % request.vars.plugin):\n                filename = \'plugin_%s/%s\' % (request.vars.plugin, filename)\n            text = \'\'\n        else:\n            redirect(request.vars.sender)\n\n        full_filename = os.path.join(path, filename)\n        dirpath = os.path.dirname(full_filename)\n\n        if not os.path.exists(dirpath):\n            os.makedirs(dirpath)\n\n        if os.path.exists(full_filename):\n            raise SyntaxError\n\n        safe_write(full_filename, text)\n        session.flash = T(\'file "%(filename)s" created\',\n                          dict(filename=full_filename[len(path):]))\n        redirect(URL(\'edit\',\n                 args=[os.path.join(request.vars.location, filename)]))\n    except Exception, e:\n        if not isinstance(e,HTTP):\n            session.flash = T(\'cannot create file\')\n\n    redirect(request.vars.sender)\n\n\ndef upload_file():\n    """ File uploading handler """\n\n    try:\n        filename = None\n        app = get_app(name=request.vars.location.split(\'/\')[0])\n        path = apath(request.vars.location, r=request)\n\n        if request.vars.filename:\n            filename = re.sub(\'[^\\w\\./]+\', \'_\', request.vars.filename)\n        else:\n            filename = os.path.split(request.vars.file.filename)[-1]\n\n        if path[-8:] == \'/models/\' and not filename[-3:] == \'.py\':\n            filename += \'.py\'\n\n        if path[-9:] == \'/modules/\' and not filename[-3:] == \'.py\':\n            filename += \'.py\'\n\n        if path[-13:] == \'/controllers/\' and not filename[-3:] == \'.py\':\n            filename += \'.py\'\n\n        if path[-7:] == \'/views/\' and not filename[-5:] == \'.html\':\n            filename += \'.html\'\n\n        if path[-11:] == \'/languages/\' and not filename[-3:] == \'.py\':\n            filename += \'.py\'\n\n        filename = os.path.join(path, filename)\n        dirpath = os.path.dirname(filename)\n\n        if not os.path.exists(dirpath):\n            os.makedirs(dirpath)\n\n        safe_write(filename, request.vars.file.file.read(), \'wb\')\n        session.flash = T(\'file "%(filename)s" uploaded\',\n                          dict(filename=filename[len(path):]))\n    except Exception:\n        if filename:\n            d = dict(filename = filename[len(path):])\n        else:\n            d = dict(filename = \'unkown\')\n        session.flash = T(\'cannot upload file "%(filename)s"\', d)\n\n    redirect(request.vars.sender)\n\n\ndef errors():\n    """ Error handler """\n    import operator\n    import os\n    import pickle\n    import hashlib\n\n    app = get_app()\n\n    method = request.args(1) or \'new\'\n\n\n    if method == \'new\':\n        errors_path = apath(\'%s/errors\' % app, r=request)\n\n        delete_hashes = []\n        for item in request.vars:\n            if item[:7] == \'delete_\':\n                delete_hashes.append(item[7:])\n\n        hash2error = dict()\n\n        for fn in listdir(errors_path, \'^\\w.*\'):\n            fullpath = os.path.join(errors_path, fn)\n            if not os.path.isfile(fullpath): continue\n            try:\n                fullpath_file = open(fullpath, \'r\')\n                try:\n                    error = pickle.load(fullpath_file)\n                finally:\n                    fullpath_file.close()\n            except IOError:\n                continue\n\n            hash = hashlib.md5(error[\'traceback\']).hexdigest()\n\n            if hash in delete_hashes:\n                os.unlink(fullpath)\n            else:\n                try:\n                    hash2error[hash][\'count\'] += 1\n                except KeyError:\n                    error_lines = error[\'traceback\'].split("\\n")\n                    last_line = error_lines[-2]\n                    error_causer = os.path.split(error[\'layer\'])[1]\n                    hash2error[hash] = dict(count=1, pickel=error,\n                                            causer=error_causer,\n                                            last_line=last_line,\n                                            hash=hash,ticket=fn)\n\n        decorated = [(x[\'count\'], x) for x in hash2error.values()]\n        decorated.sort(key=operator.itemgetter(0), reverse=True)\n\n        return dict(errors = [x[1] for x in decorated], app=app, method=method)\n    else:\n        for item in request.vars:\n            if item[:7] == \'delete_\':\n                os.unlink(apath(\'%s/errors/%s\' % (app, item[7:]), r=request))\n        func = lambda p: os.stat(apath(\'%s/errors/%s\' % \\\n                                           (app, p), r=request)).st_mtime\n        tickets = sorted(listdir(apath(\'%s/errors/\' % app, r=request), \'^\\w.*\'),\n                         key=func,\n                         reverse=True)\n\n        return dict(app=app, tickets=tickets, method=method)\n\n\ndef make_link(path):\n    """ Create a link from a path """\n    tryFile = path.replace(\'\\\\\', \'/\')\n\n    if os.path.isabs(tryFile) and os.path.isfile(tryFile):\n        (folder, filename) = os.path.split(tryFile)\n        (base, ext) = os.path.splitext(filename)\n        app = get_app()\n\n        editable = {\'controllers\': \'.py\', \'models\': \'.py\', \'views\': \'.html\'}\n        for key in editable.keys():\n            check_extension = folder.endswith("%s/%s" % (app,key))\n            if ext.lower() == editable[key] and check_extension:\n                return A(\'"\' + tryFile + \'"\',\n                         _href=URL(r=request,\n                         f=\'edit/%s/%s/%s\' % (app, key, filename))).xml()\n    return \'\'\n\n\ndef make_links(traceback):\n    """ Make links using the given traceback """\n\n    lwords = traceback.split(\'"\')\n\n    # Making the short circuit compatible with <= python2.4\n    result = (len(lwords) != 0) and lwords[0] or \'\'\n\n    i = 1\n\n    while i < len(lwords):\n        link = make_link(lwords[i])\n\n        if link == \'\':\n            result += \'"\' + lwords[i]\n        else:\n            result += link\n\n            if i + 1 < len(lwords):\n                result += lwords[i + 1]\n                i = i + 1\n\n        i = i + 1\n\n    return result\n\n\nclass TRACEBACK(object):\n    """ Generate the traceback """\n\n    def __init__(self, text):\n        """ TRACEBACK constructor """\n\n        self.s = make_links(CODE(text).xml())\n\n    def xml(self):\n        """ Returns the xml """\n\n        return self.s\n\n\ndef ticket():\n    """ Ticket handler """\n\n    if len(request.args) != 2:\n        session.flash = T(\'invalid ticket\')\n        redirect(URL(\'site\'))\n\n    app = get_app()\n    myversion = request.env.web2py_version\n    ticket = request.args[1]\n    e = RestrictedError()\n    e.load(request, app, ticket)\n\n    return dict(app=app,\n                ticket=ticket,\n                output=e.output,\n                traceback=(e.traceback and TRACEBACK(e.traceback)),\n                snapshot=e.snapshot,\n                code=e.code,\n                layer=e.layer,\n                myversion=myversion)\n\ndef error():\n    """ Generate a ticket (for testing) """\n    raise RuntimeError(\'admin ticket generator at your service\')\n\ndef update_languages():\n    """ Update available languages """\n\n    app = get_app()\n    update_all_languages(apath(app, r=request))\n    session.flash = T(\'Language files (static strings) updated\')\n    redirect(URL(\'design\',args=app,anchor=\'languages\'))\n\ndef twitter():\n    session.forget()\n    session._unlock(response)\n    import gluon.tools\n    import gluon.contrib.simplejson as sj\n    try:\n        if TWITTER_HASH:\n            page = gluon.tools.fetch(\'http://twitter.com/%s?format=json\'%TWITTER_HASH)\n            return sj.loads(page)[\'#timeline\']\n        else:\n            return \'disabled\'\n    except Exception, e:\n        return DIV(T(\'Unable to download because:\'),BR(),str(e))\n\ndef user():\n    if MULTI_USER_MODE:\n        if not db(db.auth_user).count():\n            auth.settings.registration_requires_approval = False            \n        return dict(form=auth())\n    else:\n        return dict(form=T("Disabled"))\n\ndef reload_routes():\n    """ Reload routes.py """\n    import gluon.rewrite\n    gluon.rewrite.load()\n    redirect(URL(\'site\'))\n\nresponse._vars=response._caller(check_version)\n'
p6
sS'snapshot'
p7
(dp8
S'exception'
p9
(dp10
S'__hash__'
p11
S"<method-wrapper '__hash__' of exceptions.TypeError object at 0x07D16990>"
p12
sS'__setattr__'
p13
S"<method-wrapper '__setattr__' of exceptions.TypeError object at 0x07D16990>"
p14
sS'__reduce_ex__'
p15
S'<built-in method __reduce_ex__ of exceptions.TypeError object at 0x07D16990>'
p16
sS'__getslice__'
p17
S"<method-wrapper '__getslice__' of exceptions.TypeError object at 0x07D16990>"
p18
sS'__getitem__'
p19
S"<method-wrapper '__getitem__' of exceptions.TypeError object at 0x07D16990>"
p20
sS'__setstate__'
p21
S'<built-in method __setstate__ of exceptions.TypeError object at 0x07D16990>'
p22
sS'__reduce__'
p23
S'<built-in method __reduce__ of exceptions.TypeError object at 0x07D16990>'
p24
sS'__str__'
p25
S"<method-wrapper '__str__' of exceptions.TypeError object at 0x07D16990>"
p26
sS'args'
p27
S"('not all arguments converted during string formatting',)"
p28
sS'__getattribute__'
p29
S"<method-wrapper '__getattribute__' of exceptions.TypeError object at 0x07D16990>"
p30
sS'__class__'
p31
S"<type 'exceptions.TypeError'>"
p32
sS'__delattr__'
p33
S"<method-wrapper '__delattr__' of exceptions.TypeError object at 0x07D16990>"
p34
sS'__repr__'
p35
S"<method-wrapper '__repr__' of exceptions.TypeError object at 0x07D16990>"
p36
sS'__dict__'
p37
S'{}'
p38
sS'__doc__'
p39
S"'Inappropriate argument type.'"
p40
sS'__init__'
p41
S"<method-wrapper '__init__' of exceptions.TypeError object at 0x07D16990>"
p42
sS'__new__'
p43
S'<built-in method __new__ of type object at 0x1E1CCD78>'
p44
ssS'evalue'
p45
S'not all arguments converted during string formatting'
p46
sS'request'
p47
ccopy_reg
_reconstructor
p48
(cgluon.html
BEAUTIFY
p49
c__builtin__
object
p50
NtRp51
(dp52
S'attributes'
p53
(dp54
sS'components'
p55
(lp56
g48
(cgluon.html
TABLE
p57
g50
NtRp58
(dp59
g53
(dp60
S'level'
p61
I5
ssS'parent'
p62
Nsg55
(lp63
g48
(cgluon.html
TR
p64
g50
NtRp65
(dp66
g53
(dp67
sg62
g58
sg55
(lp68
g48
(cgluon.html
TD
p69
g50
NtRp70
(dp71
g53
(dp72
S'_style'
p73
S'font-weight:bold;'
p74
ssg62
g65
sg55
(lp75
S'ajax'
p76
asbag48
(g69
g50
NtRp77
(dp78
g53
(dp79
S'_valign'
p80
S'top'
p81
ssg62
g65
sg55
(lp82
S':'
asbag48
(g69
g50
NtRp83
(dp84
g53
(dp85
sg62
g65
sg55
(lp86
g48
(g49
g50
NtRp87
(dp88
g53
(dp89
g61
I5
ssg62
g83
sg55
(lp90
S'True'
p91
asbasbasbag48
(g64
g50
NtRp92
(dp93
g53
(dp94
sg62
g58
sg55
(lp95
g48
(g69
g50
NtRp96
(dp97
g53
(dp98
g73
g74
ssg62
g92
sg55
(lp99
S'application'
p100
asbag48
(g69
g50
NtRp101
(dp102
g53
(dp103
g80
g81
ssg62
g92
sg55
(lp104
S':'
asbag48
(g69
g50
NtRp105
(dp106
g53
(dp107
sg62
g92
sg55
(lp108
g48
(g49
g50
NtRp109
(dp110
g53
(dp111
g61
I5
ssg62
g105
sg55
(lp112
S'admin'
p113
asbasbasbag48
(g64
g50
NtRp114
(dp115
g53
(dp116
sg62
g58
sg55
(lp117
g48
(g69
g50
NtRp118
(dp119
g53
(dp120
g73
g74
ssg62
g114
sg55
(lp121
g27
asbag48
(g69
g50
NtRp122
(dp123
g53
(dp124
g80
g81
ssg62
g114
sg55
(lp125
S':'
asbag48
(g69
g50
NtRp126
(dp127
g53
(dp128
sg62
g114
sg55
(lp129
g48
(g49
g50
NtRp130
(dp131
g53
(dp132
g61
I5
ssg62
g126
sg55
(lp133
g48
(g57
g50
NtRp134
(dp135
g53
(dp136
g61
I4
ssg62
Nsg55
(lp137
sbasbasbasbag48
(g64
g50
NtRp138
(dp139
g53
(dp140
sg62
g58
sg55
(lp141
g48
(g69
g50
NtRp142
(dp143
g53
(dp144
g73
g74
ssg62
g138
sg55
(lp145
S'body'
p146
asbag48
(g69
g50
NtRp147
(dp148
g53
(dp149
g80
g81
ssg62
g138
sg55
(lp150
S':'
asbag48
(g69
g50
NtRp151
(dp152
g53
(dp153
sg62
g138
sg55
(lp154
g48
(g49
g50
NtRp155
(dp156
g53
(dp157
g61
I5
ssg62
g151
sg55
(lp158
S"<open file '<fdopen>', mode 'w+b' at 0x0858B800>"
p159
asbasbasbag48
(g64
g50
NtRp160
(dp161
g53
(dp162
sg62
g58
sg55
(lp163
g48
(g69
g50
NtRp164
(dp165
g53
(dp166
g73
g74
ssg62
g160
sg55
(lp167
S'client'
p168
asbag48
(g69
g50
NtRp169
(dp170
g53
(dp171
g80
g81
ssg62
g160
sg55
(lp172
S':'
asbag48
(g69
g50
NtRp173
(dp174
g53
(dp175
sg62
g160
sg55
(lp176
g48
(g49
g50
NtRp177
(dp178
g53
(dp179
g61
I5
ssg62
g173
sg55
(lp180
S'127.0.0.1'
p181
asbasbasbag48
(g64
g50
NtRp182
(dp183
g53
(dp184
sg62
g58
sg55
(lp185
g48
(g69
g50
NtRp186
(dp187
g53
(dp188
g73
g74
ssg62
g182
sg55
(lp189
S'controller'
p190
asbag48
(g69
g50
NtRp191
(dp192
g53
(dp193
g80
g81
ssg62
g182
sg55
(lp194
S':'
asbag48
(g69
g50
NtRp195
(dp196
g53
(dp197
sg62
g182
sg55
(lp198
g48
(g49
g50
NtRp199
(dp200
g53
(dp201
g61
I5
ssg62
g195
sg55
(lp202
S'default'
p203
asbasbasbag48
(g64
g50
NtRp204
(dp205
g53
(dp206
sg62
g58
sg55
(lp207
g48
(g69
g50
NtRp208
(dp209
g53
(dp210
g73
g74
ssg62
g204
sg55
(lp211
S'cookies'
p212
asbag48
(g69
g50
NtRp213
(dp214
g53
(dp215
g80
g81
ssg62
g204
sg55
(lp216
S':'
asbag48
(g69
g50
NtRp217
(dp218
g53
(dp219
sg62
g204
sg55
(lp220
g48
(g49
g50
NtRp221
(dp222
g53
(dp223
g61
I5
ssg62
g217
sg55
(lp224
g48
(g57
g50
NtRp225
(dp226
g53
(dp227
g61
I4
ssg62
Nsg55
(lp228
g48
(g64
g50
NtRp229
(dp230
g53
(dp231
sg62
g225
sg55
(lp232
g48
(g69
g50
NtRp233
(dp234
g53
(dp235
g73
g74
ssg62
g229
sg55
(lp236
S'session_id_admin'
p237
asbag48
(g69
g50
NtRp238
(dp239
g53
(dp240
g80
g81
ssg62
g229
sg55
(lp241
S':'
asbag48
(g69
g50
NtRp242
(dp243
g53
(dp244
sg62
g229
sg55
(lp245
g48
(g49
g50
NtRp246
(dp247
g53
(dp248
g61
I4
ssg62
g242
sg55
(lp249
g48
(g57
g50
NtRp250
(dp251
g53
(dp252
g61
I3
ssg62
Nsg55
(lp253
g48
(g64
g50
NtRp254
(dp255
g53
(dp256
sg62
g250
sg55
(lp257
g48
(g69
g50
NtRp258
(dp259
g53
(dp260
g73
g74
ssg62
g254
sg55
(lp261
S'comment'
p262
asbag48
(g69
g50
NtRp263
(dp264
g53
(dp265
g80
g81
ssg62
g254
sg55
(lp266
S':'
asbag48
(g69
g50
NtRp267
(dp268
g53
(dp269
sg62
g254
sg55
(lp270
g48
(g49
g50
NtRp271
(dp272
g53
(dp273
g61
I3
ssg62
g267
sg55
(lp274
S''
asbasbasbag48
(g64
g50
NtRp275
(dp276
g53
(dp277
sg62
g250
sg55
(lp278
g48
(g69
g50
NtRp279
(dp280
g53
(dp281
g73
g74
ssg62
g275
sg55
(lp282
S'domain'
p283
asbag48
(g69
g50
NtRp284
(dp285
g53
(dp286
g80
g81
ssg62
g275
sg55
(lp287
S':'
asbag48
(g69
g50
NtRp288
(dp289
g53
(dp290
sg62
g275
sg55
(lp291
g48
(g49
g50
NtRp292
(dp293
g53
(dp294
g61
I3
ssg62
g288
sg55
(lp295
S''
asbasbasbag48
(g64
g50
NtRp296
(dp297
g53
(dp298
sg62
g250
sg55
(lp299
g48
(g69
g50
NtRp300
(dp301
g53
(dp302
g73
g74
ssg62
g296
sg55
(lp303
S'expires'
p304
asbag48
(g69
g50
NtRp305
(dp306
g53
(dp307
g80
g81
ssg62
g296
sg55
(lp308
S':'
asbag48
(g69
g50
NtRp309
(dp310
g53
(dp311
sg62
g296
sg55
(lp312
g48
(g49
g50
NtRp313
(dp314
g53
(dp315
g61
I3
ssg62
g309
sg55
(lp316
S''
asbasbasbag48
(g64
g50
NtRp317
(dp318
g53
(dp319
sg62
g250
sg55
(lp320
g48
(g69
g50
NtRp321
(dp322
g53
(dp323
g73
g74
ssg62
g317
sg55
(lp324
S'max-age'
p325
asbag48
(g69
g50
NtRp326
(dp327
g53
(dp328
g80
g81
ssg62
g317
sg55
(lp329
S':'
asbag48
(g69
g50
NtRp330
(dp331
g53
(dp332
sg62
g317
sg55
(lp333
g48
(g49
g50
NtRp334
(dp335
g53
(dp336
g61
I3
ssg62
g330
sg55
(lp337
S''
asbasbasbag48
(g64
g50
NtRp338
(dp339
g53
(dp340
sg62
g250
sg55
(lp341
g48
(g69
g50
NtRp342
(dp343
g53
(dp344
g73
g74
ssg62
g338
sg55
(lp345
S'path'
p346
asbag48
(g69
g50
NtRp347
(dp348
g53
(dp349
g80
g81
ssg62
g338
sg55
(lp350
S':'
asbag48
(g69
g50
NtRp351
(dp352
g53
(dp353
sg62
g338
sg55
(lp354
g48
(g49
g50
NtRp355
(dp356
g53
(dp357
g61
I3
ssg62
g351
sg55
(lp358
S''
asbasbasbag48
(g64
g50
NtRp359
(dp360
g53
(dp361
sg62
g250
sg55
(lp362
g48
(g69
g50
NtRp363
(dp364
g53
(dp365
g73
g74
ssg62
g359
sg55
(lp366
S'secure'
p367
asbag48
(g69
g50
NtRp368
(dp369
g53
(dp370
g80
g81
ssg62
g359
sg55
(lp371
S':'
asbag48
(g69
g50
NtRp372
(dp373
g53
(dp374
sg62
g359
sg55
(lp375
g48
(g49
g50
NtRp376
(dp377
g53
(dp378
g61
I3
ssg62
g372
sg55
(lp379
S''
asbasbasbag48
(g64
g50
NtRp380
(dp381
g53
(dp382
sg62
g250
sg55
(lp383
g48
(g69
g50
NtRp384
(dp385
g53
(dp386
g73
g74
ssg62
g380
sg55
(lp387
S'version'
p388
asbag48
(g69
g50
NtRp389
(dp390
g53
(dp391
g80
g81
ssg62
g380
sg55
(lp392
S':'
asbag48
(g69
g50
NtRp393
(dp394
g53
(dp395
sg62
g380
sg55
(lp396
g48
(g49
g50
NtRp397
(dp398
g53
(dp399
g61
I3
ssg62
g393
sg55
(lp400
S''
asbasbasbasbasbasbasbag48
(g64
g50
NtRp401
(dp402
g53
(dp403
sg62
g225
sg55
(lp404
g48
(g69
g50
NtRp405
(dp406
g53
(dp407
g73
g74
ssg62
g401
sg55
(lp408
S'session_id_ojtest'
p409
asbag48
(g69
g50
NtRp410
(dp411
g53
(dp412
g80
g81
ssg62
g401
sg55
(lp413
S':'
asbag48
(g69
g50
NtRp414
(dp415
g53
(dp416
sg62
g401
sg55
(lp417
g48
(g49
g50
NtRp418
(dp419
g53
(dp420
g61
I4
ssg62
g414
sg55
(lp421
g48
(g57
g50
NtRp422
(dp423
g53
(dp424
g61
I3
ssg62
Nsg55
(lp425
g48
(g64
g50
NtRp426
(dp427
g53
(dp428
sg62
g422
sg55
(lp429
g48
(g69
g50
NtRp430
(dp431
g53
(dp432
g73
g74
ssg62
g426
sg55
(lp433
g262
asbag48
(g69
g50
NtRp434
(dp435
g53
(dp436
g80
g81
ssg62
g426
sg55
(lp437
S':'
asbag48
(g69
g50
NtRp438
(dp439
g53
(dp440
sg62
g426
sg55
(lp441
g48
(g49
g50
NtRp442
(dp443
g53
(dp444
g61
I3
ssg62
g438
sg55
(lp445
S''
asbasbasbag48
(g64
g50
NtRp446
(dp447
g53
(dp448
sg62
g422
sg55
(lp449
g48
(g69
g50
NtRp450
(dp451
g53
(dp452
g73
g74
ssg62
g446
sg55
(lp453
g283
asbag48
(g69
g50
NtRp454
(dp455
g53
(dp456
g80
g81
ssg62
g446
sg55
(lp457
S':'
asbag48
(g69
g50
NtRp458
(dp459
g53
(dp460
sg62
g446
sg55
(lp461
g48
(g49
g50
NtRp462
(dp463
g53
(dp464
g61
I3
ssg62
g458
sg55
(lp465
S''
asbasbasbag48
(g64
g50
NtRp466
(dp467
g53
(dp468
sg62
g422
sg55
(lp469
g48
(g69
g50
NtRp470
(dp471
g53
(dp472
g73
g74
ssg62
g466
sg55
(lp473
g304
asbag48
(g69
g50
NtRp474
(dp475
g53
(dp476
g80
g81
ssg62
g466
sg55
(lp477
S':'
asbag48
(g69
g50
NtRp478
(dp479
g53
(dp480
sg62
g466
sg55
(lp481
g48
(g49
g50
NtRp482
(dp483
g53
(dp484
g61
I3
ssg62
g478
sg55
(lp485
S''
asbasbasbag48
(g64
g50
NtRp486
(dp487
g53
(dp488
sg62
g422
sg55
(lp489
g48
(g69
g50
NtRp490
(dp491
g53
(dp492
g73
g74
ssg62
g486
sg55
(lp493
g325
asbag48
(g69
g50
NtRp494
(dp495
g53
(dp496
g80
g81
ssg62
g486
sg55
(lp497
S':'
asbag48
(g69
g50
NtRp498
(dp499
g53
(dp500
sg62
g486
sg55
(lp501
g48
(g49
g50
NtRp502
(dp503
g53
(dp504
g61
I3
ssg62
g498
sg55
(lp505
S''
asbasbasbag48
(g64
g50
NtRp506
(dp507
g53
(dp508
sg62
g422
sg55
(lp509
g48
(g69
g50
NtRp510
(dp511
g53
(dp512
g73
g74
ssg62
g506
sg55
(lp513
g346
asbag48
(g69
g50
NtRp514
(dp515
g53
(dp516
g80
g81
ssg62
g506
sg55
(lp517
S':'
asbag48
(g69
g50
NtRp518
(dp519
g53
(dp520
sg62
g506
sg55
(lp521
g48
(g49
g50
NtRp522
(dp523
g53
(dp524
g61
I3
ssg62
g518
sg55
(lp525
S''
asbasbasbag48
(g64
g50
NtRp526
(dp527
g53
(dp528
sg62
g422
sg55
(lp529
g48
(g69
g50
NtRp530
(dp531
g53
(dp532
g73
g74
ssg62
g526
sg55
(lp533
g367
asbag48
(g69
g50
NtRp534
(dp535
g53
(dp536
g80
g81
ssg62
g526
sg55
(lp537
S':'
asbag48
(g69
g50
NtRp538
(dp539
g53
(dp540
sg62
g526
sg55
(lp541
g48
(g49
g50
NtRp542
(dp543
g53
(dp544
g61
I3
ssg62
g538
sg55
(lp545
S''
asbasbasbag48
(g64
g50
NtRp546
(dp547
g53
(dp548
sg62
g422
sg55
(lp549
g48
(g69
g50
NtRp550
(dp551
g53
(dp552
g73
g74
ssg62
g546
sg55
(lp553
g388
asbag48
(g69
g50
NtRp554
(dp555
g53
(dp556
g80
g81
ssg62
g546
sg55
(lp557
S':'
asbag48
(g69
g50
NtRp558
(dp559
g53
(dp560
sg62
g546
sg55
(lp561
g48
(g49
g50
NtRp562
(dp563
g53
(dp564
g61
I3
ssg62
g558
sg55
(lp565
S''
asbasbasbasbasbasbasbag48
(g64
g50
NtRp566
(dp567
g53
(dp568
sg62
g225
sg55
(lp569
g48
(g69
g50
NtRp570
(dp571
g53
(dp572
g73
g74
ssg62
g566
sg55
(lp573
S'session_id_ojtest_old'
p574
asbag48
(g69
g50
NtRp575
(dp576
g53
(dp577
g80
g81
ssg62
g566
sg55
(lp578
S':'
asbag48
(g69
g50
NtRp579
(dp580
g53
(dp581
sg62
g566
sg55
(lp582
g48
(g49
g50
NtRp583
(dp584
g53
(dp585
g61
I4
ssg62
g579
sg55
(lp586
g48
(g57
g50
NtRp587
(dp588
g53
(dp589
g61
I3
ssg62
Nsg55
(lp590
g48
(g64
g50
NtRp591
(dp592
g53
(dp593
sg62
g587
sg55
(lp594
g48
(g69
g50
NtRp595
(dp596
g53
(dp597
g73
g74
ssg62
g591
sg55
(lp598
g262
asbag48
(g69
g50
NtRp599
(dp600
g53
(dp601
g80
g81
ssg62
g591
sg55
(lp602
S':'
asbag48
(g69
g50
NtRp603
(dp604
g53
(dp605
sg62
g591
sg55
(lp606
g48
(g49
g50
NtRp607
(dp608
g53
(dp609
g61
I3
ssg62
g603
sg55
(lp610
S''
asbasbasbag48
(g64
g50
NtRp611
(dp612
g53
(dp613
sg62
g587
sg55
(lp614
g48
(g69
g50
NtRp615
(dp616
g53
(dp617
g73
g74
ssg62
g611
sg55
(lp618
g283
asbag48
(g69
g50
NtRp619
(dp620
g53
(dp621
g80
g81
ssg62
g611
sg55
(lp622
S':'
asbag48
(g69
g50
NtRp623
(dp624
g53
(dp625
sg62
g611
sg55
(lp626
g48
(g49
g50
NtRp627
(dp628
g53
(dp629
g61
I3
ssg62
g623
sg55
(lp630
S''
asbasbasbag48
(g64
g50
NtRp631
(dp632
g53
(dp633
sg62
g587
sg55
(lp634
g48
(g69
g50
NtRp635
(dp636
g53
(dp637
g73
g74
ssg62
g631
sg55
(lp638
g304
asbag48
(g69
g50
NtRp639
(dp640
g53
(dp641
g80
g81
ssg62
g631
sg55
(lp642
S':'
asbag48
(g69
g50
NtRp643
(dp644
g53
(dp645
sg62
g631
sg55
(lp646
g48
(g49
g50
NtRp647
(dp648
g53
(dp649
g61
I3
ssg62
g643
sg55
(lp650
S''
asbasbasbag48
(g64
g50
NtRp651
(dp652
g53
(dp653
sg62
g587
sg55
(lp654
g48
(g69
g50
NtRp655
(dp656
g53
(dp657
g73
g74
ssg62
g651
sg55
(lp658
g325
asbag48
(g69
g50
NtRp659
(dp660
g53
(dp661
g80
g81
ssg62
g651
sg55
(lp662
S':'
asbag48
(g69
g50
NtRp663
(dp664
g53
(dp665
sg62
g651
sg55
(lp666
g48
(g49
g50
NtRp667
(dp668
g53
(dp669
g61
I3
ssg62
g663
sg55
(lp670
S''
asbasbasbag48
(g64
g50
NtRp671
(dp672
g53
(dp673
sg62
g587
sg55
(lp674
g48
(g69
g50
NtRp675
(dp676
g53
(dp677
g73
g74
ssg62
g671
sg55
(lp678
g346
asbag48
(g69
g50
NtRp679
(dp680
g53
(dp681
g80
g81
ssg62
g671
sg55
(lp682
S':'
asbag48
(g69
g50
NtRp683
(dp684
g53
(dp685
sg62
g671
sg55
(lp686
g48
(g49
g50
NtRp687
(dp688
g53
(dp689
g61
I3
ssg62
g683
sg55
(lp690
S''
asbasbasbag48
(g64
g50
NtRp691
(dp692
g53
(dp693
sg62
g587
sg55
(lp694
g48
(g69
g50
NtRp695
(dp696
g53
(dp697
g73
g74
ssg62
g691
sg55
(lp698
g367
asbag48
(g69
g50
NtRp699
(dp700
g53
(dp701
g80
g81
ssg62
g691
sg55
(lp702
S':'
asbag48
(g69
g50
NtRp703
(dp704
g53
(dp705
sg62
g691
sg55
(lp706
g48
(g49
g50
NtRp707
(dp708
g53
(dp709
g61
I3
ssg62
g703
sg55
(lp710
S''
asbasbasbag48
(g64
g50
NtRp711
(dp712
g53
(dp713
sg62
g587
sg55
(lp714
g48
(g69
g50
NtRp715
(dp716
g53
(dp717
g73
g74
ssg62
g711
sg55
(lp718
g388
asbag48
(g69
g50
NtRp719
(dp720
g53
(dp721
g80
g81
ssg62
g711
sg55
(lp722
S':'
asbag48
(g69
g50
NtRp723
(dp724
g53
(dp725
sg62
g711
sg55
(lp726
g48
(g49
g50
NtRp727
(dp728
g53
(dp729
g61
I3
ssg62
g723
sg55
(lp730
S''
asbasbasbasbasbasbasbasbasbasbasbag48
(g64
g50
NtRp731
(dp732
g53
(dp733
sg62
g58
sg55
(lp734
g48
(g69
g50
NtRp735
(dp736
g53
(dp737
g73
g74
ssg62
g731
sg55
(lp738
S'env'
p739
asbag48
(g69
g50
NtRp740
(dp741
g53
(dp742
g80
g81
ssg62
g731
sg55
(lp743
S':'
asbag48
(g69
g50
NtRp744
(dp745
g53
(dp746
sg62
g731
sg55
(lp747
g48
(g49
g50
NtRp748
(dp749
g53
(dp750
g61
I5
ssg62
g744
sg55
(lp751
g48
(g57
g50
NtRp752
(dp753
g53
(dp754
g61
I4
ssg62
Nsg55
(lp755
g48
(g64
g50
NtRp756
(dp757
g53
(dp758
sg62
g752
sg55
(lp759
g48
(g69
g50
NtRp760
(dp761
g53
(dp762
g73
g74
ssg62
g756
sg55
(lp763
S'app_folders'
p764
asbag48
(g69
g50
NtRp765
(dp766
g53
(dp767
g80
g81
ssg62
g756
sg55
(lp768
S':'
asbag48
(g69
g50
NtRp769
(dp770
g53
(dp771
sg62
g756
sg55
(lp772
g48
(g49
g50
NtRp773
(dp774
g53
(dp775
g61
I4
ssg62
g769
sg55
(lp776
S"set(['D:\\\\Dropbox\\\\Eclipse\\\\OJDevSourceProject\\\\project\\\\web2py\\\\applications\\\\admin\\\\', 'D:\\\\Dropbox\\\\Eclipse\\\\OJDevSourceProject\\\\project\\\\web2py\\\\applications\\\\OJTest\\\\', 'D:\\\\Dropbox\\\\Eclipse\\\\OJDevSourceProject\\\\project\\\\web2py\\\\applications\\\\OJTest_old\\\\', 'D:\\\\Dropbox\\\\Eclipse\\\\OJDevSourceProject\\\\project\\\\web2py\\\\applications\\\\ojtest\\\\'])"
p777
asbasbasbag48
(g64
g50
NtRp778
(dp779
g53
(dp780
sg62
g752
sg55
(lp781
g48
(g69
g50
NtRp782
(dp783
g53
(dp784
g73
g74
ssg62
g778
sg55
(lp785
S'applications_parent'
p786
asbag48
(g69
g50
NtRp787
(dp788
g53
(dp789
g80
g81
ssg62
g778
sg55
(lp790
S':'
asbag48
(g69
g50
NtRp791
(dp792
g53
(dp793
sg62
g778
sg55
(lp794
g48
(g49
g50
NtRp795
(dp796
g53
(dp797
g61
I4
ssg62
g791
sg55
(lp798
S'D:\\Dropbox\\Eclipse\\OJDevSourceProject\\project\\web2py'
p799
asbasbasbag48
(g64
g50
NtRp800
(dp801
g53
(dp802
sg62
g752
sg55
(lp803
g48
(g69
g50
NtRp804
(dp805
g53
(dp806
g73
g74
ssg62
g800
sg55
(lp807
S'cmd_args'
p808
asbag48
(g69
g50
NtRp809
(dp810
g53
(dp811
g80
g81
ssg62
g800
sg55
(lp812
S':'
asbag48
(g69
g50
NtRp813
(dp814
g53
(dp815
sg62
g800
sg55
(lp816
g48
(g49
g50
NtRp817
(dp818
g53
(dp819
g61
I4
ssg62
g813
sg55
(lp820
g48
(g57
g50
NtRp821
(dp822
g53
(dp823
g61
I3
ssg62
Nsg55
(lp824
sbasbasbasbag48
(g64
g50
NtRp825
(dp826
g53
(dp827
sg62
g752
sg55
(lp828
g48
(g69
g50
NtRp829
(dp830
g53
(dp831
g73
g74
ssg62
g825
sg55
(lp832
S'cmd_options'
p833
asbag48
(g69
g50
NtRp834
(dp835
g53
(dp836
g80
g81
ssg62
g825
sg55
(lp837
S':'
asbag48
(g69
g50
NtRp838
(dp839
g53
(dp840
sg62
g825
sg55
(lp841
g48
(g49
g50
NtRp842
(dp843
g53
(dp844
g61
I4
ssg62
g838
sg55
(lp845
S"<Values at 0x3693788: {'verbose': False, 'ip': '127.0.0.1', 'shutdown_timeout': 5, 'taskbar': False, 'nocron': False, 'pid_filename': 'httpserver.pid', 'maxthreads': None, 'softcron': False, 'server_name': 'John-PC', 'bpython': False, 'nogui': False, 'port': 8000, 'extcron': False, 'debuglevel': 30, 'test': None, 'folder': 'D:\\\\Dropbox\\\\Eclipse\\\\OJDevSourceProject\\\\project\\\\web2py', 'config': '', 'import_models': False, 'winservice': '', 'shell': None, 'run': '', 'log_filename': 'httpserver.log', 'args': [''], 'ssl_ca_certificate': None, 'scheduler': None, 'profiler_filename': None, 'ssl_private_key': '', 'password': '<ask>', 'request_queue_size': 5, 'ssl_certificate': '', 'cronjob': False, 'plain': False, 'quiet': False, 'interfaces': None, 'minthreads': None, 'timeout': 10, 'numthreads': None, 'nobanner': False}>"
p846
asbasbasbag48
(g64
g50
NtRp847
(dp848
g53
(dp849
sg62
g752
sg55
(lp850
g48
(g69
g50
NtRp851
(dp852
g53
(dp853
g73
g74
ssg62
g847
sg55
(lp854
S'content_length'
p855
asbag48
(g69
g50
NtRp856
(dp857
g53
(dp858
g80
g81
ssg62
g847
sg55
(lp859
S':'
asbag48
(g69
g50
NtRp860
(dp861
g53
(dp862
sg62
g847
sg55
(lp863
g48
(g49
g50
NtRp864
(dp865
g53
(dp866
g61
I4
ssg62
g860
sg55
(lp867
S'0'
asbasbasbag48
(g64
g50
NtRp868
(dp869
g53
(dp870
sg62
g752
sg55
(lp871
g48
(g69
g50
NtRp872
(dp873
g53
(dp874
g73
g74
ssg62
g868
sg55
(lp875
S'db_sessions'
p876
asbag48
(g69
g50
NtRp877
(dp878
g53
(dp879
g80
g81
ssg62
g868
sg55
(lp880
S':'
asbag48
(g69
g50
NtRp881
(dp882
g53
(dp883
sg62
g868
sg55
(lp884
g48
(g49
g50
NtRp885
(dp886
g53
(dp887
g61
I4
ssg62
g881
sg55
(lp888
S'set([])'
p889
asbasbasbag48
(g64
g50
NtRp890
(dp891
g53
(dp892
sg62
g752
sg55
(lp893
g48
(g69
g50
NtRp894
(dp895
g53
(dp896
g73
g74
ssg62
g890
sg55
(lp897
S'debugging'
p898
asbag48
(g69
g50
NtRp899
(dp900
g53
(dp901
g80
g81
ssg62
g890
sg55
(lp902
S':'
asbag48
(g69
g50
NtRp903
(dp904
g53
(dp905
sg62
g890
sg55
(lp906
g48
(g49
g50
NtRp907
(dp908
g53
(dp909
g61
I4
ssg62
g903
sg55
(lp910
S'False'
p911
asbasbasbag48
(g64
g50
NtRp912
(dp913
g53
(dp914
sg62
g752
sg55
(lp915
g48
(g69
g50
NtRp916
(dp917
g53
(dp918
g73
g74
ssg62
g912
sg55
(lp919
S'gluon_parent'
p920
asbag48
(g69
g50
NtRp921
(dp922
g53
(dp923
g80
g81
ssg62
g912
sg55
(lp924
S':'
asbag48
(g69
g50
NtRp925
(dp926
g53
(dp927
sg62
g912
sg55
(lp928
g48
(g49
g50
NtRp929
(dp930
g53
(dp931
g61
I4
ssg62
g925
sg55
(lp932
S'D:\\Dropbox\\Eclipse\\OJDevSourceProject\\project\\web2py'
p933
asbasbasbag48
(g64
g50
NtRp934
(dp935
g53
(dp936
sg62
g752
sg55
(lp937
g48
(g69
g50
NtRp938
(dp939
g53
(dp940
g73
g74
ssg62
g934
sg55
(lp941
S'http_accept'
p942
asbag48
(g69
g50
NtRp943
(dp944
g53
(dp945
g80
g81
ssg62
g934
sg55
(lp946
S':'
asbag48
(g69
g50
NtRp947
(dp948
g53
(dp949
sg62
g934
sg55
(lp950
g48
(g49
g50
NtRp951
(dp952
g53
(dp953
g61
I4
ssg62
g947
sg55
(lp954
S'*/*'
p955
asbasbasbag48
(g64
g50
NtRp956
(dp957
g53
(dp958
sg62
g752
sg55
(lp959
g48
(g69
g50
NtRp960
(dp961
g53
(dp962
g73
g74
ssg62
g956
sg55
(lp963
S'http_accept_charset'
p964
asbag48
(g69
g50
NtRp965
(dp966
g53
(dp967
g80
g81
ssg62
g956
sg55
(lp968
S':'
asbag48
(g69
g50
NtRp969
(dp970
g53
(dp971
sg62
g956
sg55
(lp972
g48
(g49
g50
NtRp973
(dp974
g53
(dp975
g61
I4
ssg62
g969
sg55
(lp976
S'ISO-8859-1,utf-8;q=0.7,*;q=0.3'
p977
asbasbasbag48
(g64
g50
NtRp978
(dp979
g53
(dp980
sg62
g752
sg55
(lp981
g48
(g69
g50
NtRp982
(dp983
g53
(dp984
g73
g74
ssg62
g978
sg55
(lp985
S'http_accept_encoding'
p986
asbag48
(g69
g50
NtRp987
(dp988
g53
(dp989
g80
g81
ssg62
g978
sg55
(lp990
S':'
asbag48
(g69
g50
NtRp991
(dp992
g53
(dp993
sg62
g978
sg55
(lp994
g48
(g49
g50
NtRp995
(dp996
g53
(dp997
g61
I4
ssg62
g991
sg55
(lp998
S'gzip,deflate,sdch'
p999
asbasbasbag48
(g64
g50
NtRp1000
(dp1001
g53
(dp1002
sg62
g752
sg55
(lp1003
g48
(g69
g50
NtRp1004
(dp1005
g53
(dp1006
g73
g74
ssg62
g1000
sg55
(lp1007
S'http_accept_language'
p1008
asbag48
(g69
g50
NtRp1009
(dp1010
g53
(dp1011
g80
g81
ssg62
g1000
sg55
(lp1012
S':'
asbag48
(g69
g50
NtRp1013
(dp1014
g53
(dp1015
sg62
g1000
sg55
(lp1016
g48
(g49
g50
NtRp1017
(dp1018
g53
(dp1019
g61
I4
ssg62
g1013
sg55
(lp1020
S'en-US,en;q=0.8'
p1021
asbasbasbag48
(g64
g50
NtRp1022
(dp1023
g53
(dp1024
sg62
g752
sg55
(lp1025
g48
(g69
g50
NtRp1026
(dp1027
g53
(dp1028
g73
g74
ssg62
g1022
sg55
(lp1029
S'http_connection'
p1030
asbag48
(g69
g50
NtRp1031
(dp1032
g53
(dp1033
g80
g81
ssg62
g1022
sg55
(lp1034
S':'
asbag48
(g69
g50
NtRp1035
(dp1036
g53
(dp1037
sg62
g1022
sg55
(lp1038
g48
(g49
g50
NtRp1039
(dp1040
g53
(dp1041
g61
I4
ssg62
g1035
sg55
(lp1042
S'keep-alive'
p1043
asbasbasbag48
(g64
g50
NtRp1044
(dp1045
g53
(dp1046
sg62
g752
sg55
(lp1047
g48
(g69
g50
NtRp1048
(dp1049
g53
(dp1050
g73
g74
ssg62
g1044
sg55
(lp1051
S'http_content_length'
p1052
asbag48
(g69
g50
NtRp1053
(dp1054
g53
(dp1055
g80
g81
ssg62
g1044
sg55
(lp1056
S':'
asbag48
(g69
g50
NtRp1057
(dp1058
g53
(dp1059
sg62
g1044
sg55
(lp1060
g48
(g49
g50
NtRp1061
(dp1062
g53
(dp1063
g61
I4
ssg62
g1057
sg55
(lp1064
S'0'
asbasbasbag48
(g64
g50
NtRp1065
(dp1066
g53
(dp1067
sg62
g752
sg55
(lp1068
g48
(g69
g50
NtRp1069
(dp1070
g53
(dp1071
g73
g74
ssg62
g1065
sg55
(lp1072
S'http_cookie'
p1073
asbag48
(g69
g50
NtRp1074
(dp1075
g53
(dp1076
g80
g81
ssg62
g1065
sg55
(lp1077
S':'
asbag48
(g69
g50
NtRp1078
(dp1079
g53
(dp1080
sg62
g1065
sg55
(lp1081
g48
(g49
g50
NtRp1082
(dp1083
g53
(dp1084
g61
I4
ssg62
g1078
sg55
(lp1085
S'session_id_ojtest_old=127.0.0.1-f092c6e7-f936-4e98-b205-3cf9945ef5a4; session_id_ojtest=127.0.0.1-0de9be34-e4fe-487c-a6eb-337cd5110ef4; session_id_admin=127.0.0.1-5b4395d5-e341-4481-9660-2d895f19c62b'
p1086
asbasbasbag48
(g64
g50
NtRp1087
(dp1088
g53
(dp1089
sg62
g752
sg55
(lp1090
g48
(g69
g50
NtRp1091
(dp1092
g53
(dp1093
g73
g74
ssg62
g1087
sg55
(lp1094
S'http_host'
p1095
asbag48
(g69
g50
NtRp1096
(dp1097
g53
(dp1098
g80
g81
ssg62
g1087
sg55
(lp1099
S':'
asbag48
(g69
g50
NtRp1100
(dp1101
g53
(dp1102
sg62
g1087
sg55
(lp1103
g48
(g49
g50
NtRp1104
(dp1105
g53
(dp1106
g61
I4
ssg62
g1100
sg55
(lp1107
S'127.0.0.1:8000'
p1108
asbasbasbag48
(g64
g50
NtRp1109
(dp1110
g53
(dp1111
sg62
g752
sg55
(lp1112
g48
(g69
g50
NtRp1113
(dp1114
g53
(dp1115
g73
g74
ssg62
g1109
sg55
(lp1116
S'http_origin'
p1117
asbag48
(g69
g50
NtRp1118
(dp1119
g53
(dp1120
g80
g81
ssg62
g1109
sg55
(lp1121
S':'
asbag48
(g69
g50
NtRp1122
(dp1123
g53
(dp1124
sg62
g1109
sg55
(lp1125
g48
(g49
g50
NtRp1126
(dp1127
g53
(dp1128
g61
I4
ssg62
g1122
sg55
(lp1129
S'http://127.0.0.1:8000'
p1130
asbasbasbag48
(g64
g50
NtRp1131
(dp1132
g53
(dp1133
sg62
g752
sg55
(lp1134
g48
(g69
g50
NtRp1135
(dp1136
g53
(dp1137
g73
g74
ssg62
g1131
sg55
(lp1138
S'http_referer'
p1139
asbag48
(g69
g50
NtRp1140
(dp1141
g53
(dp1142
g80
g81
ssg62
g1131
sg55
(lp1143
S':'
asbag48
(g69
g50
NtRp1144
(dp1145
g53
(dp1146
sg62
g1131
sg55
(lp1147
g48
(g49
g50
NtRp1148
(dp1149
g53
(dp1150
g61
I4
ssg62
g1144
sg55
(lp1151
S'http://127.0.0.1:8000/admin/default/site'
p1152
asbasbasbag48
(g64
g50
NtRp1153
(dp1154
g53
(dp1155
sg62
g752
sg55
(lp1156
g48
(g69
g50
NtRp1157
(dp1158
g53
(dp1159
g73
g74
ssg62
g1153
sg55
(lp1160
S'http_user_agent'
p1161
asbag48
(g69
g50
NtRp1162
(dp1163
g53
(dp1164
g80
g81
ssg62
g1153
sg55
(lp1165
S':'
asbag48
(g69
g50
NtRp1166
(dp1167
g53
(dp1168
sg62
g1153
sg55
(lp1169
g48
(g49
g50
NtRp1170
(dp1171
g53
(dp1172
g61
I4
ssg62
g1166
sg55
(lp1173
S'Mozilla/5.0 (Windows NT 6.1; WOW64) AppleWebKit/535.7 (KHTML, like Gecko) Chrome/16.0.912.75 Safari/535.7'
p1174
asbasbasbag48
(g64
g50
NtRp1175
(dp1176
g53
(dp1177
sg62
g752
sg55
(lp1178
g48
(g69
g50
NtRp1179
(dp1180
g53
(dp1181
g73
g74
ssg62
g1175
sg55
(lp1182
S'http_x_requested_with'
p1183
asbag48
(g69
g50
NtRp1184
(dp1185
g53
(dp1186
g80
g81
ssg62
g1175
sg55
(lp1187
S':'
asbag48
(g69
g50
NtRp1188
(dp1189
g53
(dp1190
sg62
g1175
sg55
(lp1191
g48
(g49
g50
NtRp1192
(dp1193
g53
(dp1194
g61
I4
ssg62
g1188
sg55
(lp1195
S'XMLHttpRequest'
p1196
asbasbasbag48
(g64
g50
NtRp1197
(dp1198
g53
(dp1199
sg62
g752
sg55
(lp1200
g48
(g69
g50
NtRp1201
(dp1202
g53
(dp1203
g73
g74
ssg62
g1197
sg55
(lp1204
S'is_jython'
p1205
asbag48
(g69
g50
NtRp1206
(dp1207
g53
(dp1208
g80
g81
ssg62
g1197
sg55
(lp1209
S':'
asbag48
(g69
g50
NtRp1210
(dp1211
g53
(dp1212
sg62
g1197
sg55
(lp1213
g48
(g49
g50
NtRp1214
(dp1215
g53
(dp1216
g61
I4
ssg62
g1210
sg55
(lp1217
g911
asbasbasbag48
(g64
g50
NtRp1218
(dp1219
g53
(dp1220
sg62
g752
sg55
(lp1221
g48
(g69
g50
NtRp1222
(dp1223
g53
(dp1224
g73
g74
ssg62
g1218
sg55
(lp1225
S'path_info'
p1226
asbag48
(g69
g50
NtRp1227
(dp1228
g53
(dp1229
g80
g81
ssg62
g1218
sg55
(lp1230
S':'
asbag48
(g69
g50
NtRp1231
(dp1232
g53
(dp1233
sg62
g1218
sg55
(lp1234
g48
(g49
g50
NtRp1235
(dp1236
g53
(dp1237
g61
I4
ssg62
g1231
sg55
(lp1238
S'/admin/default/check_version'
p1239
asbasbasbag48
(g64
g50
NtRp1240
(dp1241
g53
(dp1242
sg62
g752
sg55
(lp1243
g48
(g69
g50
NtRp1244
(dp1245
g53
(dp1246
g73
g74
ssg62
g1240
sg55
(lp1247
S'query_string'
p1248
asbag48
(g69
g50
NtRp1249
(dp1250
g53
(dp1251
g80
g81
ssg62
g1240
sg55
(lp1252
S':'
asbag48
(g69
g50
NtRp1253
(dp1254
g53
(dp1255
sg62
g1240
sg55
(lp1256
g48
(g49
g50
NtRp1257
(dp1258
g53
(dp1259
g61
I4
ssg62
g1253
sg55
(lp1260
S''
asbasbasbag48
(g64
g50
NtRp1261
(dp1262
g53
(dp1263
sg62
g752
sg55
(lp1264
g48
(g69
g50
NtRp1265
(dp1266
g53
(dp1267
g73
g74
ssg62
g1261
sg55
(lp1268
S'remote_addr'
p1269
asbag48
(g69
g50
NtRp1270
(dp1271
g53
(dp1272
g80
g81
ssg62
g1261
sg55
(lp1273
S':'
asbag48
(g69
g50
NtRp1274
(dp1275
g53
(dp1276
sg62
g1261
sg55
(lp1277
g48
(g49
g50
NtRp1278
(dp1279
g53
(dp1280
g61
I4
ssg62
g1274
sg55
(lp1281
g181
asbasbasbag48
(g64
g50
NtRp1282
(dp1283
g53
(dp1284
sg62
g752
sg55
(lp1285
g48
(g69
g50
NtRp1286
(dp1287
g53
(dp1288
g73
g74
ssg62
g1282
sg55
(lp1289
S'remote_port'
p1290
asbag48
(g69
g50
NtRp1291
(dp1292
g53
(dp1293
g80
g81
ssg62
g1282
sg55
(lp1294
S':'
asbag48
(g69
g50
NtRp1295
(dp1296
g53
(dp1297
sg62
g1282
sg55
(lp1298
g48
(g49
g50
NtRp1299
(dp1300
g53
(dp1301
g61
I4
ssg62
g1295
sg55
(lp1302
S'54455'
p1303
asbasbasbag48
(g64
g50
NtRp1304
(dp1305
g53
(dp1306
sg62
g752
sg55
(lp1307
g48
(g69
g50
NtRp1308
(dp1309
g53
(dp1310
g73
g74
ssg62
g1304
sg55
(lp1311
S'request_method'
p1312
asbag48
(g69
g50
NtRp1313
(dp1314
g53
(dp1315
g80
g81
ssg62
g1304
sg55
(lp1316
S':'
asbag48
(g69
g50
NtRp1317
(dp1318
g53
(dp1319
sg62
g1304
sg55
(lp1320
g48
(g49
g50
NtRp1321
(dp1322
g53
(dp1323
g61
I4
ssg62
g1317
sg55
(lp1324
S'POST'
p1325
asbasbasbag48
(g64
g50
NtRp1326
(dp1327
g53
(dp1328
sg62
g752
sg55
(lp1329
g48
(g69
g50
NtRp1330
(dp1331
g53
(dp1332
g73
g74
ssg62
g1326
sg55
(lp1333
S'request_uri'
p1334
asbag48
(g69
g50
NtRp1335
(dp1336
g53
(dp1337
g80
g81
ssg62
g1326
sg55
(lp1338
S':'
asbag48
(g69
g50
NtRp1339
(dp1340
g53
(dp1341
sg62
g1326
sg55
(lp1342
g48
(g49
g50
NtRp1343
(dp1344
g53
(dp1345
g61
I4
ssg62
g1339
sg55
(lp1346
g1239
asbasbasbag48
(g64
g50
NtRp1347
(dp1348
g53
(dp1349
sg62
g752
sg55
(lp1350
g48
(g69
g50
NtRp1351
(dp1352
g53
(dp1353
g73
g74
ssg62
g1347
sg55
(lp1354
S'script_name'
p1355
asbag48
(g69
g50
NtRp1356
(dp1357
g53
(dp1358
g80
g81
ssg62
g1347
sg55
(lp1359
S':'
asbag48
(g69
g50
NtRp1360
(dp1361
g53
(dp1362
sg62
g1347
sg55
(lp1363
g48
(g49
g50
NtRp1364
(dp1365
g53
(dp1366
g61
I4
ssg62
g1360
sg55
(lp1367
S''
asbasbasbag48
(g64
g50
NtRp1368
(dp1369
g53
(dp1370
sg62
g752
sg55
(lp1371
g48
(g69
g50
NtRp1372
(dp1373
g53
(dp1374
g73
g74
ssg62
g1368
sg55
(lp1375
S'server_name'
p1376
asbag48
(g69
g50
NtRp1377
(dp1378
g53
(dp1379
g80
g81
ssg62
g1368
sg55
(lp1380
S':'
asbag48
(g69
g50
NtRp1381
(dp1382
g53
(dp1383
sg62
g1368
sg55
(lp1384
g48
(g49
g50
NtRp1385
(dp1386
g53
(dp1387
g61
I4
ssg62
g1381
sg55
(lp1388
S'John-PC'
p1389
asbasbasbag48
(g64
g50
NtRp1390
(dp1391
g53
(dp1392
sg62
g752
sg55
(lp1393
g48
(g69
g50
NtRp1394
(dp1395
g53
(dp1396
g73
g74
ssg62
g1390
sg55
(lp1397
S'server_port'
p1398
asbag48
(g69
g50
NtRp1399
(dp1400
g53
(dp1401
g80
g81
ssg62
g1390
sg55
(lp1402
S':'
asbag48
(g69
g50
NtRp1403
(dp1404
g53
(dp1405
sg62
g1390
sg55
(lp1406
g48
(g49
g50
NtRp1407
(dp1408
g53
(dp1409
g61
I4
ssg62
g1403
sg55
(lp1410
S'8000'
p1411
asbasbasbag48
(g64
g50
NtRp1412
(dp1413
g53
(dp1414
sg62
g752
sg55
(lp1415
g48
(g69
g50
NtRp1416
(dp1417
g53
(dp1418
g73
g74
ssg62
g1412
sg55
(lp1419
S'server_protocol'
p1420
asbag48
(g69
g50
NtRp1421
(dp1422
g53
(dp1423
g80
g81
ssg62
g1412
sg55
(lp1424
S':'
asbag48
(g69
g50
NtRp1425
(dp1426
g53
(dp1427
sg62
g1412
sg55
(lp1428
g48
(g49
g50
NtRp1429
(dp1430
g53
(dp1431
g61
I4
ssg62
g1425
sg55
(lp1432
S'HTTP/1.1'
p1433
asbasbasbag48
(g64
g50
NtRp1434
(dp1435
g53
(dp1436
sg62
g752
sg55
(lp1437
g48
(g69
g50
NtRp1438
(dp1439
g53
(dp1440
g73
g74
ssg62
g1434
sg55
(lp1441
S'server_software'
p1442
asbag48
(g69
g50
NtRp1443
(dp1444
g53
(dp1445
g80
g81
ssg62
g1434
sg55
(lp1446
S':'
asbag48
(g69
g50
NtRp1447
(dp1448
g53
(dp1449
sg62
g1434
sg55
(lp1450
g48
(g49
g50
NtRp1451
(dp1452
g53
(dp1453
g61
I4
ssg62
g1447
sg55
(lp1454
S'Rocket 1.2.4'
p1455
asbasbasbag48
(g64
g50
NtRp1456
(dp1457
g53
(dp1458
sg62
g752
sg55
(lp1459
g48
(g69
g50
NtRp1460
(dp1461
g53
(dp1462
g73
g74
ssg62
g1456
sg55
(lp1463
S'web2py_crontype'
p1464
asbag48
(g69
g50
NtRp1465
(dp1466
g53
(dp1467
g80
g81
ssg62
g1456
sg55
(lp1468
S':'
asbag48
(g69
g50
NtRp1469
(dp1470
g53
(dp1471
sg62
g1456
sg55
(lp1472
g48
(g49
g50
NtRp1473
(dp1474
g53
(dp1475
g61
I4
ssg62
g1469
sg55
(lp1476
S'hard'
p1477
asbasbasbag48
(g64
g50
NtRp1478
(dp1479
g53
(dp1480
sg62
g752
sg55
(lp1481
g48
(g69
g50
NtRp1482
(dp1483
g53
(dp1484
g73
g74
ssg62
g1478
sg55
(lp1485
S'web2py_original_uri'
p1486
asbag48
(g69
g50
NtRp1487
(dp1488
g53
(dp1489
g80
g81
ssg62
g1478
sg55
(lp1490
S':'
asbag48
(g69
g50
NtRp1491
(dp1492
g53
(dp1493
sg62
g1478
sg55
(lp1494
g48
(g49
g50
NtRp1495
(dp1496
g53
(dp1497
g61
I4
ssg62
g1491
sg55
(lp1498
S'/admin/default/check_version'
p1499
asbasbasbag48
(g64
g50
NtRp1500
(dp1501
g53
(dp1502
sg62
g752
sg55
(lp1503
g48
(g69
g50
NtRp1504
(dp1505
g53
(dp1506
g73
g74
ssg62
g1500
sg55
(lp1507
S'web2py_path'
p1508
asbag48
(g69
g50
NtRp1509
(dp1510
g53
(dp1511
g80
g81
ssg62
g1500
sg55
(lp1512
S':'
asbag48
(g69
g50
NtRp1513
(dp1514
g53
(dp1515
sg62
g1500
sg55
(lp1516
g48
(g49
g50
NtRp1517
(dp1518
g53
(dp1519
g61
I4
ssg62
g1513
sg55
(lp1520
g799
asbasbasbag48
(g64
g50
NtRp1521
(dp1522
g53
(dp1523
sg62
g752
sg55
(lp1524
g48
(g69
g50
NtRp1525
(dp1526
g53
(dp1527
g73
g74
ssg62
g1521
sg55
(lp1528
S'web2py_version'
p1529
asbag48
(g69
g50
NtRp1530
(dp1531
g53
(dp1532
g80
g81
ssg62
g1521
sg55
(lp1533
S':'
asbag48
(g69
g50
NtRp1534
(dp1535
g53
(dp1536
sg62
g1521
sg55
(lp1537
g48
(g49
g50
NtRp1538
(dp1539
g53
(dp1540
g61
I4
ssg62
g1534
sg55
(lp1541
g48
(g57
g50
NtRp1542
(dp1543
g53
(dp1544
g61
I3
ssg62
Nsg55
(lp1545
g48
(g64
g50
NtRp1546
(dp1547
g53
(dp1548
sg62
g1542
sg55
(lp1549
g48
(g69
g50
NtRp1550
(dp1551
g53
(dp1552
sg62
g1546
sg55
(lp1553
g48
(g49
g50
NtRp1554
(dp1555
g53
(dp1556
g61
I3
ssg62
g1550
sg55
(lp1557
S'1'
asbasbasbag48
(g64
g50
NtRp1558
(dp1559
g53
(dp1560
sg62
g1542
sg55
(lp1561
g48
(g69
g50
NtRp1562
(dp1563
g53
(dp1564
sg62
g1558
sg55
(lp1565
g48
(g49
g50
NtRp1566
(dp1567
g53
(dp1568
g61
I3
ssg62
g1562
sg55
(lp1569
S'99'
p1570
asbasbasbag48
(g64
g50
NtRp1571
(dp1572
g53
(dp1573
sg62
g1542
sg55
(lp1574
g48
(g69
g50
NtRp1575
(dp1576
g53
(dp1577
sg62
g1571
sg55
(lp1578
g48
(g49
g50
NtRp1579
(dp1580
g53
(dp1581
g61
I3
ssg62
g1575
sg55
(lp1582
S'2'
asbasbasbag48
(g64
g50
NtRp1583
(dp1584
g53
(dp1585
sg62
g1542
sg55
(lp1586
g48
(g69
g50
NtRp1587
(dp1588
g53
(dp1589
sg62
g1583
sg55
(lp1590
g48
(g49
g50
NtRp1591
(dp1592
g53
(dp1593
g61
I3
ssg62
g1587
sg55
(lp1594
S'datetime.datetime(2011, 9, 26, 6, 55, 33)'
p1595
asbasbasbag48
(g64
g50
NtRp1596
(dp1597
g53
(dp1598
sg62
g1542
sg55
(lp1599
g48
(g69
g50
NtRp1600
(dp1601
g53
(dp1602
sg62
g1596
sg55
(lp1603
g48
(g49
g50
NtRp1604
(dp1605
g53
(dp1606
g61
I3
ssg62
g1600
sg55
(lp1607
S'stable'
p1608
asbasbasbasbasbasbasbag48
(g64
g50
NtRp1609
(dp1610
g53
(dp1611
sg62
g752
sg55
(lp1612
g48
(g69
g50
NtRp1613
(dp1614
g53
(dp1615
g73
g74
ssg62
g1609
sg55
(lp1616
S'wsgi_errors'
p1617
asbag48
(g69
g50
NtRp1618
(dp1619
g53
(dp1620
g80
g81
ssg62
g1609
sg55
(lp1621
S':'
asbag48
(g69
g50
NtRp1622
(dp1623
g53
(dp1624
sg62
g1609
sg55
(lp1625
g48
(g49
g50
NtRp1626
(dp1627
g53
(dp1628
g61
I4
ssg62
g1622
sg55
(lp1629
S"<open file '<stderr>', mode 'w' at 0x005C00B0>"
p1630
asbasbasbag48
(g64
g50
NtRp1631
(dp1632
g53
(dp1633
sg62
g752
sg55
(lp1634
g48
(g69
g50
NtRp1635
(dp1636
g53
(dp1637
g73
g74
ssg62
g1631
sg55
(lp1638
S'wsgi_file_wrapper'
p1639
asbag48
(g69
g50
NtRp1640
(dp1641
g53
(dp1642
g80
g81
ssg62
g1631
sg55
(lp1643
S':'
asbag48
(g69
g50
NtRp1644
(dp1645
g53
(dp1646
sg62
g1631
sg55
(lp1647
g48
(g49
g50
NtRp1648
(dp1649
g53
(dp1650
g61
I4
ssg62
g1644
sg55
(lp1651
S'<class wsgiref.util.FileWrapper at 0x035B5570>'
p1652
asbasbasbag48
(g64
g50
NtRp1653
(dp1654
g53
(dp1655
sg62
g752
sg55
(lp1656
g48
(g69
g50
NtRp1657
(dp1658
g53
(dp1659
g73
g74
ssg62
g1653
sg55
(lp1660
S'wsgi_input'
p1661
asbag48
(g69
g50
NtRp1662
(dp1663
g53
(dp1664
g80
g81
ssg62
g1653
sg55
(lp1665
S':'
asbag48
(g69
g50
NtRp1666
(dp1667
g53
(dp1668
sg62
g1653
sg55
(lp1669
g48
(g49
g50
NtRp1670
(dp1671
g53
(dp1672
g61
I4
ssg62
g1666
sg55
(lp1673
S'<socket._fileobject object at 0x088CB8F0>'
p1674
asbasbasbag48
(g64
g50
NtRp1675
(dp1676
g53
(dp1677
sg62
g752
sg55
(lp1678
g48
(g69
g50
NtRp1679
(dp1680
g53
(dp1681
g73
g74
ssg62
g1675
sg55
(lp1682
S'wsgi_multiprocess'
p1683
asbag48
(g69
g50
NtRp1684
(dp1685
g53
(dp1686
g80
g81
ssg62
g1675
sg55
(lp1687
S':'
asbag48
(g69
g50
NtRp1688
(dp1689
g53
(dp1690
sg62
g1675
sg55
(lp1691
g48
(g49
g50
NtRp1692
(dp1693
g53
(dp1694
g61
I4
ssg62
g1688
sg55
(lp1695
g911
asbasbasbag48
(g64
g50
NtRp1696
(dp1697
g53
(dp1698
sg62
g752
sg55
(lp1699
g48
(g69
g50
NtRp1700
(dp1701
g53
(dp1702
g73
g74
ssg62
g1696
sg55
(lp1703
S'wsgi_multithread'
p1704
asbag48
(g69
g50
NtRp1705
(dp1706
g53
(dp1707
g80
g81
ssg62
g1696
sg55
(lp1708
S':'
asbag48
(g69
g50
NtRp1709
(dp1710
g53
(dp1711
sg62
g1696
sg55
(lp1712
g48
(g49
g50
NtRp1713
(dp1714
g53
(dp1715
g61
I4
ssg62
g1709
sg55
(lp1716
g91
asbasbasbag48
(g64
g50
NtRp1717
(dp1718
g53
(dp1719
sg62
g752
sg55
(lp1720
g48
(g69
g50
NtRp1721
(dp1722
g53
(dp1723
g73
g74
ssg62
g1717
sg55
(lp1724
S'wsgi_run_once'
p1725
asbag48
(g69
g50
NtRp1726
(dp1727
g53
(dp1728
g80
g81
ssg62
g1717
sg55
(lp1729
S':'
asbag48
(g69
g50
NtRp1730
(dp1731
g53
(dp1732
sg62
g1717
sg55
(lp1733
g48
(g49
g50
NtRp1734
(dp1735
g53
(dp1736
g61
I4
ssg62
g1730
sg55
(lp1737
g911
asbasbasbag48
(g64
g50
NtRp1738
(dp1739
g53
(dp1740
sg62
g752
sg55
(lp1741
g48
(g69
g50
NtRp1742
(dp1743
g53
(dp1744
g73
g74
ssg62
g1738
sg55
(lp1745
S'wsgi_url_scheme'
p1746
asbag48
(g69
g50
NtRp1747
(dp1748
g53
(dp1749
g80
g81
ssg62
g1738
sg55
(lp1750
S':'
asbag48
(g69
g50
NtRp1751
(dp1752
g53
(dp1753
sg62
g1738
sg55
(lp1754
g48
(g49
g50
NtRp1755
(dp1756
g53
(dp1757
g61
I4
ssg62
g1751
sg55
(lp1758
S'http'
p1759
asbasbasbag48
(g64
g50
NtRp1760
(dp1761
g53
(dp1762
sg62
g752
sg55
(lp1763
g48
(g69
g50
NtRp1764
(dp1765
g53
(dp1766
g73
g74
ssg62
g1760
sg55
(lp1767
S'wsgi_version'
p1768
asbag48
(g69
g50
NtRp1769
(dp1770
g53
(dp1771
g80
g81
ssg62
g1760
sg55
(lp1772
S':'
asbag48
(g69
g50
NtRp1773
(dp1774
g53
(dp1775
sg62
g1760
sg55
(lp1776
g48
(g49
g50
NtRp1777
(dp1778
g53
(dp1779
g61
I4
ssg62
g1773
sg55
(lp1780
g48
(g57
g50
NtRp1781
(dp1782
g53
(dp1783
g61
I3
ssg62
Nsg55
(lp1784
g48
(g64
g50
NtRp1785
(dp1786
g53
(dp1787
sg62
g1781
sg55
(lp1788
g48
(g69
g50
NtRp1789
(dp1790
g53
(dp1791
sg62
g1785
sg55
(lp1792
g48
(g49
g50
NtRp1793
(dp1794
g53
(dp1795
g61
I3
ssg62
g1789
sg55
(lp1796
S'1'
asbasbasbag48
(g64
g50
NtRp1797
(dp1798
g53
(dp1799
sg62
g1781
sg55
(lp1800
g48
(g69
g50
NtRp1801
(dp1802
g53
(dp1803
sg62
g1797
sg55
(lp1804
g48
(g49
g50
NtRp1805
(dp1806
g53
(dp1807
g61
I3
ssg62
g1801
sg55
(lp1808
S'0'
asbasbasbasbasbasbasbasbasbasbasbag48
(g64
g50
NtRp1809
(dp1810
g53
(dp1811
sg62
g58
sg55
(lp1812
g48
(g69
g50
NtRp1813
(dp1814
g53
(dp1815
g73
g74
ssg62
g1809
sg55
(lp1816
S'extension'
p1817
asbag48
(g69
g50
NtRp1818
(dp1819
g53
(dp1820
g80
g81
ssg62
g1809
sg55
(lp1821
S':'
asbag48
(g69
g50
NtRp1822
(dp1823
g53
(dp1824
sg62
g1809
sg55
(lp1825
g48
(g49
g50
NtRp1826
(dp1827
g53
(dp1828
g61
I5
ssg62
g1822
sg55
(lp1829
S'html'
p1830
asbasbasbag48
(g64
g50
NtRp1831
(dp1832
g53
(dp1833
sg62
g58
sg55
(lp1834
g48
(g69
g50
NtRp1835
(dp1836
g53
(dp1837
g73
g74
ssg62
g1831
sg55
(lp1838
S'folder'
p1839
asbag48
(g69
g50
NtRp1840
(dp1841
g53
(dp1842
g80
g81
ssg62
g1831
sg55
(lp1843
S':'
asbag48
(g69
g50
NtRp1844
(dp1845
g53
(dp1846
sg62
g1831
sg55
(lp1847
g48
(g49
g50
NtRp1848
(dp1849
g53
(dp1850
g61
I5
ssg62
g1844
sg55
(lp1851
S'D:\\Dropbox\\Eclipse\\OJDevSourceProject\\project\\web2py\\applications\\admin\\'
p1852
asbasbasbag48
(g64
g50
NtRp1853
(dp1854
g53
(dp1855
sg62
g58
sg55
(lp1856
g48
(g69
g50
NtRp1857
(dp1858
g53
(dp1859
g73
g74
ssg62
g1853
sg55
(lp1860
S'function'
p1861
asbag48
(g69
g50
NtRp1862
(dp1863
g53
(dp1864
g80
g81
ssg62
g1853
sg55
(lp1865
S':'
asbag48
(g69
g50
NtRp1866
(dp1867
g53
(dp1868
sg62
g1853
sg55
(lp1869
g48
(g49
g50
NtRp1870
(dp1871
g53
(dp1872
g61
I5
ssg62
g1866
sg55
(lp1873
S'check_version'
p1874
asbasbasbag48
(g64
g50
NtRp1875
(dp1876
g53
(dp1877
sg62
g58
sg55
(lp1878
g48
(g69
g50
NtRp1879
(dp1880
g53
(dp1881
g73
g74
ssg62
g1875
sg55
(lp1882
S'get_vars'
p1883
asbag48
(g69
g50
NtRp1884
(dp1885
g53
(dp1886
g80
g81
ssg62
g1875
sg55
(lp1887
S':'
asbag48
(g69
g50
NtRp1888
(dp1889
g53
(dp1890
sg62
g1875
sg55
(lp1891
g48
(g49
g50
NtRp1892
(dp1893
g53
(dp1894
g61
I5
ssg62
g1888
sg55
(lp1895
g48
(g57
g50
NtRp1896
(dp1897
g53
(dp1898
g61
I4
ssg62
Nsg55
(lp1899
sbasbasbasbag48
(g64
g50
NtRp1900
(dp1901
g53
(dp1902
sg62
g58
sg55
(lp1903
g48
(g69
g50
NtRp1904
(dp1905
g53
(dp1906
g73
g74
ssg62
g1900
sg55
(lp1907
S'global_settings'
p1908
asbag48
(g69
g50
NtRp1909
(dp1910
g53
(dp1911
g80
g81
ssg62
g1900
sg55
(lp1912
S':'
asbag48
(g69
g50
NtRp1913
(dp1914
g53
(dp1915
sg62
g1900
sg55
(lp1916
g48
(g49
g50
NtRp1917
(dp1918
g53
(dp1919
g61
I5
ssg62
g1913
sg55
(lp1920
g48
(g57
g50
NtRp1921
(dp1922
g53
(dp1923
g61
I4
ssg62
Nsg55
(lp1924
g48
(g64
g50
NtRp1925
(dp1926
g53
(dp1927
sg62
g1921
sg55
(lp1928
g48
(g69
g50
NtRp1929
(dp1930
g53
(dp1931
g73
g74
ssg62
g1925
sg55
(lp1932
g764
asbag48
(g69
g50
NtRp1933
(dp1934
g53
(dp1935
g80
g81
ssg62
g1925
sg55
(lp1936
S':'
asbag48
(g69
g50
NtRp1937
(dp1938
g53
(dp1939
sg62
g1925
sg55
(lp1940
g48
(g49
g50
NtRp1941
(dp1942
g53
(dp1943
g61
I4
ssg62
g1937
sg55
(lp1944
S"set(['D:\\\\Dropbox\\\\Eclipse\\\\OJDevSourceProject\\\\project\\\\web2py\\\\applications\\\\admin\\\\', 'D:\\\\Dropbox\\\\Eclipse\\\\OJDevSourceProject\\\\project\\\\web2py\\\\applications\\\\OJTest\\\\', 'D:\\\\Dropbox\\\\Eclipse\\\\OJDevSourceProject\\\\project\\\\web2py\\\\applications\\\\OJTest_old\\\\', 'D:\\\\Dropbox\\\\Eclipse\\\\OJDevSourceProject\\\\project\\\\web2py\\\\applications\\\\ojtest\\\\'])"
p1945
asbasbasbag48
(g64
g50
NtRp1946
(dp1947
g53
(dp1948
sg62
g1921
sg55
(lp1949
g48
(g69
g50
NtRp1950
(dp1951
g53
(dp1952
g73
g74
ssg62
g1946
sg55
(lp1953
g786
asbag48
(g69
g50
NtRp1954
(dp1955
g53
(dp1956
g80
g81
ssg62
g1946
sg55
(lp1957
S':'
asbag48
(g69
g50
NtRp1958
(dp1959
g53
(dp1960
sg62
g1946
sg55
(lp1961
g48
(g49
g50
NtRp1962
(dp1963
g53
(dp1964
g61
I4
ssg62
g1958
sg55
(lp1965
g799
asbasbasbag48
(g64
g50
NtRp1966
(dp1967
g53
(dp1968
sg62
g1921
sg55
(lp1969
g48
(g69
g50
NtRp1970
(dp1971
g53
(dp1972
g73
g74
ssg62
g1966
sg55
(lp1973
g808
asbag48
(g69
g50
NtRp1974
(dp1975
g53
(dp1976
g80
g81
ssg62
g1966
sg55
(lp1977
S':'
asbag48
(g69
g50
NtRp1978
(dp1979
g53
(dp1980
sg62
g1966
sg55
(lp1981
g48
(g49
g50
NtRp1982
(dp1983
g53
(dp1984
g61
I4
ssg62
g1978
sg55
(lp1985
g48
(g57
g50
NtRp1986
(dp1987
g53
(dp1988
g61
I3
ssg62
Nsg55
(lp1989
sbasbasbasbag48
(g64
g50
NtRp1990
(dp1991
g53
(dp1992
sg62
g1921
sg55
(lp1993
g48
(g69
g50
NtRp1994
(dp1995
g53
(dp1996
g73
g74
ssg62
g1990
sg55
(lp1997
g833
asbag48
(g69
g50
NtRp1998
(dp1999
g53
(dp2000
g80
g81
ssg62
g1990
sg55
(lp2001
S':'
asbag48
(g69
g50
NtRp2002
(dp2003
g53
(dp2004
sg62
g1990
sg55
(lp2005
g48
(g49
g50
NtRp2006
(dp2007
g53
(dp2008
g61
I4
ssg62
g2002
sg55
(lp2009
S"<Values at 0x3693788: {'verbose': False, 'ip': '127.0.0.1', 'shutdown_timeout': 5, 'taskbar': False, 'nocron': False, 'pid_filename': 'httpserver.pid', 'maxthreads': None, 'softcron': False, 'server_name': 'John-PC', 'bpython': False, 'nogui': False, 'port': 8000, 'extcron': False, 'debuglevel': 30, 'test': None, 'folder': 'D:\\\\Dropbox\\\\Eclipse\\\\OJDevSourceProject\\\\project\\\\web2py', 'config': '', 'import_models': False, 'winservice': '', 'shell': None, 'run': '', 'log_filename': 'httpserver.log', 'args': [''], 'ssl_ca_certificate': None, 'scheduler': None, 'profiler_filename': None, 'ssl_private_key': '', 'password': '<ask>', 'request_queue_size': 5, 'ssl_certificate': '', 'cronjob': False, 'plain': False, 'quiet': False, 'interfaces': None, 'minthreads': None, 'timeout': 10, 'numthreads': None, 'nobanner': False}>"
p2010
asbasbasbag48
(g64
g50
NtRp2011
(dp2012
g53
(dp2013
sg62
g1921
sg55
(lp2014
g48
(g69
g50
NtRp2015
(dp2016
g53
(dp2017
g73
g74
ssg62
g2011
sg55
(lp2018
g876
asbag48
(g69
g50
NtRp2019
(dp2020
g53
(dp2021
g80
g81
ssg62
g2011
sg55
(lp2022
S':'
asbag48
(g69
g50
NtRp2023
(dp2024
g53
(dp2025
sg62
g2011
sg55
(lp2026
g48
(g49
g50
NtRp2027
(dp2028
g53
(dp2029
g61
I4
ssg62
g2023
sg55
(lp2030
S'set([])'
p2031
asbasbasbag48
(g64
g50
NtRp2032
(dp2033
g53
(dp2034
sg62
g1921
sg55
(lp2035
g48
(g69
g50
NtRp2036
(dp2037
g53
(dp2038
g73
g74
ssg62
g2032
sg55
(lp2039
g898
asbag48
(g69
g50
NtRp2040
(dp2041
g53
(dp2042
g80
g81
ssg62
g2032
sg55
(lp2043
S':'
asbag48
(g69
g50
NtRp2044
(dp2045
g53
(dp2046
sg62
g2032
sg55
(lp2047
g48
(g49
g50
NtRp2048
(dp2049
g53
(dp2050
g61
I4
ssg62
g2044
sg55
(lp2051
g911
asbasbasbag48
(g64
g50
NtRp2052
(dp2053
g53
(dp2054
sg62
g1921
sg55
(lp2055
g48
(g69
g50
NtRp2056
(dp2057
g53
(dp2058
g73
g74
ssg62
g2052
sg55
(lp2059
g920
asbag48
(g69
g50
NtRp2060
(dp2061
g53
(dp2062
g80
g81
ssg62
g2052
sg55
(lp2063
S':'
asbag48
(g69
g50
NtRp2064
(dp2065
g53
(dp2066
sg62
g2052
sg55
(lp2067
g48
(g49
g50
NtRp2068
(dp2069
g53
(dp2070
g61
I4
ssg62
g2064
sg55
(lp2071
g933
asbasbasbag48
(g64
g50
NtRp2072
(dp2073
g53
(dp2074
sg62
g1921
sg55
(lp2075
g48
(g69
g50
NtRp2076
(dp2077
g53
(dp2078
g73
g74
ssg62
g2072
sg55
(lp2079
g1205
asbag48
(g69
g50
NtRp2080
(dp2081
g53
(dp2082
g80
g81
ssg62
g2072
sg55
(lp2083
S':'
asbag48
(g69
g50
NtRp2084
(dp2085
g53
(dp2086
sg62
g2072
sg55
(lp2087
g48
(g49
g50
NtRp2088
(dp2089
g53
(dp2090
g61
I4
ssg62
g2084
sg55
(lp2091
g911
asbasbasbag48
(g64
g50
NtRp2092
(dp2093
g53
(dp2094
sg62
g1921
sg55
(lp2095
g48
(g69
g50
NtRp2096
(dp2097
g53
(dp2098
g73
g74
ssg62
g2092
sg55
(lp2099
g1464
asbag48
(g69
g50
NtRp2100
(dp2101
g53
(dp2102
g80
g81
ssg62
g2092
sg55
(lp2103
S':'
asbag48
(g69
g50
NtRp2104
(dp2105
g53
(dp2106
sg62
g2092
sg55
(lp2107
g48
(g49
g50
NtRp2108
(dp2109
g53
(dp2110
g61
I4
ssg62
g2104
sg55
(lp2111
g1477
asbasbasbag48
(g64
g50
NtRp2112
(dp2113
g53
(dp2114
sg62
g1921
sg55
(lp2115
g48
(g69
g50
NtRp2116
(dp2117
g53
(dp2118
g73
g74
ssg62
g2112
sg55
(lp2119
g1529
asbag48
(g69
g50
NtRp2120
(dp2121
g53
(dp2122
g80
g81
ssg62
g2112
sg55
(lp2123
S':'
asbag48
(g69
g50
NtRp2124
(dp2125
g53
(dp2126
sg62
g2112
sg55
(lp2127
g48
(g49
g50
NtRp2128
(dp2129
g53
(dp2130
g61
I4
ssg62
g2124
sg55
(lp2131
g48
(g57
g50
NtRp2132
(dp2133
g53
(dp2134
g61
I3
ssg62
Nsg55
(lp2135
g48
(g64
g50
NtRp2136
(dp2137
g53
(dp2138
sg62
g2132
sg55
(lp2139
g48
(g69
g50
NtRp2140
(dp2141
g53
(dp2142
sg62
g2136
sg55
(lp2143
g48
(g49
g50
NtRp2144
(dp2145
g53
(dp2146
g61
I3
ssg62
g2140
sg55
(lp2147
S'1'
asbasbasbag48
(g64
g50
NtRp2148
(dp2149
g53
(dp2150
sg62
g2132
sg55
(lp2151
g48
(g69
g50
NtRp2152
(dp2153
g53
(dp2154
sg62
g2148
sg55
(lp2155
g48
(g49
g50
NtRp2156
(dp2157
g53
(dp2158
g61
I3
ssg62
g2152
sg55
(lp2159
S'99'
p2160
asbasbasbag48
(g64
g50
NtRp2161
(dp2162
g53
(dp2163
sg62
g2132
sg55
(lp2164
g48
(g69
g50
NtRp2165
(dp2166
g53
(dp2167
sg62
g2161
sg55
(lp2168
g48
(g49
g50
NtRp2169
(dp2170
g53
(dp2171
g61
I3
ssg62
g2165
sg55
(lp2172
S'2'
asbasbasbag48
(g64
g50
NtRp2173
(dp2174
g53
(dp2175
sg62
g2132
sg55
(lp2176
g48
(g69
g50
NtRp2177
(dp2178
g53
(dp2179
sg62
g2173
sg55
(lp2180
g48
(g49
g50
NtRp2181
(dp2182
g53
(dp2183
g61
I3
ssg62
g2177
sg55
(lp2184
S'datetime.datetime(2011, 9, 26, 6, 55, 33)'
p2185
asbasbasbag48
(g64
g50
NtRp2186
(dp2187
g53
(dp2188
sg62
g2132
sg55
(lp2189
g48
(g69
g50
NtRp2190
(dp2191
g53
(dp2192
sg62
g2186
sg55
(lp2193
g48
(g49
g50
NtRp2194
(dp2195
g53
(dp2196
g61
I3
ssg62
g2190
sg55
(lp2197
g1608
asbasbasbasbasbasbasbasbasbasbasbag48
(g64
g50
NtRp2198
(dp2199
g53
(dp2200
sg62
g58
sg55
(lp2201
g48
(g69
g50
NtRp2202
(dp2203
g53
(dp2204
g73
g74
ssg62
g2198
sg55
(lp2205
S'is_https'
p2206
asbag48
(g69
g50
NtRp2207
(dp2208
g53
(dp2209
g80
g81
ssg62
g2198
sg55
(lp2210
S':'
asbag48
(g69
g50
NtRp2211
(dp2212
g53
(dp2213
sg62
g2198
sg55
(lp2214
g48
(g49
g50
NtRp2215
(dp2216
g53
(dp2217
g61
I5
ssg62
g2211
sg55
(lp2218
g911
asbasbasbag48
(g64
g50
NtRp2219
(dp2220
g53
(dp2221
sg62
g58
sg55
(lp2222
g48
(g69
g50
NtRp2223
(dp2224
g53
(dp2225
g73
g74
ssg62
g2219
sg55
(lp2226
S'is_local'
p2227
asbag48
(g69
g50
NtRp2228
(dp2229
g53
(dp2230
g80
g81
ssg62
g2219
sg55
(lp2231
S':'
asbag48
(g69
g50
NtRp2232
(dp2233
g53
(dp2234
sg62
g2219
sg55
(lp2235
g48
(g49
g50
NtRp2236
(dp2237
g53
(dp2238
g61
I5
ssg62
g2232
sg55
(lp2239
g91
asbasbasbag48
(g64
g50
NtRp2240
(dp2241
g53
(dp2242
sg62
g58
sg55
(lp2243
g48
(g69
g50
NtRp2244
(dp2245
g53
(dp2246
g73
g74
ssg62
g2240
sg55
(lp2247
S'is_restful'
p2248
asbag48
(g69
g50
NtRp2249
(dp2250
g53
(dp2251
g80
g81
ssg62
g2240
sg55
(lp2252
S':'
asbag48
(g69
g50
NtRp2253
(dp2254
g53
(dp2255
sg62
g2240
sg55
(lp2256
g48
(g49
g50
NtRp2257
(dp2258
g53
(dp2259
g61
I5
ssg62
g2253
sg55
(lp2260
g911
asbasbasbag48
(g64
g50
NtRp2261
(dp2262
g53
(dp2263
sg62
g58
sg55
(lp2264
g48
(g69
g50
NtRp2265
(dp2266
g53
(dp2267
g73
g74
ssg62
g2261
sg55
(lp2268
S'now'
p2269
asbag48
(g69
g50
NtRp2270
(dp2271
g53
(dp2272
g80
g81
ssg62
g2261
sg55
(lp2273
S':'
asbag48
(g69
g50
NtRp2274
(dp2275
g53
(dp2276
sg62
g2261
sg55
(lp2277
g48
(g49
g50
NtRp2278
(dp2279
g53
(dp2280
g61
I5
ssg62
g2274
sg55
(lp2281
S'datetime.datetime(2012, 1, 12, 20, 51, 16, 564000)'
p2282
asbasbasbag48
(g64
g50
NtRp2283
(dp2284
g53
(dp2285
sg62
g58
sg55
(lp2286
g48
(g69
g50
NtRp2287
(dp2288
g53
(dp2289
g73
g74
ssg62
g2283
sg55
(lp2290
S'post_vars'
p2291
asbag48
(g69
g50
NtRp2292
(dp2293
g53
(dp2294
g80
g81
ssg62
g2283
sg55
(lp2295
S':'
asbag48
(g69
g50
NtRp2296
(dp2297
g53
(dp2298
sg62
g2283
sg55
(lp2299
g48
(g49
g50
NtRp2300
(dp2301
g53
(dp2302
g61
I5
ssg62
g2296
sg55
(lp2303
g48
(g57
g50
NtRp2304
(dp2305
g53
(dp2306
g61
I4
ssg62
Nsg55
(lp2307
sbasbasbasbag48
(g64
g50
NtRp2308
(dp2309
g53
(dp2310
sg62
g58
sg55
(lp2311
g48
(g69
g50
NtRp2312
(dp2313
g53
(dp2314
g73
g74
ssg62
g2308
sg55
(lp2315
S'url'
p2316
asbag48
(g69
g50
NtRp2317
(dp2318
g53
(dp2319
g80
g81
ssg62
g2308
sg55
(lp2320
S':'
asbag48
(g69
g50
NtRp2321
(dp2322
g53
(dp2323
sg62
g2308
sg55
(lp2324
g48
(g49
g50
NtRp2325
(dp2326
g53
(dp2327
g61
I5
ssg62
g2321
sg55
(lp2328
S'/admin/default/check_version'
p2329
asbasbasbag48
(g64
g50
NtRp2330
(dp2331
g53
(dp2332
sg62
g58
sg55
(lp2333
g48
(g69
g50
NtRp2334
(dp2335
g53
(dp2336
g73
g74
ssg62
g2330
sg55
(lp2337
S'utcnow'
p2338
asbag48
(g69
g50
NtRp2339
(dp2340
g53
(dp2341
g80
g81
ssg62
g2330
sg55
(lp2342
S':'
asbag48
(g69
g50
NtRp2343
(dp2344
g53
(dp2345
sg62
g2330
sg55
(lp2346
g48
(g49
g50
NtRp2347
(dp2348
g53
(dp2349
g61
I5
ssg62
g2343
sg55
(lp2350
S'datetime.datetime(2012, 1, 12, 9, 51, 16, 564000)'
p2351
asbasbasbag48
(g64
g50
NtRp2352
(dp2353
g53
(dp2354
sg62
g58
sg55
(lp2355
g48
(g69
g50
NtRp2356
(dp2357
g53
(dp2358
g73
g74
ssg62
g2352
sg55
(lp2359
S'uuid'
p2360
asbag48
(g69
g50
NtRp2361
(dp2362
g53
(dp2363
g80
g81
ssg62
g2352
sg55
(lp2364
S':'
asbag48
(g69
g50
NtRp2365
(dp2366
g53
(dp2367
sg62
g2352
sg55
(lp2368
g48
(g49
g50
NtRp2369
(dp2370
g53
(dp2371
g61
I5
ssg62
g2365
sg55
(lp2372
S'admin/127.0.0.1.2012-01-12.20-51-16.5ee4989c-9e05-4ae7-84e6-3c7c83e4cc00'
p2373
asbasbasbag48
(g64
g50
NtRp2374
(dp2375
g53
(dp2376
sg62
g58
sg55
(lp2377
g48
(g69
g50
NtRp2378
(dp2379
g53
(dp2380
g73
g74
ssg62
g2374
sg55
(lp2381
S'vars'
p2382
asbag48
(g69
g50
NtRp2383
(dp2384
g53
(dp2385
g80
g81
ssg62
g2374
sg55
(lp2386
S':'
asbag48
(g69
g50
NtRp2387
(dp2388
g53
(dp2389
sg62
g2374
sg55
(lp2390
g48
(g49
g50
NtRp2391
(dp2392
g53
(dp2393
g61
I5
ssg62
g2387
sg55
(lp2394
g48
(g57
g50
NtRp2395
(dp2396
g53
(dp2397
g61
I4
ssg62
Nsg55
(lp2398
sbasbasbasbag48
(g64
g50
NtRp2399
(dp2400
g53
(dp2401
sg62
g58
sg55
(lp2402
g48
(g69
g50
NtRp2403
(dp2404
g53
(dp2405
g73
g74
ssg62
g2399
sg55
(lp2406
S'wsgi'
p2407
asbag48
(g69
g50
NtRp2408
(dp2409
g53
(dp2410
g80
g81
ssg62
g2399
sg55
(lp2411
S':'
asbag48
(g69
g50
NtRp2412
(dp2413
g53
(dp2414
sg62
g2399
sg55
(lp2415
g48
(g49
g50
NtRp2416
(dp2417
g53
(dp2418
g61
I5
ssg62
g2412
sg55
(lp2419
g48
(g57
g50
NtRp2420
(dp2421
g53
(dp2422
g61
I4
ssg62
Nsg55
(lp2423
g48
(g64
g50
NtRp2424
(dp2425
g53
(dp2426
sg62
g2420
sg55
(lp2427
g48
(g69
g50
NtRp2428
(dp2429
g53
(dp2430
g73
g74
ssg62
g2424
sg55
(lp2431
S'environ'
p2432
asbag48
(g69
g50
NtRp2433
(dp2434
g53
(dp2435
g80
g81
ssg62
g2424
sg55
(lp2436
S':'
asbag48
(g69
g50
NtRp2437
(dp2438
g53
(dp2439
sg62
g2424
sg55
(lp2440
g48
(g49
g50
NtRp2441
(dp2442
g53
(dp2443
g61
I4
ssg62
g2437
sg55
(lp2444
g48
(g57
g50
NtRp2445
(dp2446
g53
(dp2447
g61
I3
ssg62
Nsg55
(lp2448
g48
(g64
g50
NtRp2449
(dp2450
g53
(dp2451
sg62
g2445
sg55
(lp2452
g48
(g69
g50
NtRp2453
(dp2454
g53
(dp2455
g73
g74
ssg62
g2449
sg55
(lp2456
S'CONTENT_LENGTH'
p2457
asbag48
(g69
g50
NtRp2458
(dp2459
g53
(dp2460
g80
g81
ssg62
g2449
sg55
(lp2461
S':'
asbag48
(g69
g50
NtRp2462
(dp2463
g53
(dp2464
sg62
g2449
sg55
(lp2465
g48
(g49
g50
NtRp2466
(dp2467
g53
(dp2468
g61
I3
ssg62
g2462
sg55
(lp2469
S'0'
asbasbasbag48
(g64
g50
NtRp2470
(dp2471
g53
(dp2472
sg62
g2445
sg55
(lp2473
g48
(g69
g50
NtRp2474
(dp2475
g53
(dp2476
g73
g74
ssg62
g2470
sg55
(lp2477
S'HTTP_ACCEPT'
p2478
asbag48
(g69
g50
NtRp2479
(dp2480
g53
(dp2481
g80
g81
ssg62
g2470
sg55
(lp2482
S':'
asbag48
(g69
g50
NtRp2483
(dp2484
g53
(dp2485
sg62
g2470
sg55
(lp2486
g48
(g49
g50
NtRp2487
(dp2488
g53
(dp2489
g61
I3
ssg62
g2483
sg55
(lp2490
g955
asbasbasbag48
(g64
g50
NtRp2491
(dp2492
g53
(dp2493
sg62
g2445
sg55
(lp2494
g48
(g69
g50
NtRp2495
(dp2496
g53
(dp2497
g73
g74
ssg62
g2491
sg55
(lp2498
S'HTTP_ACCEPT_CHARSET'
p2499
asbag48
(g69
g50
NtRp2500
(dp2501
g53
(dp2502
g80
g81
ssg62
g2491
sg55
(lp2503
S':'
asbag48
(g69
g50
NtRp2504
(dp2505
g53
(dp2506
sg62
g2491
sg55
(lp2507
g48
(g49
g50
NtRp2508
(dp2509
g53
(dp2510
g61
I3
ssg62
g2504
sg55
(lp2511
g977
asbasbasbag48
(g64
g50
NtRp2512
(dp2513
g53
(dp2514
sg62
g2445
sg55
(lp2515
g48
(g69
g50
NtRp2516
(dp2517
g53
(dp2518
g73
g74
ssg62
g2512
sg55
(lp2519
S'HTTP_ACCEPT_ENCODING'
p2520
asbag48
(g69
g50
NtRp2521
(dp2522
g53
(dp2523
g80
g81
ssg62
g2512
sg55
(lp2524
S':'
asbag48
(g69
g50
NtRp2525
(dp2526
g53
(dp2527
sg62
g2512
sg55
(lp2528
g48
(g49
g50
NtRp2529
(dp2530
g53
(dp2531
g61
I3
ssg62
g2525
sg55
(lp2532
g999
asbasbasbag48
(g64
g50
NtRp2533
(dp2534
g53
(dp2535
sg62
g2445
sg55
(lp2536
g48
(g69
g50
NtRp2537
(dp2538
g53
(dp2539
g73
g74
ssg62
g2533
sg55
(lp2540
S'HTTP_ACCEPT_LANGUAGE'
p2541
asbag48
(g69
g50
NtRp2542
(dp2543
g53
(dp2544
g80
g81
ssg62
g2533
sg55
(lp2545
S':'
asbag48
(g69
g50
NtRp2546
(dp2547
g53
(dp2548
sg62
g2533
sg55
(lp2549
g48
(g49
g50
NtRp2550
(dp2551
g53
(dp2552
g61
I3
ssg62
g2546
sg55
(lp2553
g1021
asbasbasbag48
(g64
g50
NtRp2554
(dp2555
g53
(dp2556
sg62
g2445
sg55
(lp2557
g48
(g69
g50
NtRp2558
(dp2559
g53
(dp2560
g73
g74
ssg62
g2554
sg55
(lp2561
S'HTTP_CONNECTION'
p2562
asbag48
(g69
g50
NtRp2563
(dp2564
g53
(dp2565
g80
g81
ssg62
g2554
sg55
(lp2566
S':'
asbag48
(g69
g50
NtRp2567
(dp2568
g53
(dp2569
sg62
g2554
sg55
(lp2570
g48
(g49
g50
NtRp2571
(dp2572
g53
(dp2573
g61
I3
ssg62
g2567
sg55
(lp2574
g1043
asbasbasbag48
(g64
g50
NtRp2575
(dp2576
g53
(dp2577
sg62
g2445
sg55
(lp2578
g48
(g69
g50
NtRp2579
(dp2580
g53
(dp2581
g73
g74
ssg62
g2575
sg55
(lp2582
S'HTTP_CONTENT_LENGTH'
p2583
asbag48
(g69
g50
NtRp2584
(dp2585
g53
(dp2586
g80
g81
ssg62
g2575
sg55
(lp2587
S':'
asbag48
(g69
g50
NtRp2588
(dp2589
g53
(dp2590
sg62
g2575
sg55
(lp2591
g48
(g49
g50
NtRp2592
(dp2593
g53
(dp2594
g61
I3
ssg62
g2588
sg55
(lp2595
S'0'
asbasbasbag48
(g64
g50
NtRp2596
(dp2597
g53
(dp2598
sg62
g2445
sg55
(lp2599
g48
(g69
g50
NtRp2600
(dp2601
g53
(dp2602
g73
g74
ssg62
g2596
sg55
(lp2603
S'HTTP_COOKIE'
p2604
asbag48
(g69
g50
NtRp2605
(dp2606
g53
(dp2607
g80
g81
ssg62
g2596
sg55
(lp2608
S':'
asbag48
(g69
g50
NtRp2609
(dp2610
g53
(dp2611
sg62
g2596
sg55
(lp2612
g48
(g49
g50
NtRp2613
(dp2614
g53
(dp2615
g61
I3
ssg62
g2609
sg55
(lp2616
g1086
asbasbasbag48
(g64
g50
NtRp2617
(dp2618
g53
(dp2619
sg62
g2445
sg55
(lp2620
g48
(g69
g50
NtRp2621
(dp2622
g53
(dp2623
g73
g74
ssg62
g2617
sg55
(lp2624
S'HTTP_HOST'
p2625
asbag48
(g69
g50
NtRp2626
(dp2627
g53
(dp2628
g80
g81
ssg62
g2617
sg55
(lp2629
S':'
asbag48
(g69
g50
NtRp2630
(dp2631
g53
(dp2632
sg62
g2617
sg55
(lp2633
g48
(g49
g50
NtRp2634
(dp2635
g53
(dp2636
g61
I3
ssg62
g2630
sg55
(lp2637
g1108
asbasbasbag48
(g64
g50
NtRp2638
(dp2639
g53
(dp2640
sg62
g2445
sg55
(lp2641
g48
(g69
g50
NtRp2642
(dp2643
g53
(dp2644
g73
g74
ssg62
g2638
sg55
(lp2645
S'HTTP_ORIGIN'
p2646
asbag48
(g69
g50
NtRp2647
(dp2648
g53
(dp2649
g80
g81
ssg62
g2638
sg55
(lp2650
S':'
asbag48
(g69
g50
NtRp2651
(dp2652
g53
(dp2653
sg62
g2638
sg55
(lp2654
g48
(g49
g50
NtRp2655
(dp2656
g53
(dp2657
g61
I3
ssg62
g2651
sg55
(lp2658
g1130
asbasbasbag48
(g64
g50
NtRp2659
(dp2660
g53
(dp2661
sg62
g2445
sg55
(lp2662
g48
(g69
g50
NtRp2663
(dp2664
g53
(dp2665
g73
g74
ssg62
g2659
sg55
(lp2666
S'HTTP_REFERER'
p2667
asbag48
(g69
g50
NtRp2668
(dp2669
g53
(dp2670
g80
g81
ssg62
g2659
sg55
(lp2671
S':'
asbag48
(g69
g50
NtRp2672
(dp2673
g53
(dp2674
sg62
g2659
sg55
(lp2675
g48
(g49
g50
NtRp2676
(dp2677
g53
(dp2678
g61
I3
ssg62
g2672
sg55
(lp2679
g1152
asbasbasbag48
(g64
g50
NtRp2680
(dp2681
g53
(dp2682
sg62
g2445
sg55
(lp2683
g48
(g69
g50
NtRp2684
(dp2685
g53
(dp2686
g73
g74
ssg62
g2680
sg55
(lp2687
S'HTTP_USER_AGENT'
p2688
asbag48
(g69
g50
NtRp2689
(dp2690
g53
(dp2691
g80
g81
ssg62
g2680
sg55
(lp2692
S':'
asbag48
(g69
g50
NtRp2693
(dp2694
g53
(dp2695
sg62
g2680
sg55
(lp2696
g48
(g49
g50
NtRp2697
(dp2698
g53
(dp2699
g61
I3
ssg62
g2693
sg55
(lp2700
g1174
asbasbasbag48
(g64
g50
NtRp2701
(dp2702
g53
(dp2703
sg62
g2445
sg55
(lp2704
g48
(g69
g50
NtRp2705
(dp2706
g53
(dp2707
g73
g74
ssg62
g2701
sg55
(lp2708
S'HTTP_X_REQUESTED_WITH'
p2709
asbag48
(g69
g50
NtRp2710
(dp2711
g53
(dp2712
g80
g81
ssg62
g2701
sg55
(lp2713
S':'
asbag48
(g69
g50
NtRp2714
(dp2715
g53
(dp2716
sg62
g2701
sg55
(lp2717
g48
(g49
g50
NtRp2718
(dp2719
g53
(dp2720
g61
I3
ssg62
g2714
sg55
(lp2721
g1196
asbasbasbag48
(g64
g50
NtRp2722
(dp2723
g53
(dp2724
sg62
g2445
sg55
(lp2725
g48
(g69
g50
NtRp2726
(dp2727
g53
(dp2728
g73
g74
ssg62
g2722
sg55
(lp2729
S'PATH_INFO'
p2730
asbag48
(g69
g50
NtRp2731
(dp2732
g53
(dp2733
g80
g81
ssg62
g2722
sg55
(lp2734
S':'
asbag48
(g69
g50
NtRp2735
(dp2736
g53
(dp2737
sg62
g2722
sg55
(lp2738
g48
(g49
g50
NtRp2739
(dp2740
g53
(dp2741
g61
I3
ssg62
g2735
sg55
(lp2742
g1239
asbasbasbag48
(g64
g50
NtRp2743
(dp2744
g53
(dp2745
sg62
g2445
sg55
(lp2746
g48
(g69
g50
NtRp2747
(dp2748
g53
(dp2749
g73
g74
ssg62
g2743
sg55
(lp2750
S'QUERY_STRING'
p2751
asbag48
(g69
g50
NtRp2752
(dp2753
g53
(dp2754
g80
g81
ssg62
g2743
sg55
(lp2755
S':'
asbag48
(g69
g50
NtRp2756
(dp2757
g53
(dp2758
sg62
g2743
sg55
(lp2759
g48
(g49
g50
NtRp2760
(dp2761
g53
(dp2762
g61
I3
ssg62
g2756
sg55
(lp2763
S''
asbasbasbag48
(g64
g50
NtRp2764
(dp2765
g53
(dp2766
sg62
g2445
sg55
(lp2767
g48
(g69
g50
NtRp2768
(dp2769
g53
(dp2770
g73
g74
ssg62
g2764
sg55
(lp2771
S'REMOTE_ADDR'
p2772
asbag48
(g69
g50
NtRp2773
(dp2774
g53
(dp2775
g80
g81
ssg62
g2764
sg55
(lp2776
S':'
asbag48
(g69
g50
NtRp2777
(dp2778
g53
(dp2779
sg62
g2764
sg55
(lp2780
g48
(g49
g50
NtRp2781
(dp2782
g53
(dp2783
g61
I3
ssg62
g2777
sg55
(lp2784
g181
asbasbasbag48
(g64
g50
NtRp2785
(dp2786
g53
(dp2787
sg62
g2445
sg55
(lp2788
g48
(g69
g50
NtRp2789
(dp2790
g53
(dp2791
g73
g74
ssg62
g2785
sg55
(lp2792
S'REMOTE_PORT'
p2793
asbag48
(g69
g50
NtRp2794
(dp2795
g53
(dp2796
g80
g81
ssg62
g2785
sg55
(lp2797
S':'
asbag48
(g69
g50
NtRp2798
(dp2799
g53
(dp2800
sg62
g2785
sg55
(lp2801
g48
(g49
g50
NtRp2802
(dp2803
g53
(dp2804
g61
I3
ssg62
g2798
sg55
(lp2805
g1303
asbasbasbag48
(g64
g50
NtRp2806
(dp2807
g53
(dp2808
sg62
g2445
sg55
(lp2809
g48
(g69
g50
NtRp2810
(dp2811
g53
(dp2812
g73
g74
ssg62
g2806
sg55
(lp2813
S'REQUEST_METHOD'
p2814
asbag48
(g69
g50
NtRp2815
(dp2816
g53
(dp2817
g80
g81
ssg62
g2806
sg55
(lp2818
S':'
asbag48
(g69
g50
NtRp2819
(dp2820
g53
(dp2821
sg62
g2806
sg55
(lp2822
g48
(g49
g50
NtRp2823
(dp2824
g53
(dp2825
g61
I3
ssg62
g2819
sg55
(lp2826
g1325
asbasbasbag48
(g64
g50
NtRp2827
(dp2828
g53
(dp2829
sg62
g2445
sg55
(lp2830
g48
(g69
g50
NtRp2831
(dp2832
g53
(dp2833
g73
g74
ssg62
g2827
sg55
(lp2834
S'REQUEST_URI'
p2835
asbag48
(g69
g50
NtRp2836
(dp2837
g53
(dp2838
g80
g81
ssg62
g2827
sg55
(lp2839
S':'
asbag48
(g69
g50
NtRp2840
(dp2841
g53
(dp2842
sg62
g2827
sg55
(lp2843
g48
(g49
g50
NtRp2844
(dp2845
g53
(dp2846
g61
I3
ssg62
g2840
sg55
(lp2847
g1239
asbasbasbag48
(g64
g50
NtRp2848
(dp2849
g53
(dp2850
sg62
g2445
sg55
(lp2851
g48
(g69
g50
NtRp2852
(dp2853
g53
(dp2854
g73
g74
ssg62
g2848
sg55
(lp2855
S'SCRIPT_NAME'
p2856
asbag48
(g69
g50
NtRp2857
(dp2858
g53
(dp2859
g80
g81
ssg62
g2848
sg55
(lp2860
S':'
asbag48
(g69
g50
NtRp2861
(dp2862
g53
(dp2863
sg62
g2848
sg55
(lp2864
g48
(g49
g50
NtRp2865
(dp2866
g53
(dp2867
g61
I3
ssg62
g2861
sg55
(lp2868
S''
asbasbasbag48
(g64
g50
NtRp2869
(dp2870
g53
(dp2871
sg62
g2445
sg55
(lp2872
g48
(g69
g50
NtRp2873
(dp2874
g53
(dp2875
g73
g74
ssg62
g2869
sg55
(lp2876
S'SERVER_NAME'
p2877
asbag48
(g69
g50
NtRp2878
(dp2879
g53
(dp2880
g80
g81
ssg62
g2869
sg55
(lp2881
S':'
asbag48
(g69
g50
NtRp2882
(dp2883
g53
(dp2884
sg62
g2869
sg55
(lp2885
g48
(g49
g50
NtRp2886
(dp2887
g53
(dp2888
g61
I3
ssg62
g2882
sg55
(lp2889
g1389
asbasbasbag48
(g64
g50
NtRp2890
(dp2891
g53
(dp2892
sg62
g2445
sg55
(lp2893
g48
(g69
g50
NtRp2894
(dp2895
g53
(dp2896
g73
g74
ssg62
g2890
sg55
(lp2897
S'SERVER_PORT'
p2898
asbag48
(g69
g50
NtRp2899
(dp2900
g53
(dp2901
g80
g81
ssg62
g2890
sg55
(lp2902
S':'
asbag48
(g69
g50
NtRp2903
(dp2904
g53
(dp2905
sg62
g2890
sg55
(lp2906
g48
(g49
g50
NtRp2907
(dp2908
g53
(dp2909
g61
I3
ssg62
g2903
sg55
(lp2910
g1411
asbasbasbag48
(g64
g50
NtRp2911
(dp2912
g53
(dp2913
sg62
g2445
sg55
(lp2914
g48
(g69
g50
NtRp2915
(dp2916
g53
(dp2917
g73
g74
ssg62
g2911
sg55
(lp2918
S'SERVER_PROTOCOL'
p2919
asbag48
(g69
g50
NtRp2920
(dp2921
g53
(dp2922
g80
g81
ssg62
g2911
sg55
(lp2923
S':'
asbag48
(g69
g50
NtRp2924
(dp2925
g53
(dp2926
sg62
g2911
sg55
(lp2927
g48
(g49
g50
NtRp2928
(dp2929
g53
(dp2930
g61
I3
ssg62
g2924
sg55
(lp2931
g1433
asbasbasbag48
(g64
g50
NtRp2932
(dp2933
g53
(dp2934
sg62
g2445
sg55
(lp2935
g48
(g69
g50
NtRp2936
(dp2937
g53
(dp2938
g73
g74
ssg62
g2932
sg55
(lp2939
S'SERVER_SOFTWARE'
p2940
asbag48
(g69
g50
NtRp2941
(dp2942
g53
(dp2943
g80
g81
ssg62
g2932
sg55
(lp2944
S':'
asbag48
(g69
g50
NtRp2945
(dp2946
g53
(dp2947
sg62
g2932
sg55
(lp2948
g48
(g49
g50
NtRp2949
(dp2950
g53
(dp2951
g61
I3
ssg62
g2945
sg55
(lp2952
g1455
asbasbasbag48
(g64
g50
NtRp2953
(dp2954
g53
(dp2955
sg62
g2445
sg55
(lp2956
g48
(g69
g50
NtRp2957
(dp2958
g53
(dp2959
g73
g74
ssg62
g2953
sg55
(lp2960
S'WEB2PY_ORIGINAL_URI'
p2961
asbag48
(g69
g50
NtRp2962
(dp2963
g53
(dp2964
g80
g81
ssg62
g2953
sg55
(lp2965
S':'
asbag48
(g69
g50
NtRp2966
(dp2967
g53
(dp2968
sg62
g2953
sg55
(lp2969
g48
(g49
g50
NtRp2970
(dp2971
g53
(dp2972
g61
I3
ssg62
g2966
sg55
(lp2973
g1499
asbasbasbag48
(g64
g50
NtRp2974
(dp2975
g53
(dp2976
sg62
g2445
sg55
(lp2977
g48
(g69
g50
NtRp2978
(dp2979
g53
(dp2980
g73
g74
ssg62
g2974
sg55
(lp2981
S'wsgi.errors'
p2982
asbag48
(g69
g50
NtRp2983
(dp2984
g53
(dp2985
g80
g81
ssg62
g2974
sg55
(lp2986
S':'
asbag48
(g69
g50
NtRp2987
(dp2988
g53
(dp2989
sg62
g2974
sg55
(lp2990
g48
(g49
g50
NtRp2991
(dp2992
g53
(dp2993
g61
I3
ssg62
g2987
sg55
(lp2994
S"<open file '<stderr>', mode 'w' at 0x005C00B0>"
p2995
asbasbasbag48
(g64
g50
NtRp2996
(dp2997
g53
(dp2998
sg62
g2445
sg55
(lp2999
g48
(g69
g50
NtRp3000
(dp3001
g53
(dp3002
g73
g74
ssg62
g2996
sg55
(lp3003
S'wsgi.file_wrapper'
p3004
asbag48
(g69
g50
NtRp3005
(dp3006
g53
(dp3007
g80
g81
ssg62
g2996
sg55
(lp3008
S':'
asbag48
(g69
g50
NtRp3009
(dp3010
g53
(dp3011
sg62
g2996
sg55
(lp3012
g48
(g49
g50
NtRp3013
(dp3014
g53
(dp3015
g61
I3
ssg62
g3009
sg55
(lp3016
S'<class wsgiref.util.FileWrapper at 0x035B5570>'
p3017
asbasbasbag48
(g64
g50
NtRp3018
(dp3019
g53
(dp3020
sg62
g2445
sg55
(lp3021
g48
(g69
g50
NtRp3022
(dp3023
g53
(dp3024
g73
g74
ssg62
g3018
sg55
(lp3025
S'wsgi.input'
p3026
asbag48
(g69
g50
NtRp3027
(dp3028
g53
(dp3029
g80
g81
ssg62
g3018
sg55
(lp3030
S':'
asbag48
(g69
g50
NtRp3031
(dp3032
g53
(dp3033
sg62
g3018
sg55
(lp3034
g48
(g49
g50
NtRp3035
(dp3036
g53
(dp3037
g61
I3
ssg62
g3031
sg55
(lp3038
S"<open file '<fdopen>', mode 'w+b' at 0x0858B800>"
p3039
asbasbasbag48
(g64
g50
NtRp3040
(dp3041
g53
(dp3042
sg62
g2445
sg55
(lp3043
g48
(g69
g50
NtRp3044
(dp3045
g53
(dp3046
g73
g74
ssg62
g3040
sg55
(lp3047
S'wsgi.multiprocess'
p3048
asbag48
(g69
g50
NtRp3049
(dp3050
g53
(dp3051
g80
g81
ssg62
g3040
sg55
(lp3052
S':'
asbag48
(g69
g50
NtRp3053
(dp3054
g53
(dp3055
sg62
g3040
sg55
(lp3056
g48
(g49
g50
NtRp3057
(dp3058
g53
(dp3059
g61
I3
ssg62
g3053
sg55
(lp3060
g911
asbasbasbag48
(g64
g50
NtRp3061
(dp3062
g53
(dp3063
sg62
g2445
sg55
(lp3064
g48
(g69
g50
NtRp3065
(dp3066
g53
(dp3067
g73
g74
ssg62
g3061
sg55
(lp3068
S'wsgi.multithread'
p3069
asbag48
(g69
g50
NtRp3070
(dp3071
g53
(dp3072
g80
g81
ssg62
g3061
sg55
(lp3073
S':'
asbag48
(g69
g50
NtRp3074
(dp3075
g53
(dp3076
sg62
g3061
sg55
(lp3077
g48
(g49
g50
NtRp3078
(dp3079
g53
(dp3080
g61
I3
ssg62
g3074
sg55
(lp3081
g91
asbasbasbag48
(g64
g50
NtRp3082
(dp3083
g53
(dp3084
sg62
g2445
sg55
(lp3085
g48
(g69
g50
NtRp3086
(dp3087
g53
(dp3088
g73
g74
ssg62
g3082
sg55
(lp3089
S'wsgi.run_once'
p3090
asbag48
(g69
g50
NtRp3091
(dp3092
g53
(dp3093
g80
g81
ssg62
g3082
sg55
(lp3094
S':'
asbag48
(g69
g50
NtRp3095
(dp3096
g53
(dp3097
sg62
g3082
sg55
(lp3098
g48
(g49
g50
NtRp3099
(dp3100
g53
(dp3101
g61
I3
ssg62
g3095
sg55
(lp3102
g911
asbasbasbag48
(g64
g50
NtRp3103
(dp3104
g53
(dp3105
sg62
g2445
sg55
(lp3106
g48
(g69
g50
NtRp3107
(dp3108
g53
(dp3109
g73
g74
ssg62
g3103
sg55
(lp3110
S'wsgi.url_scheme'
p3111
asbag48
(g69
g50
NtRp3112
(dp3113
g53
(dp3114
g80
g81
ssg62
g3103
sg55
(lp3115
S':'
asbag48
(g69
g50
NtRp3116
(dp3117
g53
(dp3118
sg62
g3103
sg55
(lp3119
g48
(g49
g50
NtRp3120
(dp3121
g53
(dp3122
g61
I3
ssg62
g3116
sg55
(lp3123
g1759
asbasbasbag48
(g64
g50
NtRp3124
(dp3125
g53
(dp3126
sg62
g2445
sg55
(lp3127
g48
(g69
g50
NtRp3128
(dp3129
g53
(dp3130
g73
g74
ssg62
g3124
sg55
(lp3131
S'wsgi.version'
p3132
asbag48
(g69
g50
NtRp3133
(dp3134
g53
(dp3135
g80
g81
ssg62
g3124
sg55
(lp3136
S':'
asbag48
(g69
g50
NtRp3137
(dp3138
g53
(dp3139
sg62
g3124
sg55
(lp3140
g48
(g49
g50
NtRp3141
(dp3142
g53
(dp3143
g61
I3
ssg62
g3137
sg55
(lp3144
S'1'
asbasbasbasbasbasbasbasbasbasbasbasbasbsS'frames'
p3145
(lp3146
(dp3147
S'file'
p3148
S'D:\\Dropbox\\Eclipse\\OJDevSourceProject\\project\\web2py\\gluon\\restricted.py'
p3149
sS'dump'
p3150
(dp3151
S'environment'
p3152
S"{'A': <class 'gluon.html.A'>, 'ALLOW_TOGGLE': 'true', 'B': <class 'gluon.html.B'>, 'BEAUTIFY': <class 'gluon.html.BEAUTIFY'>, 'BODY': <class 'gluon.html.BODY'>, 'BR': <class 'gluon.html.BR'>, 'BUTTON': <class 'gluon.html.BUTTON'>, 'CAT': <class 'gluon.html.CAT'>, 'CENTER': <class 'gluon.html.CENTER'>, 'CHECK_VERSION': True, ...}"
p3153
sS'ccode'
p3154
S'<code object <module> at 07EEC728, file "D:\\Drop...plications\\admin\\controllers/default.py", line 3>'
p3155
ssS'lnum'
p3156
I194
sS'lines'
p3157
(dp3158
I192
S'        else:'
p3159
sI193
S'            ccode = compile2(code,layer)'
p3160
sI194
S'        exec ccode in environment'
p3161
sI195
S'    except HTTP:'
p3162
sI196
S'        raise'
p3163
sI197
S'    except Exception, error:'
p3164
sI198
S'        # XXX Show exception in Wing IDE if running in debugger'
p3165
sI189
S'    try:'
p3166
sI190
S'        if type(code) == types.CodeType:'
p3167
sI191
S'            ccode = code'
p3168
ssS'call'
p3169
S"(code='# coding: utf8\\n\\nfrom gluon.admin import *\\nfrom g...\\n\\nresponse._vars=response._caller(check_version)\\n', environment={'A': <class 'gluon.html.A'>, 'ALLOW_TOGGLE': 'true', 'B': <class 'gluon.html.B'>, 'BEAUTIFY': <class 'gluon.html.BEAUTIFY'>, 'BODY': <class 'gluon.html.BODY'>, 'BR': <class 'gluon.html.BR'>, 'BUTTON': <class 'gluon.html.BUTTON'>, 'CAT': <class 'gluon.html.CAT'>, 'CENTER': <class 'gluon.html.CENTER'>, 'CHECK_VERSION': True, ...}, layer=r'D:\\Dropbox\\Eclipse\\OJDevSourceProject\\project\\web2py\\applications\\admin\\controllers/default.py')"
p3170
sS'func'
p3171
S'restricted'
p3172
sa(dp3173
g3148
S'D:\\Dropbox\\Eclipse\\OJDevSourceProject\\project\\web2py\\applications\\admin\\controllers\\default.py'
p3174
sg3150
(dp3175
sg3156
I1225
sg3157
(dp3176
I1216
S'    else:'
p3177
sI1217
S'        return dict(form=T("Disabled"))'
p3178
sI1218
S''
sI1219
S'def reload_routes():'
p3179
sI1220
S'    """ Reload routes.py """'
p3180
sI1221
S'    import gluon.rewrite'
p3181
sI1222
S'    gluon.rewrite.load()'
p3182
sI1223
S"    redirect(URL('site'))"
p3183
sI1214
S'            auth.settings.registration_requires_approval = False'
p3184
sI1215
S'        return dict(form=auth())'
p3185
ssg3169
S'()'
p3186
sg3171
S'<module>'
p3187
sa(dp3188
g3148
S'D:\\Dropbox\\Eclipse\\OJDevSourceProject\\project\\web2py\\gluon\\globals.py'
p3189
sg3150
(dp3190
S'self'
p3191
S'undefined'
p3192
sS'f'
S'<function check_version at 0x078B43F0>'
p3193
ssg3156
I149
sg3157
(dp3194
I144
S'        self.meta = Storage()      # used by web2py_ajax.html'
p3195
sI145
S'        self.menu = []             # used by the default view layout'
p3196
sI146
S'        self.files = []            # used by web2py_ajax.html'
p3197
sI147
S'        self.generic_patterns = [] # patterns to allow generic views'
p3198
sI148
S'        self._vars = None'
p3199
sI149
S'        self._caller = lambda f: f()'
p3200
sI150
S'        self._view_environment = None'
p3201
sI151
S'        self._custom_commit = None'
p3202
sI152
S'        self._custom_rollback = None'
p3203
sI153
S''
ssg3169
S'(f=<function check_version at 0x078B43F0>)'
p3204
sg3171
S'<lambda>'
p3205
sa(dp3206
g3148
S'D:\\Dropbox\\Eclipse\\OJDevSourceProject\\project\\web2py\\applications\\admin\\controllers\\default.py'
p3207
sg3150
(dp3208
S'global XML'
p3209
S"<class 'gluon.html.XML'>"
p3210
sS'version_number'
p3211
S"(1, 99, 4, datetime.datetime(2011, 12, 14, 14, 46, 14), 'stable')"
p3212
ssg3156
I105
sg3157
(dp3213
I100
S"        return A(T('web2py is up to date'), _href=WEB2PY_URL)"
p3214
sI101
S'    elif platform.system().lower() in (\'windows\',\'win32\',\'win64\') and os.path.exists("web2py.exe"):'
p3215
sI102
S"        return SPAN('You should upgrade to version %s' % version_number)"
p3216
sI103
S'    else:'
p3217
sI104
S"        return sp_button(URL('upgrade_web2py'), T('upgrade now')) \\"
p3218
sI105
S'          + XML(\' <strong class="upgrade_version">%s</strong>\' % version_number)'
p3219
sI106
S''
sI107
S''
sI108
S'def logout():'
p3220
sI109
S'    """ Logout handler """'
p3221
ssg3169
S'()'
p3222
sg3171
S'check_version'
p3223
sasS'pyver'
p3224
S'Python 2.5.4: C:\\python25\\python.exe'
p3225
sS'session'
p3226
g48
(g49
g50
NtRp3227
(dp3228
g53
(dp3229
sg55
(lp3230
g48
(g57
g50
NtRp3231
(dp3232
g53
(dp3233
g61
I5
ssg62
Nsg55
(lp3234
g48
(g64
g50
NtRp3235
(dp3236
g53
(dp3237
sg62
g3231
sg55
(lp3238
g48
(g69
g50
NtRp3239
(dp3240
g53
(dp3241
g73
g74
ssg62
g3235
sg55
(lp3242
S'authorized'
p3243
asbag48
(g69
g50
NtRp3244
(dp3245
g53
(dp3246
g80
g81
ssg62
g3235
sg55
(lp3247
S':'
asbag48
(g69
g50
NtRp3248
(dp3249
g53
(dp3250
sg62
g3235
sg55
(lp3251
g48
(g49
g50
NtRp3252
(dp3253
g53
(dp3254
g61
I5
ssg62
g3248
sg55
(lp3255
g91
asbasbasbag48
(g64
g50
NtRp3256
(dp3257
g53
(dp3258
sg62
g3231
sg55
(lp3259
g48
(g69
g50
NtRp3260
(dp3261
g53
(dp3262
g73
g74
ssg62
g3256
sg55
(lp3263
S'check_version'
p3264
asbag48
(g69
g50
NtRp3265
(dp3266
g53
(dp3267
g80
g81
ssg62
g3256
sg55
(lp3268
S':'
asbag48
(g69
g50
NtRp3269
(dp3270
g53
(dp3271
sg62
g3256
sg55
(lp3272
g48
(g49
g50
NtRp3273
(dp3274
g53
(dp3275
g61
I5
ssg62
g3269
sg55
(lp3276
g911
asbasbasbag48
(g64
g50
NtRp3277
(dp3278
g53
(dp3279
sg62
g3231
sg55
(lp3280
g48
(g69
g50
NtRp3281
(dp3282
g53
(dp3283
g73
g74
ssg62
g3277
sg55
(lp3284
S'last_time'
p3285
asbag48
(g69
g50
NtRp3286
(dp3287
g53
(dp3288
g80
g81
ssg62
g3277
sg55
(lp3289
S':'
asbag48
(g69
g50
NtRp3290
(dp3291
g53
(dp3292
sg62
g3277
sg55
(lp3293
g48
(g49
g50
NtRp3294
(dp3295
g53
(dp3296
g61
I5
ssg62
g3290
sg55
(lp3297
S'1326361876.582'
p3298
asbasbasbasbasbsS'etype'
p3299
S"<type 'exceptions.TypeError'>"
p3300
sS'date'
p3301
S'Thu Jan 12 20:51:20 2012'
p3302
sS'response'
p3303
g48
(g49
g50
NtRp3304
(dp3305
g53
(dp3306
sg55
(lp3307
g48
(g57
g50
NtRp3308
(dp3309
g53
(dp3310
g61
I5
ssg62
Nsg55
(lp3311
g48
(g64
g50
NtRp3312
(dp3313
g53
(dp3314
sg62
g3308
sg55
(lp3315
g48
(g69
g50
NtRp3316
(dp3317
g53
(dp3318
g73
g74
ssg62
g3312
sg55
(lp3319
g146
asbag48
(g69
g50
NtRp3320
(dp3321
g53
(dp3322
g80
g81
ssg62
g3312
sg55
(lp3323
S':'
asbag48
(g69
g50
NtRp3324
(dp3325
g53
(dp3326
sg62
g3312
sg55
(lp3327
g48
(g49
g50
NtRp3328
(dp3329
g53
(dp3330
g61
I5
ssg62
g3324
sg55
(lp3331
S'<cStringIO.StringO object at 0x07B7A740>'
p3332
asbasbasbag48
(g64
g50
NtRp3333
(dp3334
g53
(dp3335
sg62
g3308
sg55
(lp3336
g48
(g69
g50
NtRp3337
(dp3338
g53
(dp3339
g73
g74
ssg62
g3333
sg55
(lp3340
g212
asbag48
(g69
g50
NtRp3341
(dp3342
g53
(dp3343
g80
g81
ssg62
g3333
sg55
(lp3344
S':'
asbag48
(g69
g50
NtRp3345
(dp3346
g53
(dp3347
sg62
g3333
sg55
(lp3348
g48
(g49
g50
NtRp3349
(dp3350
g53
(dp3351
g61
I5
ssg62
g3345
sg55
(lp3352
g48
(g57
g50
NtRp3353
(dp3354
g53
(dp3355
g61
I4
ssg62
Nsg55
(lp3356
g48
(g64
g50
NtRp3357
(dp3358
g53
(dp3359
sg62
g3353
sg55
(lp3360
g48
(g69
g50
NtRp3361
(dp3362
g53
(dp3363
g73
g74
ssg62
g3357
sg55
(lp3364
S'session_id_admin'
p3365
asbag48
(g69
g50
NtRp3366
(dp3367
g53
(dp3368
g80
g81
ssg62
g3357
sg55
(lp3369
S':'
asbag48
(g69
g50
NtRp3370
(dp3371
g53
(dp3372
sg62
g3357
sg55
(lp3373
g48
(g49
g50
NtRp3374
(dp3375
g53
(dp3376
g61
I4
ssg62
g3370
sg55
(lp3377
g48
(g57
g50
NtRp3378
(dp3379
g53
(dp3380
g61
I3
ssg62
Nsg55
(lp3381
g48
(g64
g50
NtRp3382
(dp3383
g53
(dp3384
sg62
g3378
sg55
(lp3385
g48
(g69
g50
NtRp3386
(dp3387
g53
(dp3388
g73
g74
ssg62
g3382
sg55
(lp3389
g262
asbag48
(g69
g50
NtRp3390
(dp3391
g53
(dp3392
g80
g81
ssg62
g3382
sg55
(lp3393
S':'
asbag48
(g69
g50
NtRp3394
(dp3395
g53
(dp3396
sg62
g3382
sg55
(lp3397
g48
(g49
g50
NtRp3398
(dp3399
g53
(dp3400
g61
I3
ssg62
g3394
sg55
(lp3401
S''
asbasbasbag48
(g64
g50
NtRp3402
(dp3403
g53
(dp3404
sg62
g3378
sg55
(lp3405
g48
(g69
g50
NtRp3406
(dp3407
g53
(dp3408
g73
g74
ssg62
g3402
sg55
(lp3409
g283
asbag48
(g69
g50
NtRp3410
(dp3411
g53
(dp3412
g80
g81
ssg62
g3402
sg55
(lp3413
S':'
asbag48
(g69
g50
NtRp3414
(dp3415
g53
(dp3416
sg62
g3402
sg55
(lp3417
g48
(g49
g50
NtRp3418
(dp3419
g53
(dp3420
g61
I3
ssg62
g3414
sg55
(lp3421
S''
asbasbasbag48
(g64
g50
NtRp3422
(dp3423
g53
(dp3424
sg62
g3378
sg55
(lp3425
g48
(g69
g50
NtRp3426
(dp3427
g53
(dp3428
g73
g74
ssg62
g3422
sg55
(lp3429
g304
asbag48
(g69
g50
NtRp3430
(dp3431
g53
(dp3432
g80
g81
ssg62
g3422
sg55
(lp3433
S':'
asbag48
(g69
g50
NtRp3434
(dp3435
g53
(dp3436
sg62
g3422
sg55
(lp3437
g48
(g49
g50
NtRp3438
(dp3439
g53
(dp3440
g61
I3
ssg62
g3434
sg55
(lp3441
S''
asbasbasbag48
(g64
g50
NtRp3442
(dp3443
g53
(dp3444
sg62
g3378
sg55
(lp3445
g48
(g69
g50
NtRp3446
(dp3447
g53
(dp3448
g73
g74
ssg62
g3442
sg55
(lp3449
g325
asbag48
(g69
g50
NtRp3450
(dp3451
g53
(dp3452
g80
g81
ssg62
g3442
sg55
(lp3453
S':'
asbag48
(g69
g50
NtRp3454
(dp3455
g53
(dp3456
sg62
g3442
sg55
(lp3457
g48
(g49
g50
NtRp3458
(dp3459
g53
(dp3460
g61
I3
ssg62
g3454
sg55
(lp3461
S''
asbasbasbag48
(g64
g50
NtRp3462
(dp3463
g53
(dp3464
sg62
g3378
sg55
(lp3465
g48
(g69
g50
NtRp3466
(dp3467
g53
(dp3468
g73
g74
ssg62
g3462
sg55
(lp3469
g346
asbag48
(g69
g50
NtRp3470
(dp3471
g53
(dp3472
g80
g81
ssg62
g3462
sg55
(lp3473
S':'
asbag48
(g69
g50
NtRp3474
(dp3475
g53
(dp3476
sg62
g3462
sg55
(lp3477
g48
(g49
g50
NtRp3478
(dp3479
g53
(dp3480
g61
I3
ssg62
g3474
sg55
(lp3481
S'/'
asbasbasbag48
(g64
g50
NtRp3482
(dp3483
g53
(dp3484
sg62
g3378
sg55
(lp3485
g48
(g69
g50
NtRp3486
(dp3487
g53
(dp3488
g73
g74
ssg62
g3482
sg55
(lp3489
g367
asbag48
(g69
g50
NtRp3490
(dp3491
g53
(dp3492
g80
g81
ssg62
g3482
sg55
(lp3493
S':'
asbag48
(g69
g50
NtRp3494
(dp3495
g53
(dp3496
sg62
g3482
sg55
(lp3497
g48
(g49
g50
NtRp3498
(dp3499
g53
(dp3500
g61
I3
ssg62
g3494
sg55
(lp3501
S''
asbasbasbag48
(g64
g50
NtRp3502
(dp3503
g53
(dp3504
sg62
g3378
sg55
(lp3505
g48
(g69
g50
NtRp3506
(dp3507
g53
(dp3508
g73
g74
ssg62
g3502
sg55
(lp3509
g388
asbag48
(g69
g50
NtRp3510
(dp3511
g53
(dp3512
g80
g81
ssg62
g3502
sg55
(lp3513
S':'
asbag48
(g69
g50
NtRp3514
(dp3515
g53
(dp3516
sg62
g3502
sg55
(lp3517
g48
(g49
g50
NtRp3518
(dp3519
g53
(dp3520
g61
I3
ssg62
g3514
sg55
(lp3521
S''
asbasbasbasbasbasbasbasbasbasbasbag48
(g64
g50
NtRp3522
(dp3523
g53
(dp3524
sg62
g3308
sg55
(lp3525
g48
(g69
g50
NtRp3526
(dp3527
g53
(dp3528
g73
g74
ssg62
g3522
sg55
(lp3529
S'files'
p3530
asbag48
(g69
g50
NtRp3531
(dp3532
g53
(dp3533
g80
g81
ssg62
g3522
sg55
(lp3534
S':'
asbag48
(g69
g50
NtRp3535
(dp3536
g53
(dp3537
sg62
g3522
sg55
(lp3538
g48
(g49
g50
NtRp3539
(dp3540
g53
(dp3541
g61
I5
ssg62
g3535
sg55
(lp3542
g48
(g57
g50
NtRp3543
(dp3544
g53
(dp3545
g61
I4
ssg62
Nsg55
(lp3546
g48
(g64
g50
NtRp3547
(dp3548
g53
(dp3549
sg62
g3543
sg55
(lp3550
g48
(g69
g50
NtRp3551
(dp3552
g53
(dp3553
sg62
g3547
sg55
(lp3554
g48
(g49
g50
NtRp3555
(dp3556
g53
(dp3557
g61
I4
ssg62
g3551
sg55
(lp3558
S'/admin/static/plugin_multiselect/jquery.dimensions.js'
p3559
asbasbasbag48
(g64
g50
NtRp3560
(dp3561
g53
(dp3562
sg62
g3543
sg55
(lp3563
g48
(g69
g50
NtRp3564
(dp3565
g53
(dp3566
sg62
g3560
sg55
(lp3567
g48
(g49
g50
NtRp3568
(dp3569
g53
(dp3570
g61
I4
ssg62
g3564
sg55
(lp3571
S'/admin/static/plugin_multiselect/jquery.multiselect.js'
p3572
asbasbasbag48
(g64
g50
NtRp3573
(dp3574
g53
(dp3575
sg62
g3543
sg55
(lp3576
g48
(g69
g50
NtRp3577
(dp3578
g53
(dp3579
sg62
g3573
sg55
(lp3580
g48
(g49
g50
NtRp3581
(dp3582
g53
(dp3583
g61
I4
ssg62
g3577
sg55
(lp3584
S'/admin/static/plugin_multiselect/jquery.multiselect.css'
p3585
asbasbasbag48
(g64
g50
NtRp3586
(dp3587
g53
(dp3588
sg62
g3543
sg55
(lp3589
g48
(g69
g50
NtRp3590
(dp3591
g53
(dp3592
sg62
g3586
sg55
(lp3593
g48
(g49
g50
NtRp3594
(dp3595
g53
(dp3596
g61
I4
ssg62
g3590
sg55
(lp3597
S'/admin/static/plugin_multiselect/start.js'
p3598
asbasbasbasbasbasbasbag48
(g64
g50
NtRp3599
(dp3600
g53
(dp3601
sg62
g3308
sg55
(lp3602
g48
(g69
g50
NtRp3603
(dp3604
g53
(dp3605
g73
g74
ssg62
g3599
sg55
(lp3606
S'flash'
p3607
asbag48
(g69
g50
NtRp3608
(dp3609
g53
(dp3610
g80
g81
ssg62
g3599
sg55
(lp3611
S':'
asbag48
(g69
g50
NtRp3612
(dp3613
g53
(dp3614
sg62
g3599
sg55
(lp3615
g48
(g49
g50
NtRp3616
(dp3617
g53
(dp3618
g61
I5
ssg62
g3612
sg55
(lp3619
S''
asbasbasbag48
(g64
g50
NtRp3620
(dp3621
g53
(dp3622
sg62
g3308
sg55
(lp3623
g48
(g69
g50
NtRp3624
(dp3625
g53
(dp3626
g73
g74
ssg62
g3620
sg55
(lp3627
S'generic_patterns'
p3628
asbag48
(g69
g50
NtRp3629
(dp3630
g53
(dp3631
g80
g81
ssg62
g3620
sg55
(lp3632
S':'
asbag48
(g69
g50
NtRp3633
(dp3634
g53
(dp3635
sg62
g3620
sg55
(lp3636
g48
(g49
g50
NtRp3637
(dp3638
g53
(dp3639
g61
I5
ssg62
g3633
sg55
(lp3640
g48
(g57
g50
NtRp3641
(dp3642
g53
(dp3643
g61
I4
ssg62
Nsg55
(lp3644
sbasbasbasbag48
(g64
g50
NtRp3645
(dp3646
g53
(dp3647
sg62
g3308
sg55
(lp3648
g48
(g69
g50
NtRp3649
(dp3650
g53
(dp3651
g73
g74
ssg62
g3645
sg55
(lp3652
S'headers'
p3653
asbag48
(g69
g50
NtRp3654
(dp3655
g53
(dp3656
g80
g81
ssg62
g3645
sg55
(lp3657
S':'
asbag48
(g69
g50
NtRp3658
(dp3659
g53
(dp3660
sg62
g3645
sg55
(lp3661
g48
(g49
g50
NtRp3662
(dp3663
g53
(dp3664
g61
I5
ssg62
g3658
sg55
(lp3665
g48
(g57
g50
NtRp3666
(dp3667
g53
(dp3668
g61
I4
ssg62
Nsg55
(lp3669
g48
(g64
g50
NtRp3670
(dp3671
g53
(dp3672
sg62
g3666
sg55
(lp3673
g48
(g69
g50
NtRp3674
(dp3675
g53
(dp3676
g73
g74
ssg62
g3670
sg55
(lp3677
S'Cache-Control'
p3678
asbag48
(g69
g50
NtRp3679
(dp3680
g53
(dp3681
g80
g81
ssg62
g3670
sg55
(lp3682
S':'
asbag48
(g69
g50
NtRp3683
(dp3684
g53
(dp3685
sg62
g3670
sg55
(lp3686
g48
(g49
g50
NtRp3687
(dp3688
g53
(dp3689
g61
I4
ssg62
g3683
sg55
(lp3690
S'no-store, no-cache, must-revalidate, post-check=0, pre-check=0'
p3691
asbasbasbag48
(g64
g50
NtRp3692
(dp3693
g53
(dp3694
sg62
g3666
sg55
(lp3695
g48
(g69
g50
NtRp3696
(dp3697
g53
(dp3698
g73
g74
ssg62
g3692
sg55
(lp3699
S'Content-Type'
p3700
asbag48
(g69
g50
NtRp3701
(dp3702
g53
(dp3703
g80
g81
ssg62
g3692
sg55
(lp3704
S':'
asbag48
(g69
g50
NtRp3705
(dp3706
g53
(dp3707
sg62
g3692
sg55
(lp3708
g48
(g49
g50
NtRp3709
(dp3710
g53
(dp3711
g61
I4
ssg62
g3705
sg55
(lp3712
S'text/html; charset=utf-8'
p3713
asbasbasbag48
(g64
g50
NtRp3714
(dp3715
g53
(dp3716
sg62
g3666
sg55
(lp3717
g48
(g69
g50
NtRp3718
(dp3719
g53
(dp3720
g73
g74
ssg62
g3714
sg55
(lp3721
S'Expires'
p3722
asbag48
(g69
g50
NtRp3723
(dp3724
g53
(dp3725
g80
g81
ssg62
g3714
sg55
(lp3726
S':'
asbag48
(g69
g50
NtRp3727
(dp3728
g53
(dp3729
sg62
g3714
sg55
(lp3730
g48
(g49
g50
NtRp3731
(dp3732
g53
(dp3733
g61
I4
ssg62
g3727
sg55
(lp3734
S'Thu, 12 Jan 2012 09:51:16 GMT'
p3735
asbasbasbag48
(g64
g50
NtRp3736
(dp3737
g53
(dp3738
sg62
g3666
sg55
(lp3739
g48
(g69
g50
NtRp3740
(dp3741
g53
(dp3742
g73
g74
ssg62
g3736
sg55
(lp3743
S'NingNang'
p3744
asbag48
(g69
g50
NtRp3745
(dp3746
g53
(dp3747
g80
g81
ssg62
g3736
sg55
(lp3748
S':'
asbag48
(g69
g50
NtRp3749
(dp3750
g53
(dp3751
sg62
g3736
sg55
(lp3752
g48
(g49
g50
NtRp3753
(dp3754
g53
(dp3755
g61
I4
ssg62
g3749
sg55
(lp3756
S'Nong'
p3757
asbasbasbag48
(g64
g50
NtRp3758
(dp3759
g53
(dp3760
sg62
g3666
sg55
(lp3761
g48
(g69
g50
NtRp3762
(dp3763
g53
(dp3764
g73
g74
ssg62
g3758
sg55
(lp3765
S'Pragma'
p3766
asbag48
(g69
g50
NtRp3767
(dp3768
g53
(dp3769
g80
g81
ssg62
g3758
sg55
(lp3770
S':'
asbag48
(g69
g50
NtRp3771
(dp3772
g53
(dp3773
sg62
g3758
sg55
(lp3774
g48
(g49
g50
NtRp3775
(dp3776
g53
(dp3777
g61
I4
ssg62
g3771
sg55
(lp3778
S'no-cache'
p3779
asbasbasbasbasbasbasbag48
(g64
g50
NtRp3780
(dp3781
g53
(dp3782
sg62
g3308
sg55
(lp3783
g48
(g69
g50
NtRp3784
(dp3785
g53
(dp3786
g73
g74
ssg62
g3780
sg55
(lp3787
S'menu'
p3788
asbag48
(g69
g50
NtRp3789
(dp3790
g53
(dp3791
g80
g81
ssg62
g3780
sg55
(lp3792
S':'
asbag48
(g69
g50
NtRp3793
(dp3794
g53
(dp3795
sg62
g3780
sg55
(lp3796
g48
(g49
g50
NtRp3797
(dp3798
g53
(dp3799
g61
I5
ssg62
g3793
sg55
(lp3800
g48
(g57
g50
NtRp3801
(dp3802
g53
(dp3803
g61
I4
ssg62
Nsg55
(lp3804
g48
(g64
g50
NtRp3805
(dp3806
g53
(dp3807
sg62
g3801
sg55
(lp3808
g48
(g69
g50
NtRp3809
(dp3810
g53
(dp3811
sg62
g3805
sg55
(lp3812
g48
(g49
g50
NtRp3813
(dp3814
g53
(dp3815
g61
I4
ssg62
g3809
sg55
(lp3816
g48
(g57
g50
NtRp3817
(dp3818
g53
(dp3819
g61
I3
ssg62
Nsg55
(lp3820
g48
(g64
g50
NtRp3821
(dp3822
g53
(dp3823
sg62
g3817
sg55
(lp3824
g48
(g69
g50
NtRp3825
(dp3826
g53
(dp3827
sg62
g3821
sg55
(lp3828
g48
(g49
g50
NtRp3829
(dp3830
g53
(dp3831
g61
I3
ssg62
g3825
sg55
(lp3832
cgluon.languages
lazyT_unpickle
p3833
(S's\x04\x00\x00\x00Site'
tRp3834
asbasbasbag48
(g64
g50
NtRp3835
(dp3836
g53
(dp3837
sg62
g3817
sg55
(lp3838
g48
(g69
g50
NtRp3839
(dp3840
g53
(dp3841
sg62
g3835
sg55
(lp3842
g48
(g49
g50
NtRp3843
(dp3844
g53
(dp3845
g61
I3
ssg62
g3839
sg55
(lp3846
g911
asbasbasbag48
(g64
g50
NtRp3847
(dp3848
g53
(dp3849
sg62
g3817
sg55
(lp3850
g48
(g69
g50
NtRp3851
(dp3852
g53
(dp3853
sg62
g3847
sg55
(lp3854
g48
(g49
g50
NtRp3855
(dp3856
g53
(dp3857
g61
I3
ssg62
g3851
sg55
(lp3858
S'/admin/default/site'
p3859
asbasbasbasbasbasbasbag48
(g64
g50
NtRp3860
(dp3861
g53
(dp3862
sg62
g3801
sg55
(lp3863
g48
(g69
g50
NtRp3864
(dp3865
g53
(dp3866
sg62
g3860
sg55
(lp3867
g48
(g49
g50
NtRp3868
(dp3869
g53
(dp3870
g61
I4
ssg62
g3864
sg55
(lp3871
g48
(g57
g50
NtRp3872
(dp3873
g53
(dp3874
g61
I3
ssg62
Nsg55
(lp3875
g48
(g64
g50
NtRp3876
(dp3877
g53
(dp3878
sg62
g3872
sg55
(lp3879
g48
(g69
g50
NtRp3880
(dp3881
g53
(dp3882
sg62
g3876
sg55
(lp3883
g48
(g49
g50
NtRp3884
(dp3885
g53
(dp3886
g61
I3
ssg62
g3880
sg55
(lp3887
g3833
(S's\x06\x00\x00\x00Logout'
tRp3888
asbasbasbag48
(g64
g50
NtRp3889
(dp3890
g53
(dp3891
sg62
g3872
sg55
(lp3892
g48
(g69
g50
NtRp3893
(dp3894
g53
(dp3895
sg62
g3889
sg55
(lp3896
g48
(g49
g50
NtRp3897
(dp3898
g53
(dp3899
g61
I3
ssg62
g3893
sg55
(lp3900
g911
asbasbasbag48
(g64
g50
NtRp3901
(dp3902
g53
(dp3903
sg62
g3872
sg55
(lp3904
g48
(g69
g50
NtRp3905
(dp3906
g53
(dp3907
sg62
g3901
sg55
(lp3908
g48
(g49
g50
NtRp3909
(dp3910
g53
(dp3911
g61
I3
ssg62
g3905
sg55
(lp3912
S'/admin/default/logout'
p3913
asbasbasbasbasbasbasbag48
(g64
g50
NtRp3914
(dp3915
g53
(dp3916
sg62
g3801
sg55
(lp3917
g48
(g69
g50
NtRp3918
(dp3919
g53
(dp3920
sg62
g3914
sg55
(lp3921
g48
(g49
g50
NtRp3922
(dp3923
g53
(dp3924
g61
I4
ssg62
g3918
sg55
(lp3925
g48
(g57
g50
NtRp3926
(dp3927
g53
(dp3928
g61
I3
ssg62
Nsg55
(lp3929
g48
(g64
g50
NtRp3930
(dp3931
g53
(dp3932
sg62
g3926
sg55
(lp3933
g48
(g69
g50
NtRp3934
(dp3935
g53
(dp3936
sg62
g3930
sg55
(lp3937
g48
(g49
g50
NtRp3938
(dp3939
g53
(dp3940
g61
I3
ssg62
g3934
sg55
(lp3941
g3833
(S's\x04\x00\x00\x00Help'
tRp3942
asbasbasbag48
(g64
g50
NtRp3943
(dp3944
g53
(dp3945
sg62
g3926
sg55
(lp3946
g48
(g69
g50
NtRp3947
(dp3948
g53
(dp3949
sg62
g3943
sg55
(lp3950
g48
(g49
g50
NtRp3951
(dp3952
g53
(dp3953
g61
I3
ssg62
g3947
sg55
(lp3954
g911
asbasbasbag48
(g64
g50
NtRp3955
(dp3956
g53
(dp3957
sg62
g3926
sg55
(lp3958
g48
(g69
g50
NtRp3959
(dp3960
g53
(dp3961
sg62
g3955
sg55
(lp3962
g48
(g49
g50
NtRp3963
(dp3964
g53
(dp3965
g61
I3
ssg62
g3959
sg55
(lp3966
S'/examples/default/index'
p3967
asbasbasbasbasbasbasbasbasbasbasbag48
(g64
g50
NtRp3968
(dp3969
g53
(dp3970
sg62
g3308
sg55
(lp3971
g48
(g69
g50
NtRp3972
(dp3973
g53
(dp3974
g73
g74
ssg62
g3968
sg55
(lp3975
S'meta'
p3976
asbag48
(g69
g50
NtRp3977
(dp3978
g53
(dp3979
g80
g81
ssg62
g3968
sg55
(lp3980
S':'
asbag48
(g69
g50
NtRp3981
(dp3982
g53
(dp3983
sg62
g3968
sg55
(lp3984
g48
(g49
g50
NtRp3985
(dp3986
g53
(dp3987
g61
I5
ssg62
g3981
sg55
(lp3988
g48
(g57
g50
NtRp3989
(dp3990
g53
(dp3991
g61
I4
ssg62
Nsg55
(lp3992
sbasbasbasbag48
(g64
g50
NtRp3993
(dp3994
g53
(dp3995
sg62
g3308
sg55
(lp3996
g48
(g69
g50
NtRp3997
(dp3998
g53
(dp3999
g73
g74
ssg62
g3993
sg55
(lp4000
S'postprocessing'
p4001
asbag48
(g69
g50
NtRp4002
(dp4003
g53
(dp4004
g80
g81
ssg62
g3993
sg55
(lp4005
S':'
asbag48
(g69
g50
NtRp4006
(dp4007
g53
(dp4008
sg62
g3993
sg55
(lp4009
g48
(g49
g50
NtRp4010
(dp4011
g53
(dp4012
g61
I5
ssg62
g4006
sg55
(lp4013
g48
(g57
g50
NtRp4014
(dp4015
g53
(dp4016
g61
I4
ssg62
Nsg55
(lp4017
sbasbasbasbag48
(g64
g50
NtRp4018
(dp4019
g53
(dp4020
sg62
g3308
sg55
(lp4021
g48
(g69
g50
NtRp4022
(dp4023
g53
(dp4024
g73
g74
ssg62
g4018
sg55
(lp4025
S'session_file'
p4026
asbag48
(g69
g50
NtRp4027
(dp4028
g53
(dp4029
g80
g81
ssg62
g4018
sg55
(lp4030
S':'
asbag48
(g69
g50
NtRp4031
(dp4032
g53
(dp4033
sg62
g4018
sg55
(lp4034
g48
(g49
g50
NtRp4035
(dp4036
g53
(dp4037
g61
I5
ssg62
g4031
sg55
(lp4038
S"<open file 'D:\\Dropbox\\Eclipse\\OJDevSourceProject\\project\\web2py\\applications\\admin\\sessions\\127.0.0.1-5b4395d5-e341-4481-9660-2d895f19c62b', mode 'rb+' at 0x07EEC068>"
p4039
asbasbasbag48
(g64
g50
NtRp4040
(dp4041
g53
(dp4042
sg62
g3308
sg55
(lp4043
g48
(g69
g50
NtRp4044
(dp4045
g53
(dp4046
g73
g74
ssg62
g4040
sg55
(lp4047
S'session_filename'
p4048
asbag48
(g69
g50
NtRp4049
(dp4050
g53
(dp4051
g80
g81
ssg62
g4040
sg55
(lp4052
S':'
asbag48
(g69
g50
NtRp4053
(dp4054
g53
(dp4055
sg62
g4040
sg55
(lp4056
g48
(g49
g50
NtRp4057
(dp4058
g53
(dp4059
g61
I5
ssg62
g4053
sg55
(lp4060
S'D:\\Dropbox\\Eclipse\\OJDevSourceProject\\project\\web2py\\applications\\admin\\sessions\\127.0.0.1-5b4395d5-e341-4481-9660-2d895f19c62b'
p4061
asbasbasbag48
(g64
g50
NtRp4062
(dp4063
g53
(dp4064
sg62
g3308
sg55
(lp4065
g48
(g69
g50
NtRp4066
(dp4067
g53
(dp4068
g73
g74
ssg62
g4062
sg55
(lp4069
S'session_id'
p4070
asbag48
(g69
g50
NtRp4071
(dp4072
g53
(dp4073
g80
g81
ssg62
g4062
sg55
(lp4074
S':'
asbag48
(g69
g50
NtRp4075
(dp4076
g53
(dp4077
sg62
g4062
sg55
(lp4078
g48
(g49
g50
NtRp4079
(dp4080
g53
(dp4081
g61
I5
ssg62
g4075
sg55
(lp4082
S'127.0.0.1-5b4395d5-e341-4481-9660-2d895f19c62b'
p4083
asbasbasbag48
(g64
g50
NtRp4084
(dp4085
g53
(dp4086
sg62
g3308
sg55
(lp4087
g48
(g69
g50
NtRp4088
(dp4089
g53
(dp4090
g73
g74
ssg62
g4084
sg55
(lp4091
S'session_id_name'
p4092
asbag48
(g69
g50
NtRp4093
(dp4094
g53
(dp4095
g80
g81
ssg62
g4084
sg55
(lp4096
S':'
asbag48
(g69
g50
NtRp4097
(dp4098
g53
(dp4099
sg62
g4084
sg55
(lp4100
g48
(g49
g50
NtRp4101
(dp4102
g53
(dp4103
g61
I5
ssg62
g4097
sg55
(lp4104
g3365
asbasbasbag48
(g64
g50
NtRp4105
(dp4106
g53
(dp4107
sg62
g3308
sg55
(lp4108
g48
(g69
g50
NtRp4109
(dp4110
g53
(dp4111
g73
g74
ssg62
g4105
sg55
(lp4112
S'session_locked'
p4113
asbag48
(g69
g50
NtRp4114
(dp4115
g53
(dp4116
g80
g81
ssg62
g4105
sg55
(lp4117
S':'
asbag48
(g69
g50
NtRp4118
(dp4119
g53
(dp4120
sg62
g4105
sg55
(lp4121
g48
(g49
g50
NtRp4122
(dp4123
g53
(dp4124
g61
I5
ssg62
g4118
sg55
(lp4125
g911
asbasbasbag48
(g64
g50
NtRp4126
(dp4127
g53
(dp4128
sg62
g3308
sg55
(lp4129
g48
(g69
g50
NtRp4130
(dp4131
g53
(dp4132
g73
g74
ssg62
g4126
sg55
(lp4133
S'session_new'
p4134
asbag48
(g69
g50
NtRp4135
(dp4136
g53
(dp4137
g80
g81
ssg62
g4126
sg55
(lp4138
S':'
asbag48
(g69
g50
NtRp4139
(dp4140
g53
(dp4141
sg62
g4126
sg55
(lp4142
g48
(g49
g50
NtRp4143
(dp4144
g53
(dp4145
g61
I5
ssg62
g4139
sg55
(lp4146
g911
asbasbasbag48
(g64
g50
NtRp4147
(dp4148
g53
(dp4149
sg62
g3308
sg55
(lp4150
g48
(g69
g50
NtRp4151
(dp4152
g53
(dp4153
g73
g74
ssg62
g4147
sg55
(lp4154
S'status'
p4155
asbag48
(g69
g50
NtRp4156
(dp4157
g53
(dp4158
g80
g81
ssg62
g4147
sg55
(lp4159
S':'
asbag48
(g69
g50
NtRp4160
(dp4161
g53
(dp4162
sg62
g4147
sg55
(lp4163
g48
(g49
g50
NtRp4164
(dp4165
g53
(dp4166
g61
I5
ssg62
g4160
sg55
(lp4167
S'200'
p4168
asbasbasbag48
(g64
g50
NtRp4169
(dp4170
g53
(dp4171
sg62
g3308
sg55
(lp4172
g48
(g69
g50
NtRp4173
(dp4174
g53
(dp4175
g73
g74
ssg62
g4169
sg55
(lp4176
S'subtitle'
p4177
asbag48
(g69
g50
NtRp4178
(dp4179
g53
(dp4180
g80
g81
ssg62
g4169
sg55
(lp4181
S':'
asbag48
(g69
g50
NtRp4182
(dp4183
g53
(dp4184
sg62
g4169
sg55
(lp4185
g48
(g49
g50
NtRp4186
(dp4187
g53
(dp4188
g61
I5
ssg62
g4182
sg55
(lp4189
S'admin'
p4190
asbasbasbag48
(g64
g50
NtRp4191
(dp4192
g53
(dp4193
sg62
g3308
sg55
(lp4194
g48
(g69
g50
NtRp4195
(dp4196
g53
(dp4197
g73
g74
ssg62
g4191
sg55
(lp4198
S'title'
p4199
asbag48
(g69
g50
NtRp4200
(dp4201
g53
(dp4202
g80
g81
ssg62
g4191
sg55
(lp4203
S':'
asbag48
(g69
g50
NtRp4204
(dp4205
g53
(dp4206
sg62
g4191
sg55
(lp4207
g48
(g49
g50
NtRp4208
(dp4209
g53
(dp4210
g61
I5
ssg62
g4204
sg55
(lp4211
S'check_version '
p4212
asbasbasbag48
(g64
g50
NtRp4213
(dp4214
g53
(dp4215
sg62
g3308
sg55
(lp4216
g48
(g69
g50
NtRp4217
(dp4218
g53
(dp4219
g73
g74
ssg62
g4213
sg55
(lp4220
g2360
asbag48
(g69
g50
NtRp4221
(dp4222
g53
(dp4223
g80
g81
ssg62
g4213
sg55
(lp4224
S':'
asbag48
(g69
g50
NtRp4225
(dp4226
g53
(dp4227
sg62
g4213
sg55
(lp4228
g48
(g49
g50
NtRp4229
(dp4230
g53
(dp4231
g61
I5
ssg62
g4225
sg55
(lp4232
g2373
asbasbasbag48
(g64
g50
NtRp4233
(dp4234
g53
(dp4235
sg62
g3308
sg55
(lp4236
g48
(g69
g50
NtRp4237
(dp4238
g53
(dp4239
g73
g74
ssg62
g4233
sg55
(lp4240
S'view'
p4241
asbag48
(g69
g50
NtRp4242
(dp4243
g53
(dp4244
g80
g81
ssg62
g4233
sg55
(lp4245
S':'
asbag48
(g69
g50
NtRp4246
(dp4247
g53
(dp4248
sg62
g4233
sg55
(lp4249
g48
(g49
g50
NtRp4250
(dp4251
g53
(dp4252
g61
I5
ssg62
g4246
sg55
(lp4253
S'default/check_version.html'
p4254
asbasbasbasbasbsS'locals'
p4255
(dp4256
S'version_number'
p4257
S"(1, 99, 4, datetime.datetime(2011, 12, 14, 14, 46, 14), 'stable')"
p4258
sS'new_version'
p4259
g91
sssS'traceback'
p4260
S'Traceback (most recent call last):\n  File "D:\\Dropbox\\Eclipse\\OJDevSourceProject\\project\\web2py\\gluon\\restricted.py", line 194, in restricted\n    exec ccode in environment\n  File "D:\\Dropbox\\Eclipse\\OJDevSourceProject\\project\\web2py\\applications\\admin\\controllers/default.py", line 1225, in <module>\n  File "D:\\Dropbox\\Eclipse\\OJDevSourceProject\\project\\web2py\\gluon\\globals.py", line 149, in <lambda>\n    self._caller = lambda f: f()\n  File "D:\\Dropbox\\Eclipse\\OJDevSourceProject\\project\\web2py\\applications\\admin\\controllers/default.py", line 105, in check_version\n    + XML(\' <strong class="upgrade_version">%s</strong>\' % version_number)\nTypeError: not all arguments converted during string formatting\n'
p4261
s.